              	; --------------------------------------
              	; zasm: assemble "m80b.asm"
              	; opts: --8080
              	; date: 2018-05-18 20:49:26
              	; --------------------------------------


              	#!/usr/local/bin/zasm --8080 -o original/
              	; Final version 22-07-2014
              	
              	*LIST ON
0000:         	p0000   EQU 0                   ; DOS EXIT
0005:         	p0005   EQU 5                   ; DOS entry point
0006:         	p0006   EQU 6
0080:         	x0080   EQU 80H                 ; PSP area
              	
000D:         	CR      EQU 0DH
000A:         	LF      EQU 0AH
0009:         	TAB     EQU 09H
              	
0100:         	        ORG 100H
0100: 210A01  	p0100:  LD HL,p010A             ; 0100
0103: C30C47  	        JP p470C                ; 0103
              	
0106: 4D414300	xs0106: DB "MAC",0              ; 0106
              	
010A: 222740  	p010A:  LD (xw4027),HL          ; 010A
010D: 3C      	        INC A                   ; 010D
010E: 2F      	        CPL                     ; 010E
010F: 57      	        LD D,A                  ; 010F
0110: 1E00    	        LD E,00H                ; 0110
0112: 19      	        ADD HL,DE               ; 0112
0113: 222940  	        LD (xw4029),HL          ; 0113
0116: AF      	        XOR A                   ; 0116
0117: 013B03  	        LD BC,033BH             ; 0117 count = 827
011A: 21EC3C  	        LD HL,xb3CEC            ; 011A address
011D: 5F      	        LD E,A                  ; 011D
011E: 73      	p011E:  LD (HL),E               ; 011E clear range
011F: 23      	        INC HL                  ; 011F
0120: 0B      	        DEC BC                  ; 0120
0121: 78      	        LD A,B                  ; 0121
0122: B1      	        OR C                    ; 0122
0123: C21E01  	        JP NZ,p011E             ; 0123
0126: 21354F  	        LD HL,x4F35             ; 0126
0129: 22413D  	        LD (xw3D41),HL          ; 0129
012C: 77      	        LD (HL),A               ; 012C
012D: 24      	        INC H                   ; 012D
012E: 24      	        INC H                   ; 012E
012F: 24      	        INC H                   ; 012F
0130: 24      	        INC H                   ; 0130
0131: 221D40  	        LD (xw401D),HL          ; 0131
0134: 012000  	        LD BC,0020H             ; 0134
0137: 09      	        ADD HL,BC               ; 0137
0138: 221F40  	        LD (xw401F),HL          ; 0138
013B: 2100F8  	        LD HL,0F800H            ; 013B
013E: 22C33E  	        LD (xb3EC3),HL          ; 013E
0141: 212B40  	        LD HL,xt402B            ; 0141 Register look-up table
0144: 11E93D  	p0144:  LD DE,xb3DE9            ; 0144 address
0147: 7E      	        LD A,(HL)               ; 0147
0148: B7      	        OR A                    ; 0148
0149: CA7601  	        JP Z,p0176              ; 0149
014C: F5      	        PUSH AF                 ; 014C
014D: E607    	        AND 07H                 ; 014D
014F: 12      	        LD (DE),A               ; 014F
0150: 4F      	        LD C,A                  ; 0150
0151: 23      	p0151:  INC HL                  ; 0151
0152: 13      	        INC DE                  ; 0152
0153: 7E      	        LD A,(HL)               ; 0153
0154: 12      	        LD (DE),A               ; 0154
0155: 0D      	        DEC C                   ; 0155
0156: C25101  	        JP NZ,p0151             ; 0156
0159: E5      	        PUSH HL                 ; 0159
015A: CDFC0C  	        CALL p0CFC              ; 015A
015D: D1      	        POP DE                  ; 015D
015E: F1      	        POP AF                  ; 015E
015F: E6F8    	        AND 0F8H                ; 015F
0161: 77      	        LD (HL),A               ; 0161
0162: 23      	        INC HL                  ; 0162
0163: 13      	        INC DE                  ; 0163
0164: 1A      	        LD A,(DE)               ; 0164
0165: 13      	        INC DE                  ; 0165
0166: 3620    	        LD (HL),20H             ; 0166
0168: 23      	        INC HL                  ; 0168
0169: 77      	        LD (HL),A               ; 0169
016A: EB      	        EX DE,HL                ; 016A
016B: C34401  	        JP p0144                ; 016B
              	
016E: CD844B  	p016E:  CALL p4B84              ; 016E
0171: 3E01    	        LD A,01H                ; 0171
0173: 32EC3C  	        LD (xb3CEC),A           ; 0173
0176: AF      	p0176:  XOR A                   ; 0176
0177: 320640  	        LD (xb4006),A           ; 0177
017A: 32813E  	        LD (xf3E81),A           ; 017A
017D: 322D3D  	        LD (xb3D2D),A           ; 017D
0180: 32F33C  	        LD (xb3CF3),A           ; 0180
0183: 32F43C  	        LD (xb3CF4),A           ; 0183
0186: 32E83D  	        LD (xb3DE8),A           ; 0186
0189: 32F53C  	        LD (xb3CF5),A           ; 0189
018C: 32FA3F  	        LD (xb3FFA),A           ; 018C
018F: 32E43D  	        LD (xb3DE4),A           ; 018F
0192: 21D23D  	        LD HL,xw3DD2            ; 0192
0195: 060A    	        LD B,0AH                ; 0195
0197: 77      	p0197:  LD (HL),A               ; 0197
0198: 23      	        INC HL                  ; 0198
0199: 05      	        DEC B                   ; 0199
019A: C29701  	        JP NZ,p0197             ; 019A
019D: 3C      	        INC A                   ; 019D
019E: 32283D  	        LD (xb3D28),A           ; 019E
01A1: 322E3D  	        LD (xb3D2E),A           ; 01A1
01A4: 322F3D  	        LD (xb3D2F),A           ; 01A4
01A7: 32D13D  	        LD (xb3DD1),A           ; 01A7
01AA: 3E0A    	        LD A,0AH                ; 01AA
01AC: 32F13C  	        LD (xb3CF1),A           ; 01AC
01AF: 3A8840  	        LD A,(xb4088)           ; 01AF
01B2: 32EA3C  	        LD (xb3CEA),A           ; 01B2
01B5: 3A8D40  	        LD A,(xb408D)           ; 01B5
01B8: 322A3D  	        LD (xb3D2A),A           ; 01B8
01BB: 3E3B    	        LD A,3BH                ; 01BB
01BD: 32333D  	        LD (xb3D33),A           ; 01BD
01C0: 3C      	        INC A                   ; 01C0
01C1: 32323D  	        LD (xb3D32),A           ; 01C1
01C4: 210100  	        LD HL,0001H             ; 01C4
01C7: 22343D  	        LD (xw3D34),HL          ; 01C7
01CA: 2B      	        DEC HL                  ; 01CA
01CB: 221640  	        LD (xw4016),HL          ; 01CB
01CE: 2B      	        DEC HL                  ; 01CE
01CF: 22363D  	        LD (xw3D36),HL          ; 01CF
01D2: 2A2740  	        LD HL,(xw4027)          ; 01D2
01D5: F9      	        LD SP,HL                ; 01D5
01D6: 21CC02  	        LD HL,p02CC             ; 01D6
01D9: E5      	        PUSH HL                 ; 01D9
01DA: 213602  	        LD HL,p0236             ; 01DA spoofed return address
01DD: E5      	        PUSH HL                 ; 01DD
01DE: AF      	p01DE:  XOR A                   ; 01DE
01DF: 325B3F  	        LD (xb3F5B),A           ; 01DF
01E2: 32313D  	        LD (xb3D31),A           ; 01E2
01E5: 322B3D  	        LD (xb3D2B),A           ; 01E5
01E8: 32393D  	        LD (xf3D39),A           ; 01E8
01EB: 32FB3F  	        LD (xb3FFB),A           ; 01EB
01EE: 3C      	        INC A                   ; 01EE
01EF: 32293D  	        LD (xb3D29),A           ; 01EF
01F2: CD3F04  	        CALL p043F              ; 01F2
01F5: E1      	        POP HL                  ; 01F5
01F6: E5      	        PUSH HL                 ; 01F6
01F7: 01FC01  	        LD BC,p01FC             ; 01F7 spoofed return address
01FA: C5      	        PUSH BC                 ; 01FA
01FB: E9      	        JP (HL)                 ; 01FB
              	
01FC: 21483D  	p01FC:  LD HL,xf3D48            ; 01FC address of buffer
01FF: 22463D  	        LD (xw3D46),HL          ; 01FF ptr
0202: 010C84  	        LD BC,840CH             ; 0202 132 count / test byte
0205: 7E      	p0205:  LD A,(HL)               ; 0205
0206: B9      	        CP C                    ; 0206
0207: CC1D02  	        CALL Z,p021D            ; 0207
020A: 23      	        INC HL                  ; 020A
020B: FE0D    	        CP CR                   ; 020B carriage return?
020D: CA1402  	        JP Z,p0214              ; 020D
0210: 05      	        DEC B                   ; 0210
0211: C20502  	        JP NZ,p0205             ; 0211
0214: C1      	p0214:  POP BC                  ; 0214
0215: E1      	        POP HL                  ; 0215
0216: E5      	        PUSH HL                 ; 0216
0217: C5      	        PUSH BC                 ; 0217
0218: 015204  	        LD BC,p0452             ; 0218 Save return address
021B: C5      	        PUSH BC                 ; 021B
021C: E9      	        JP (HL)                 ; 021C
              	
021D: F5      	p021D:  PUSH AF                 ; 021D
021E: E5      	        PUSH HL                 ; 021E
021F: 2A343D  	        LD HL,(xw3D34)          ; 021F
0222: 23      	        INC HL                  ; 0222
0223: 22343D  	        LD (xw3D34),HL          ; 0223
0226: 21FFFF  	        LD HL,0FFFFH            ; 0226
0229: 22363D  	        LD (xw3D36),HL          ; 0229
022C: 3A323D  	        LD A,(xb3D32)           ; 022C
022F: 3D      	        DEC A                   ; 022F
0230: 32333D  	        LD (xb3D33),A           ; 0230
0233: E1      	        POP HL                  ; 0233
0234: F1      	        POP AF                  ; 0234
0235: C9      	        RET                     ; 0235
              	
0236: 21393D  	p0236:  LD HL,xf3D39            ; 0236 address
0239: 3E01    	        LD A,01H                ; 0239
023B: 321040  	        LD (xb4010),A           ; 023B
023E: 320F40  	        LD (xb400F),A           ; 023E
0241: 0E06    	        LD C,06H               ; 0241
0243: CD9602  	p0243:  CALL p0296              ; 0243
0246: FE0A    	        CP 0AH                  ; 0246
0248: CA4302  	        JP Z,p0243              ; 0248
024B: CDC602  	        CALL p02C6              ; 024B
024E: CA4302  	        JP Z,p0243              ; 024E
0251: B7      	        OR A                    ; 0251
0252: F26C02  	        JP P,p026C              ; 0252
0255: E67F    	        AND 7FH                 ; 0255
0257: 0C      	        INC C                   ; 0257
0258: 0D      	        DEC C                   ; 0258
0259: CA4302  	        JP Z,p0243              ; 0259
025C: CDC602  	        CALL p02C6              ; 025C
025F: CA4302  	        JP Z,p0243              ; 025F
0262: FE30    	        CP 30H                  ; 0262
0264: DA4302  	        JP C,p0243              ; 0264
0267: 77      	        LD (HL),A               ; 0267
0268: 23      	        INC HL                  ; 0268
0269: C34302  	        JP p0243                ; 0269
              	
026C: 0E83    	p026C:  LD C,83H               ; 026C
026E: 21483D  	        LD HL,xf3D48            ; 026E address of buffer
0271: FE0A    	p0271:  CP 0AH                  ; 0271
0273: CA8E02  	        JP Z,p028E              ; 0273
0276: 0D      	        DEC C                   ; 0276
0277: 0C      	        INC C                   ; 0277
0278: CA7E02  	        JP Z,p027E              ; 0278
027B: 77      	        LD (HL),A               ; 027B
027C: 23      	        INC HL                  ; 027C
027D: 0D      	        DEC C                   ; 027D
027E: FE0D    	p027E:  CP CR                   ; 027E carriage return?
0280: C28E02  	        JP NZ,p028E             ; 0280
0283: 77      	        LD (HL),A               ; 0283
0284: 3A393D  	        LD A,(xf3D39)           ; 0284
0287: B7      	        OR A                    ; 0287
0288: C8      	        RET Z                   ; 0288
0289: 3D      	        DEC A                   ; 0289
028A: 32383D  	        LD (xb3D38),A           ; 028A
028D: C9      	        RET                     ; 028D
              	
028E: CD9602  	p028E:  CALL p0296              ; 028E
0291: E67F    	        AND 7FH                 ; 0291
0293: C37102  	        JP p0271                ; 0293
              	
0296: 3A2C3D  	p0296:  LD A,(xb3D2C)           ; 0296
0299: B7      	        OR A                    ; 0299
029A: CAA802  	        JP Z,p02A8              ; 029A
029D: CDF44E  	        CALL p4EF4              ; 029D
02A0: D0      	        RET NC                  ; 02A0
02A1: AF      	        XOR A                   ; 02A1
02A2: 322C3D  	        LD (xb3D2C),A           ; 02A2
02A5: CD344F  	        CALL p4F34              ; 02A5
02A8: CD044D  	p02A8:  CALL p4D04              ; 02A8
02AB: DAAF02  	        JP C,p02AF              ; 02AB
02AE: C9      	        RET                     ; 02AE
              	
02AF: 210005  	p02AF:  LD HL,x0500             ; 02AF '%No END statement'
02B2: CDCC46  	        CALL p46CC              ; 02B2
02B5: 3E0D    	        LD A,CR                 ; 02B5 carriage return?
02B7: 32483D  	        LD (xf3D48),A           ; 02B7
02BA: CDEE4A  	        CALL p4AEE              ; 02BA
02BD: 3E0A    	        LD A,LF                 ; 02BD line feed?
02BF: CDEE4A  	        CALL p4AEE              ; 02BF
02C2: 37      	        SCF                     ; 02C2
02C3: C3B22D  	        JP p2DB2                ; 02C3
              	
02C6: FE0C    	p02C6:  CP 0CH                  ; 02C6
02C8: C0      	        RET NZ                  ; 02C8
02C9: C31D02  	        JP p021D                ; 02C9
              	
02CC: 210000  	p02CC:  LD HL,0000H             ; 02CC
02CF: 22433D  	        LD (xw3D43),HL          ; 02CF
02D2: AF      	        XOR A                   ; 02D2
02D3: 32303D  	        LD (xb3D30),A           ; 02D3
02D6: 3D      	        DEC A                   ; 02D6
02D7: 32FB3F  	        LD (xb3FFB),A           ; 02D7
02DA: 2ADA3D  	        LD HL,(xw3DDA)          ; 02DA
02DD: 22DE3D  	        LD (xw3DDE),HL          ; 02DD
02E0: 3A483D  	        LD A,(xf3D48)           ; 02E0
02E3: FE2A    	        CP 2AH                  ; 02E3
02E5: C2ED02  	        JP NZ,p02ED             ; 02E5
02E8: 3E24    	        LD A,24H                ; 02E8
02EA: 32483D  	        LD (xf3D48),A           ; 02EA
02ED: D624    	p02ED:  SUB 24H                 ; 02ED
02EF: 32453D  	        LD (xb3D45),A           ; 02EF
02F2: CD550B  	        CALL p0B55              ; 02F2
02F5: C20D04  	        JP NZ,p040D             ; 02F5
02F8: FE3A    	        CP 3AH                  ; 02F8
02FA: CA8B03  	        JP Z,p038B              ; 02FA
02FD: 3A453D  	        LD A,(xb3D45)           ; 02FD
0300: B7      	        OR A                    ; 0300
0301: C22403  	        JP NZ,p0324             ; 0301
0304: 3AE93D  	        LD A,(xb3DE9)           ; 0304
0307: 3D      	        DEC A                   ; 0307
0308: C22403  	        JP NZ,p0324             ; 0308
030B: CD550B  	        CALL p0B55              ; 030B
030E: 0612    	        LD B,12H                ; 030E
0310: 21E93D  	        LD HL,xb3DE9            ; 0310 address
0313: 7E      	        LD A,(HL)               ; 0313
0314: B8      	        CP B                    ; 0314
0315: D21903  	        JP NC,p0319             ; 0315
0318: 34      	        INC (HL)                ; 0318
0319: 23      	p0319:  INC HL                  ; 0319
031A: 3E24    	        LD A,24H                ; 031A
031C: 4E      	p031C:  LD C,(HL)               ; 031C
031D: 77      	        LD (HL),A               ; 031D
031E: 79      	        LD A,C                  ; 031E
031F: 23      	        INC HL                  ; 031F
0320: 05      	        DEC B                   ; 0320
0321: C21C03  	        JP NZ,p031C             ; 0321
0324: 2A463D  	p0324:  LD HL,(xw3D46)          ; 0324
0327: 2B      	        DEC HL                  ; 0327
0328: 7E      	        LD A,(HL)               ; 0328
0329: 23      	        INC HL                  ; 0329
032A: FE0D    	        CP CR                   ; 032A <CR>
032C: CABF03  	        JP Z,p03BF              ; 032C
032F: E5      	        PUSH HL                 ; 032F
0330: CD2B04  	        CALL p042B              ; 0330
0333: CD550B  	        CALL p0B55              ; 0333
0336: CD1505  	        CALL p0515              ; 0336
0339: C28103  	        JP NZ,p0381             ; 0339
033C: 7E      	        LD A,(HL)               ; 033C
033D: B7      	        OR A                    ; 033D
033E: F28103  	x033E:  JP P,p0381              ; 033E
0341: 23      	        INC HL                  ; 0341
0342: 7E      	        LD A,(HL)               ; 0342
0343: FE22    	        CP 22H                  ; 0343
0345: CA5203  	        JP Z,p0352              ; 0345
0348: FE1C    	        CP 1CH                  ; 0348
034A: CA5203  	        JP Z,p0352              ; 034A
034D: FE0D    	        CP CR                   ; 034D <CR>
034F: C28103  	        JP NZ,p0381             ; 034F
0352: E1      	p0352:  POP HL                  ; 0352
0353: 2A463D  	        LD HL,(xw3D46)          ; 0353
0356: 2B      	        DEC HL                  ; 0356
0357: 22463D  	        LD (xw3D46),HL          ; 0357
035A: F5      	        PUSH AF                 ; 035A
035B: 3A283D  	        LD A,(xb3D28)           ; 035B
035E: B7      	        OR A                    ; 035E
035F: CA6B04  	        JP Z,p046B              ; 035F
0362: CD2B04  	        CALL p042B              ; 0362
0365: F1      	        POP AF                  ; 0365
0366: F5      	        PUSH AF                 ; 0366
0367: FE1C    	        CP 1CH                  ; 0367
0369: CA7303  	        JP Z,p0373              ; 0369
036C: B7      	        OR A                    ; 036C
036D: CDFC0C  	        CALL p0CFC              ; 036D
0370: CD152D  	        CALL p2D15              ; 0370
0373: F1      	p0373:  POP AF                  ; 0373
0374: FE22    	        CP 22H                  ; 0374
0376: CA782D  	        JP Z,p2D78              ; 0376
0379: FE1C    	        CP 1CH                  ; 0379
037B: CAAF37  	        JP Z,p37AF              ; 037B
037E: C3442D  	        JP p2D44                ; 037E
              	
0381: E1      	p0381:  POP HL                  ; 0381
0382: 22463D  	        LD (xw3D46),HL          ; 0382
0385: CD2B04  	        CALL p042B              ; 0385
0388: C3BF03  	        JP p03BF                ; 0388
              	
038B: 3A283D  	p038B:  LD A,(xb3D28)           ; 038B
038E: B7      	        OR A                    ; 038E
038F: CAB903  	        JP Z,p03B9              ; 038F
0392: CD311B  	        CALL p1B31              ; 0392
0395: CDFC0C  	        CALL p0CFC              ; 0395
0398: CD152D  	        CALL p2D15              ; 0398
039B: 22433D  	        LD (xw3D43),HL          ; 039B
039E: EB      	        EX DE,HL                ; 039E
039F: CD6A1B  	        CALL p1B6A              ; 039F
03A2: EB      	        EX DE,HL                ; 03A2
03A3: F620    	        OR 20H                  ; 03A3
03A5: F5      	        PUSH AF                 ; 03A5
03A6: CD230B  	        CALL p0B23              ; 03A6
03A9: FE3A    	        CP 3AH                  ; 03A9
03AB: C2B503  	        JP NZ,p03B5             ; 03AB
03AE: F1      	        POP AF                  ; 03AE
03AF: F640    	        OR 40H                  ; 03AF
03B1: F5      	        PUSH AF                 ; 03B1
03B2: CDEA0A  	        CALL p0AEA              ; 03B2
03B5: F1      	p03B5:  POP AF                  ; 03B5
03B6: CDDB0D  	        CALL p0DDB              ; 03B6
03B9: CD550B  	p03B9:  CALL p0B55              ; 03B9
03BC: C20D04  	        JP NZ,p040D             ; 03BC
03BF: CD360B  	p03BF:  CALL p0B36              ; 03BF
03C2: 3A283D  	        LD A,(xb3D28)           ; 03C2
03C5: B7      	        OR A                    ; 03C5
03C6: CACF03  	        JP Z,p03CF              ; 03C6
03C9: CD0E0C  	        CALL p0C0E              ; 03C9
03CC: CA9238  	        JP Z,p3892              ; 03CC
03CF: CD1505  	p03CF:  CALL p0515              ; 03CF
03D2: C20D04  	        JP NZ,p040D             ; 03D2
03D5: B7      	        OR A                    ; 03D5
03D6: F5      	        PUSH AF                 ; 03D6
03D7: 3A283D  	        LD A,(xb3D28)           ; 03D7
03DA: B7      	        OR A                    ; 03DA
03DB: C2E803  	        JP NZ,p03E8             ; 03DB
03DE: F1      	        POP AF                  ; 03DE
03DF: F26C04  	        JP P,p046C              ; 03DF
03E2: F5      	        PUSH AF                 ; 03E2
03E3: E660    	        AND 60H                 ; 03E3
03E5: CA6B04  	        JP Z,p046B              ; 03E5
03E8: F1      	p03E8:  POP AF                  ; 03E8
03E9: F2FB03  	        JP P,p03FB              ; 03E9
03EC: 23      	        INC HL                  ; 03EC
03ED: 7E      	        LD A,(HL)               ; 03ED
03EE: 21060A  	        LD HL,xt0A06            ; 03EE
03F1: 87      	p03F1:  ADD A,A                 ; 03F1
03F2: 5F      	        LD E,A                  ; 03F2
03F3: 1600    	        LD D,00H                ; 03F3
03F5: 19      	        ADD HL,DE               ; 03F5
03F6: 5E      	        LD E,(HL)               ; 03F6
03F7: 23      	        INC HL                  ; 03F7
03F8: 56      	        LD D,(HL)               ; 03F8
03F9: EB      	        EX DE,HL                ; 03F9
03FA: E9      	        JP (HL)                 ; 03FA
              	
03FB: 1F      	p03FB:  RRA                     ; 03FB
03FC: 1F      	        RRA                     ; 03FC
03FD: 1F      	        RRA                     ; 03FD
03FE: E60F    	        AND 0FH                 ; 03FE
0400: 23      	        INC HL                  ; 0400
0401: 4E      	        LD C,(HL)               ; 0401
0402: F5      	        PUSH AF                 ; 0402
0403: CD311B  	        CALL p1B31              ; 0403
0406: 21E809  	        LD HL,xt09E8            ; 0406 Start of address vector
0409: F1      	        POP AF                  ; 0409
040A: C3F103  	        JP p03F1                ; 040A
              	
040D: FE3B    	p040D:  CP ';'                  ; 040D
040F: C8      	        RET Z                   ; 040F
0410: FE0D    	        CP CR                   ; 0410 carriage return?
0412: C8      	        RET Z                   ; 0412
0413: 21483D  	        LD HL,xf3D48            ; 0413 address of buffer
0416: 22463D  	        LD (xw3D46),HL          ; 0416
0419: 2A433D  	        LD HL,(xw3D43)          ; 0419
041C: 7C      	        LD A,H                  ; 041C
041D: B5      	        OR L                    ; 041D
041E: C4550B  	        CALL NZ,p0B55           ; 041E
0421: 3A283D  	        LD A,(xb3D28)           ; 0421
0424: B7      	        OR A                    ; 0424
0425: CA6C04  	        JP Z,p046C              ; 0425
0428: C38D27  	        JP p278D                ; 0428
              	
042B: 21E93D  	p042B:  LD HL,xb3DE9            ; 042B address
042E: 11FC3D  	        LD DE,xf3DFC            ; 042E buffer address
0431: 0613    	        LD B,13H                ; 0431
0433: 4E      	p0433:  LD C,(HL)               ; 0433
0434: 1A      	        LD A,(DE)               ; 0434
0435: 77      	        LD (HL),A               ; 0435
0436: 79      	        LD A,C                  ; 0436
0437: 12      	        LD (DE),A               ; 0437
0438: 23      	        INC HL                  ; 0438
0439: 13      	        INC DE                  ; 0439
043A: 05      	        DEC B                   ; 043A
043B: C23304  	        JP NZ,p0433             ; 043B
043E: C9      	        RET                     ; 043E
              	
043F: 211B3E  	p043F:  LD HL,xf3E1B            ; 043F buffer address
0442: 220F3E  	        LD (xw3E0F),HL          ; 0442
0445: 21113E  	        LD HL,xb3E11            ; 0445
0448: 012020  	        LD BC,2020H             ; 0448 count / ' '
044B: 71      	p044B:  LD (HL),C               ; 044B
044C: 23      	        INC HL                  ; 044C
044D: 05      	        DEC B                   ; 044D
044E: C24B04  	        JP NZ,p044B             ; 044E
0451: C9      	        RET                     ; 0451
              	
0452: CD360B  	p0452:  CALL p0B36              ; 0452
0455: CDC80B  	p0455:  CALL p0BC8              ; 0455
0458: B7      	        OR A                    ; 0458
0459: CA5504  	        JP Z,p0455              ; 0459
045C: E5      	p045C:  PUSH HL                 ; 045C
045D: FE0D    	        CP CR                   ; 045D carriage return?
045F: CA6C04  	        JP Z,p046C              ; 045F
0462: FE3B    	        CP ';'                  ; 0462 comment
0464: CA6C04  	        JP Z,p046C              ; 0464
0467: CDCD04  	        CALL p04CD              ; 0467
046A: F5      	        PUSH AF                 ; 046A
046B: F1      	p046B:  POP AF                  ; 046B
046C: E1      	p046C:  POP HL                  ; 046C
046D: 3AEC3C  	        LD A,(xb3CEC)           ; 046D
0470: B7      	        OR A                    ; 0470
0471: C29704  	        JP NZ,p0497             ; 0471
0474: 3A113E  	        LD A,(xb3E11)           ; 0474
0477: FE56    	        CP 'V'                  ; 0477 [V]
0479: CA8B04  	        JP Z,p048B              ; 0479
047C: FE4D    	        CP 'M'                  ; 047C [M]
047E: CA8B04  	        JP Z,p048B              ; 047E
0481: FE44    	        CP 'D'                  ; 0481 [D]
0483: CA8B04  	        JP Z,p048B              ; 0483
0486: FE58    	        CP 'X'                  ; 0486 [X]
0488: C2DE01  	        JP NZ,p01DE             ; 0488
048B: 325B3F  	p048B:  LD (xb3F5B),A           ; 048B
048E: CD161B  	        CALL p1B16              ; 048E
0491: CD7E19  	        CALL p197E              ; 0491
0494: C3DE01  	        JP p01DE                ; 0494
              	
0497: CD2B19  	p0497:  CALL p192B              ; 0497
049A: C3DE01  	        JP p01DE                ; 049A
              	
049D: C5      	p049D:  PUSH BC                 ; 049D
049E: 0641    	        LD B,'A'                ; 049E [A]
04A0: C3E804  	        JP p04E8                ; 04A0
              	
04A3: C5      	p04A3:  PUSH BC                 ; 04A3
04A4: 0643    	        LD B,'C'                ; 04A4 [C]
04A6: C3E804  	        JP p04E8                ; 04A6
              	
04A9: C5      	p04A9:  PUSH BC                 ; 04A9
04AA: 0644    	        LD B,'D'                ; 04AA [D]
04AC: C3E804  	        JP p04E8                ; 04AC
              	
04AF: C5      	p04AF:  PUSH BC                 ; 04AF
04B0: 0645    	        LD B,'E'                ; 04B0 [E]
04B2: C3E804  	        JP p04E8                ; 04B2
              	
04B5: C5      	p04B5:  PUSH BC                 ; 04B5
04B6: 064D    	        LD B,'M'                ; 04B6 [M]
04B8: C3E804  	        JP p04E8                ; 04B8
              	
04BB: C5      	p04BB:  PUSH BC                 ; 04BB
04BC: 064E    	        LD B,'N'                ; 04BC [N]
04BE: C3E804  	        JP p04E8                ; 04BE
              	
04C1: C5      	p04C1:  PUSH BC                 ; 04C1
04C2: 064F    	        LD B,'O'                ; 04C2 [O]
04C4: C3E804  	        JP p04E8                ; 04C4
              	
04C7: C5      	p04C7:  PUSH BC                 ; 04C7
04C8: 0650    	        LD B,'P'                ; 04C8 [P]
04CA: C3E804  	        JP p04E8                ; 04CA
              	
04CD: C5      	p04CD:  PUSH BC                 ; 04CD
04CE: 0651    	        LD B,'Q'                ; 04CE [Q]
04D0: C3E804  	        JP p04E8                ; 04D0
              	
04D3: C5      	p04D3:  PUSH BC                 ; 04D3
04D4: 0652    	        LD B,'R'                ; 04D4 [R]
04D6: C3E804  	        JP p04E8                ; 04D6
              	
04D9: C5      	p04D9:  PUSH BC                 ; 04D9
04DA: 0655    	        LD B,'U'                ; 04DA [U]
04DC: C3E804  	        JP p04E8                ; 04DC
              	
04DF: C5      	p04DF:  PUSH BC                 ; 04DF
04E0: 0656    	        LD B,'V'                ; 04E0 [V]
04E2: C3E804  	        JP p04E8                ; 04E2
              	
04E5: C5      	p04E5:  PUSH BC                 ; 04E5
04E6: 0658    	        LD B,'X'                ; 04E6 [X]
04E8: E5      	p04E8:  PUSH HL                 ; 04E8
04E9: F5      	        PUSH AF                 ; 04E9
04EA: 21113E  	        LD HL,xb3E11            ; 04EA
04ED: 7E      	        LD A,(HL)               ; 04ED
04EE: FE20    	        CP ' '                  ; 04EE
04F0: C2FC04  	        JP NZ,p04FC             ; 04F0
04F3: 70      	        LD (HL),B               ; 04F3
04F4: 3AD43E  	        LD A,(xb3ED4)           ; 04F4
04F7: F610    	        OR 10H                  ; 04F7
04F9: 32D43E  	        LD (xb3ED4),A           ; 04F9
04FC: F1      	p04FC:  POP AF                  ; 04FC
04FD: E1      	        POP HL                  ; 04FD
04FE: C1      	        POP BC                  ; 04FE
04FF: C9      	        RET                     ; 04FF
              	
0500: 254E6F20	x0500:  DB "%No END statement",0
0504: 454E4420	
0508: 73746174	
050C: 656D656E	
0510: 7400    	
              	
0512: C3C104  	p0512:  JP p04C1                ; 0512
              	
0515: 3AEA3D  	p0515:  LD A,(xb3DEA)           ; 0515
0518: FE2E    	        CP 2EH                  ; 0518 [.]
051A: CA8A05  	        JP Z,p058A              ; 051A
051D: FE24    	        CP 24H                  ; 051D [$]
051F: CA9205  	        JP Z,p0592              ; 051F
0522: FE5B    	        CP 5BH                  ; 0522 '['
0524: 3C      	        INC A                   ; 0524
0525: D0      	        RET NC                  ; 0525
0526: D642    	        SUB 42H                 ; 0526 'B'
0528: B7      	        OR A                    ; 0528
0529: F8      	        RET M                   ; 0529
052A: 87      	        ADD A,A                 ; 052A
052B: C5      	        PUSH BC                 ; 052B
052C: D5      	        PUSH DE                 ; 052C
052D: 5F      	        LD E,A                  ; 052D
052E: 1600    	        LD D,00H                ; 052E
0530: 219805  	        LD HL,xt0598            ; 0530 Start of address vector
0533: 19      	        ADD HL,DE               ; 0533
0534: 5E      	        LD E,(HL)               ; 0534
0535: 23      	        INC HL                  ; 0535
0536: 56      	        LD D,(HL)               ; 0536
0537: EB      	        EX DE,HL                ; 0537
0538: 3AE93D  	p0538:  LD A,(xb3DE9)           ; 0538
053B: 3D      	        DEC A                   ; 053B
053C: 4F      	        LD C,A                  ; 053C
053D: 7E      	p053D:  LD A,(HL)               ; 053D
053E: B7      	        OR A                    ; 053E
053F: CA8605  	        JP Z,p0586              ; 053F
0542: B7      	        OR A                    ; 0542
0543: FA5B05  	        JP M,p055B              ; 0543
0546: 3AEA3C  	        LD A,(xb3CEA)           ; 0546
0549: 87      	        ADD A,A                 ; 0549
054A: 7E      	p054A:  LD A,(HL)               ; 054A
054B: C25605  	        JP NZ,p0556             ; 054B
054E: FE50    	        CP 50H                  ; 054E
0550: D25B05  	        JP NC,p055B             ; 0550
0553: C37A05  	        JP p057A                ; 0553
              	
0556: FE50    	p0556:  CP 50H                  ; 0556
0558: D27A05  	        JP NC,p057A             ; 0558
055B: E607    	p055B:  AND 07H                 ; 055B
055D: B9      	        CP C                    ; 055D
055E: C27A05  	        JP NZ,p057A             ; 055E
0561: 11EB3D  	        LD DE,xf3DEB            ; 0561 address
0564: E5      	        PUSH HL                 ; 0564
0565: 41      	        LD B,C                  ; 0565
0566: 23      	        INC HL                  ; 0566
0567: 23      	        INC HL                  ; 0567
0568: 1A      	p0568:  LD A,(DE)               ; 0568
0569: BE      	        CP (HL)                 ; 0569
056A: C27905  	        JP NZ,p0579             ; 056A
056D: 23      	        INC HL                  ; 056D
056E: 13      	        INC DE                  ; 056E
056F: 05      	        DEC B                   ; 056F
0570: C26805  	        JP NZ,p0568             ; 0570
0573: E1      	        POP HL                  ; 0573
0574: AF      	        XOR A                   ; 0574
0575: 7E      	        LD A,(HL)               ; 0575
0576: D1      	        POP DE                  ; 0576
0577: C1      	        POP BC                  ; 0577
0578: C9      	        RET                     ; 0578
              	
0579: E1      	p0579:  POP HL                  ; 0579
057A: 7E      	p057A:  LD A,(HL)               ; 057A
057B: E607    	        AND 07H                 ; 057B
057D: C602    	        ADD A,02H               ; 057D
057F: 5F      	        LD E,A                  ; 057F
0580: 1600    	        LD D,00H                ; 0580
0582: 19      	        ADD HL,DE               ; 0582
0583: C33D05  	        JP p053D                ; 0583
              	
0586: D1      	p0586:  POP DE                  ; 0586
0587: D1      	        POP DE                  ; 0587
0588: 3C      	        INC A                   ; 0588
0589: C9      	        RET                     ; 0589
              	
058A: 214809  	p058A:  LD HL,xt0948            ; 058A Start of '.' cmmands table
058D: C5      	p058D:  PUSH BC                 ; 058D
058E: D5      	        PUSH DE                 ; 058E
058F: C33805  	        JP p0538                ; 058F
              	
0592: 21D009  	p0592:  LD HL,xt09D0            ; 0592 Start of table
0595: C38D05  	        JP p058D                ; 0595
              	
              	; Address vector for op-codes
              	
0598: CC05    	xt0598: DW xt05CC               ; 0598 A
059A: FB05    	        DW xt05FB               ; 059A B
059C: 0506    	        DW xt0605               ; 059C C
059E: 6A06    	        DW xt066A               ; 059E D
05A0: B806    	        DW xt06B8               ; 05A0 E
05A2: 0207    	        DW xt0702               ; 05A2 F
05A4: 0307    	        DW xt0703               ; 05A4 G
05A6: 0B07    	        DW xt070B               ; 05A6 H
05A8: 1507    	        DW xt0715               ; 05A8 I
05AA: 8707    	        DW xt0787               ; 05AA J
05AC: AE07    	        DW xt07AE               ; 05AC K
05AE: AF07    	        DW xt07AF               ; 05AE L
05B0: DD07    	        DW xt07DD               ; 05B0 M
05B2: F307    	        DW xt07F3               ; 05B2 N
05B4: 0508    	        DW xt0805               ; 05B4 O
05B6: 3108    	        DW xt0831               ; 05B6 P
05B8: 5508    	        DW xt0855               ; 05B8 Q
05BA: 5608    	        DW xt0856               ; 05BA R
05BC: D208    	        DW xt08D2               ; 05BC S
05BE: 2509    	        DW xt0925               ; 05BE T
05C0: 2C09    	        DW xt092C               ; 05C0 U
05C2: 2D09    	        DW xt092D               ; 05C2 V
05C4: 2E09    	        DW xt092E               ; 05C4 W
05C6: 2F09    	        DW xt092F               ; 05C6 X
05C8: 4609    	        DW xt0946               ; 05C8 Y
05CA: 4709    	        DW xt0947               ; 05CA Z
              	
              	; 'A's ACI ADC ADC ADD ADD ADI ANA AND
              	;      ANI ASEG ASET
              	
05CC: 2ACE    	xt05CC: DB 2AH,0CEH             ; 05CC 5 << 3 OR 2
05CE: 4349    	        DB "CI"                 ; 05CE
05D0: 1A88    	        DB 1AH,88H              ; 05D0 4 << 3 OR 2
05D2: 4443    	        DB "DC"                 ; 05D2
05D4: 5200    	        DB 52H,00H              ; 05D4 10 << 3 OR 2
05D6: 4443    	        DB "DC"                 ; 05D6
05D8: 1A80    	        DB 1AH,80H              ; 05D8 4 << 3 OR 2
05DA: 4444    	        DB "DD"                 ; 05DA
05DC: 5202    	        DB 52H,02H              ; 05DD 10 << 3 OR 2
05DE: 4444    	        DB "DD"                 ; 05DE
05E0: 2AC6    	        DB 2AH,0C6H             ; 05E0 5 << 3 OR 2
05E2: 4449    	        DB "DI"                 ; 05E2
05E4: 1AA0    	        DB 1AH,0A0H             ; 05E4 4 << 3 OR 2
05E6: 4E41    	        DB "NA"                 ; 05E6
05E8: 5204    	        DB 52H,04H              ; 05E8 10 << 3 OR 2
05EA: 4E44    	        DB "ND"                 ; 05EA
05EC: 2AE6    	        DB 2AH,0E6H             ; 05EC 5 << 3 OR 2
05EE: 4E49    	        DB "NI"                 ; 05EE
05F0: 8300    	        DB 83H,00H              ; 05F0 32 << 3 OR 2
05F2: 534547  	        DB "SEG"                ; 05F2
05F5: 8322    	        DB 83H,22H              ; 05F5 32 << 3 OR 2
05F7: 534554  	        DB "SET"                ; 05F7
05FA: 00      	        DB 00H                  ; 05FA
              	
              	; 'B's BIT BYTE
              	
05FB: 5A06    	xt05FB: DB 5AH,06H              ; 05FB
05FD: 4954    	        DB "IT"                 ; 05FD
05FF: 833E    	        DB 83H,3EH              ; 05FF
0601: 595445  	        DB "YTE"                ; 0601
0604: 00      	        DB 00H                  ; 0604
              	
              	; 'C's CALL CALL CC CCF CM CMA CMC CMP
              	;      CNC CNZ COMMON COND CP CP CPD
              	;      CPDR CPE CPI CPI CPIR CPL CPO
              	;      CSEG CZ
              	
0605: 33CD    	xt0605: DB 33H,0CDH             ; 0605
0607: 414C4C  	        DB "ALL"                ; 0607
060A: 5308    	        DB 53H,08H              ; 060A
060C: 414C4C  	        DB "ALL"                ; 060C
060F: 31DC    	        DB 31H,0DCH             ; 060F
0611: 43      	        DB "C"
0612: 6A3F    	        DB 6AH,3FH
0614: 4346    	        DB "CF"                 ; 0611
0616: 31FC    	        DB 31H,0FCH             ; 0616
0618: 4D      	        DB "M"                  ; 0618
0619: 022F    	        DB 02H,2FH              ; 0619
061B: 4D41    	        DB "MA"                 ; 0619
061D: 023F    	        DB 02H,3FH              ; 061D
061F: 4D43    	        DB "MC"                 ; 061F
0621: 1AB8    	        DB 1AH,0B8H             ; 0621
0623: 4D50    	        DB "MP"                 ; 0623
0625: 32D4    	        DB 32H,0D4H             ; 0625
0627: 4E43    	        DB "NC"                 ; 0627
0629: 32C4    	        DB 32H,0C4H             ; 0629
062B: 4E5A    	        DB "NZ"                 ; 062B
062D: 8501    	        DB 85H,01H              ; 062D
062F: 4F4D4D4F	        DB "OMMON"              ; 062F
0633: 4E      	
0634: C314    	        DB 0C3H,14H             ; 0634
0636: 4F4E44  	        DB "OND"                ; 0636
0639: 31F4    	        DB 31H,0F4H             ; 0639
063B: 50      	        DB "P"                  ; 063B
063C: 510A    	        DB 51H,0AH              ; 063C
063E: 50      	        DB "P"                  ; 063E
063F: 72A9    	        DB 72H,0A9H             ; 063F
0641: 5044    	        DB "PD"                 ; 0641
0643: 73B9    	        DB 73H,0B9H             ; 0643
0645: 504452  	        DB "PDR"                ; 0645
0648: 32EC    	        DB 32H,0ECH             ; 0648
064A: 5045    	        DB "PE"                 ; 064A
064C: 2AFE    	        DB 2AH,0FEH             ; 064C
064E: 5049    	        DB "PI"                 ; 064E
0650: 72A1    	        DB 72H,0A1H             ; 0650
0652: 5049    	        DB "PI"                 ; 0652
0654: 73B1    	        DB 73H,0B1H             ; 0654
0656: 504952  	        DB "PIR"
0659: 6A2F    	        DB 6AH,2FH
065B: 504C    	        DB "PL"                 ; 0656
065D: 32E4    	        DB 32H,0E4H             ; 065D
065F: 504F    	        DB "PO"                 ; 065F
0661: 8302    	        DB 83H,02H              ; 0661
0663: 534547  	        DB "SEG"                ; 0663
0666: 31CC    	        DB 31H,0CCH             ; 0666
0668: 5A      	        DB "Z"                  ; 0668
0669: 00      	        DB 00H                  ; 0669
              	
              	; 'D's DAA DAA DAD DB DC DCR DCX DEC
              	;      DEFB DEFL DEFM DEFS DEFW DI DI
              	;      DJNZ DS DSEG DW
              	
066A: 0227    	xt066A: DB 02H,27H              ; 066A
066C: 4141    	        DB "AA"                 ; 066C
066E: 6A27    	        DB 6AH,27H              ; 066E
0670: 4141    	        DB "AA"                 ; 0670
0672: 1209    	        DB 12H,09H              ; 0672
0674: 4144    	        DB "AD"                 ; 0674
0676: 8103    	        DB 81H,03H              ; 0676
0678: 42      	        DB "B"                  ; 0678
0679: 8104    	        DB 81H,04H              ; 0679
067B: 43      	        DB "C"                  ; 067B
067C: 2205    	        DB 22H,05H              ; 067C
067E: 4352    	        DB "CR"                 ; 067E
0680: 120B    	        DB 12H,0BH              ; 0680
0682: 4358    	        DB "CX"                 ; 0682
0684: 520C    	        DB 52H,0CH              ; 0684
0686: 4543    	        DB "EC"                 ; 0686
0688: 8303    	        DB 83H,03H              ; 0688
068A: 454642  	        DB "EFB"                ; 068A
068D: 8322    	        DB 83H,22H              ; 068D
068F: 45464C  	        DB "EFL"                ; 068E
0692: 8303    	        DB 83H,03H              ; 0692
0694: 45464D  	        DB "EFM"                ; 0694
0697: 8305    	        DB 83H,05H              ; 0697
0699: 454653  	        DB "EFS"                ; 0699
069C: 8307    	        DB 83H,07H              ; 069C
069E: 454657  	        DB "EFW"                ; 069E
06A1: 01F3    	        DB 01H,0F3H             ; 06A1
06A3: 49      	        DB "I"                  ; 06A3
06A4: 69F3    	        DB 69H,0F3H             ; 06A4
06A6: 49      	        DB "I"                  ; 06A6
06A7: 530E    	        DB 53H,0EH              ; 06A7
06A9: 4A4E5A  	        DB "JNZ"                ; 06A9
06AC: 8105    	        DB 81H,05H              ; 06AC
06AE: 53      	        DB "S"                  ; 06AE
06AF: 8306    	        DB 83H,06H              ; 06AF
06B1: 534547  	        DB "SEG"                ; 06B1
06B4: 8107    	        DB 81H,07H              ; 06B4
06B6: 57      	        DB "W"                  ; 06B6
06B7: 00      	        DB 00H                  ; 06B7
              	
              	; 'E's EI EI ELSE END ENDC ENDIF ENDM
              	;      ENTRY EQU EX EXX EXITM EXT
              	;      EXTERNAL EXTRN
              	
06B8: 01FB    	xt06B8: DB 01H,0FBH             ; 06B8
06BA: 49      	        DB "I"                  ; 06BA
06BB: 69FB    	        DB 69H,0FBH
06BD: 49      	        DB "I"                  ; 06BD
06BE: C308    	        DB 0C3H,08H             ; 06BE
06C0: 4C5345  	        DB "LSE"                ; 06C0
06C3: 8209    	        DB 82H,09H              ; 06C3
06C5: 4E44    	        DB "ND"                 ; 06C5
06C7: A30A    	        DB 0A3H,0AH             ; 06C7
06C9: 4E4443  	        DB "NDC"                ; 06C9
06CC: A40A    	        DB 0A4H,0AH             ; 06CC
06CE: 4E444946	        DB "NDIF"               ; 06CE
06D2: 8B0B    	        DB 8BH,0BH              ; 06D2
06D4: 4E444D  	        DB "NDM"                ; 06D4
06D7: 840C    	        DB 84H,0CH              ; 06D7
06D9: 4E545259	        DB "NTRY"               ; 06D9
06DD: 820D    	        DB 82H,0DH              ; 06DD
06DF: 5155    	        DB "QU"                 ; 06DF
06E1: 5110    	        DB 51H,10H              ; 06E1
06E3: 58      	        DB "X"                  ; 06E3
06E4: 6AD9    	        DB 6AH,0D9H             ; 06E4
06E6: 5858    	        DB "XX"                 ; 06E6
06E8: 840E    	        DB 84H,0EH              ; 06E8
06EA: 5849544D	        DB "XITM"               ; 06EA
06EE: 820F    	        DB 82H,0FH              ; 06EE
06F0: 5854    	        DB "XT"                 ; 06F0
06F2: 870F    	        DB 87H,0FH              ; 06F2
06F4: 58544552	        DB "XTERNAL"            ; 06F4
06F8: 4E414C  	
06FB: 8410    	        DB 84H,10H              ; 06FB
06FD: 5854524E	        DB "XTRN"               ; 06FD
0701: 00      	        DB 00H                  ; 0701
              	
              	; 'F's none
              	
0702: 00      	xt0702: DB 00H                  ; 0702
              	
              	; 'G's GLOBAL
              	
0703: 8520    	xt0703: DB 85H,20H              ; 0703
0705: 4C4F4241	        DB "LOBAL"              ; 0705
0709: 4C      	
070A: 00      	        DB 00H                  ; 070A
              	
              	; 'H's HALT HLT
              	
070B: 6B76    	xt070B: DB 6BH,76H
070D: 414C54  	        DB "ALT"                ; 070c
0710: 0276    	        DB 02H,76H              ; 0710
0712: 4C54    	        DB "LT"                 ; 0712
0714: 00      	        DB 00H                  ; 0714
              	
              	; 'I's IF IFB IFDIF IFE IFF IFIDN IFT
              	;      IM IN IN INCLUDE IND INDR INI
              	;      INIR INX IF1 IF2 IFDEF IPR IPRC
              	
0715: C111    	xt0715: DB 0C1H,11H             ; 0715
0717: 46      	        DB "F"                  ; 0717
0718: C232    	        DB 0C2H, 32H            ; 0718
071A: 4642    	        DB "FB"                 ; 071A
071C: C439    	        DB 0C4H,39H             ; 071C
071E: 46444946	        DB "FDIF"               ; 071D
0722: C212    	        DB 0C2H,12H             ; 0722
0724: 4645    	        DB "FE"                 ; 0724
0726: C213    	        DB 0C2H,13H             ; 0726
0728: 4646    	        DB "FF"                 ; 0728
072A: C43A    	        DB 0C4H,3AH             ; 072A
072C: 4649444E	        DB "FIDN"               ; 072B
0730: C333    	        DB 0C3H,33H             ; 0730
0732: 464E42  	        DB "FNB"                ; 0732
0735: C214    	        DB 0C2H,14H             ; 0735
0737: 4654    	        DB "FT"                 ; 0737
0739: 6112    	        DB 61H,12H              ; 0739
073B: 4D      	        DB "M"                  ; 073B
073C: 29DB    	        DB 29H,0DBH             ; 073C
073E: 4E      	        DB "N"                  ; 073E
073F: 5114    	        DB 51H,14H              ; 073F
0741: 4E      	        DB "N"                  ; 0741
0742: 5216    	        DB 52H,16H              ; 0742
0744: 4E43    	        DB "NC"                 ; 0744
0746: 8638    	        DB 86H,38H              ; 0746
0748: 4E434C55	        DB "NCLUDE"             ; 0748
074C: 4445    	
074E: 72AA    	        DB 72H,0AAH             ; 074E
0750: 4E44    	        DB "ND"                 ; 0750
0752: 73BA    	        DB 73H,0BAH             ; 0752
0754: 4E4452  	        DB "NDR"                ; 0754
0757: 72A2    	        DB 72H,0A2H             ; 0757
0759: 4E49    	        DB "NI"                 ; 0759
075B: 73B2    	        DB 73H,0B2H             ; 075B
075D: 4E4952  	        DB "NIR"                ; 075D
0760: 2204    	        DB 22H,04H              ; 0760
0762: 4E52    	        DB "NR"                 ; 0762
0764: 1203    	        DB 12H,03H              ; 0764
0766: 4E58    	        DB "NX"                 ; 0766
0768: C215    	        DB 0C2H,15H             ; 0768
076A: 4631    	        DB "F1"                 ; 076A
076C: C216    	        DB 0C2H,16H             ; 076C
076E: 4632    	        DB "F2"                 ; 076E
0770: C417    	        DB 0C4H,17H             ; 0770
0772: 46444546	        DB "FDEF"               ; 0772
0776: C518    	        DB 0C5H,18H             ; 0776
0778: 464E4445	        DB "FNDEF"              ; 0778
077C: 46      	
077D: 9219    	        DB 92H,19H              ; 077D
077F: 5250    	        DB "RP"                 ; 077F
0781: 931A    	        DB 93H,1AH              ; 0781
0783: 525043  	        DB "RPC"                ; 0783
0786: 00      	        DB 00H                  ; 0786
              			
              	; 'J's JC JM JMP JNC JNZ JP JP
              	;      JPE JPO JR JZ
              	 
0787: 31DA    	xt0787: DB 31H,0DAH             ; 0787
0789: 43      	        DB "C"                  ; 0789
078A: 31FA    	        DB 31H,0FAH             ; 078A
078C: 4D      	        DB "M"                  ; 078C
078D: 32C3    	        DB 32H,0C3H             ; 078D
078F: 4D50    	        DB "MP"                 ; 078F
0791: 32D2    	        DB 32H,0D2H             ; 0791
0793: 4E43    	        DB "NC"                 ; 0793
0795: 32C2    	        DB 32H,0C2H             ; 0795
0797: 4E5A    	        DB "NZ"                 ; 0797
0799: 31F2    	        DB 31H,0F2H             ; 0799
079B: 50      	        DB "P"                  ; 079B
079C: 5118    	        DB 51H,18H              ; 079C
079E: 50      	        DB "P"                  ; 079E
079F: 32EA    	        DB 32H,0EAH             ; 09F0
07A1: 5045    	        DB "PE"                 ; 07A1
07A3: 32E2    	        DB 32H,0E2H             ; 07A3
07A5: 504F    	        DB "PO"                 ; 07A5
07A7: 511A    	        DB 51H,1AH              ; 07A7
07A9: 52      	        DB "R"                  ; 07A9
07AA: 31CA    	        DB 31H,0CAH             ; 07AA
07AC: 5A      	        DB "Z"                  ; 07AC
07AD: 00      	        DB 00H                  ; 07AD
              			
              	; 'K's none
              	
07AE: 00      	xt07AE: DB 00H                  ; 07AE
              	
              	; 'L's LD LDA LDAX LDD LDDR LDI LDIR
              	;      LHLD LOCAL LXI
              	
07AF: 511C    	xt07AF: DB 51H,1CH              ; 07AF
07B1: 44      	        DB "D"                  ; 07B1
07B2: 323A    	        DB 32H,3AH              ; 07B2
07B4: 4441    	        DB "DA"                 ; 07B5
07B6: 0B0A    	        DB 0BH,0AH              ; 07B6
07B8: 444158  	        DB "DAX"                ; 07B8
07BB: 72A8    	        DB 72H,0A8H             ; 07BB
07BD: 4444    	        DB "DD"                 ; 07BD
07BF: 73B8    	        DB 73H,0B8H             ; 07BF
07C1: 444452  	        DB "DDR"                ; 07C1
07C4: 72A0    	        DB 72H,0A0H             ; 07C4
07C6: 4449    	        DB "DI"                 ; 07C6
07C8: 73B0    	        DB 73H,0B0H             ; 07C8
07CA: 444952  	        DB "DIR"                ; 07CA
07CD: 332A    	        DB 33H,2AH              ; 07CD
07CF: 484C44  	        DB "HLD"                ; 07CF
07D2: 841B    	        DB 84H,1BH              ; 07D2
07D4: 4F43414C	        DB "OCAL"               ; 07D4
07D8: 4A01    	        DB 4AH,01H              ; 07D8
07DA: 5849    	        DB "XI"                 ; 07DA
07DC: 00      	        DB 00H                  ; 07DC
              			
              	; 'M's MACLIB MACRO MOV MVI
              	
07DD: 8538    	xt07DD: DB 85H,38H              ; 07DD
07DF: 41434C49	        DB "ACLIB"              ; 07DF
07E3: 42      	
07E4: 941C    	        DB 94H,1CH              ; 07E4
07E6: 4143524F	        DB "ACRO"               ; 07E6
07EA: 3A40    	        DB 3AH,40H              ; 07EA
07EC: 4F56    	        DB "OV"                 ; 07EC
07EE: 4206    	        DB 42H,06H              ; 07EE
07F0: 5649    	        DB "VI"                 ; 07F0
07F2: 00      	        DB 00H                  ; 07F2
              			
              	; 'N's NAME NEG NOP NOP
              	
07F3: 831D    	xt07F3: DB 83H,1DH              ; 07F3
07F5: 414D45  	        DB "AME"                ; 07F5
07F8: 7244    	        DB 72H,44H              ; 07F8
07FA: 4547    	        DB "EG"                 ; 07FA
07FC: 0200    	        DB 02H,00H              ; 07FC
07FE: 4F50    	        DB "OP"                 ; 07FE
0800: 6A00    	        DB 6AH,00H              ; 0800
0802: 4F50    	        DB "OP"                 ; 0802
0804: 00      	        DB 00H                  ; 0804
              			
              	; 'O's OR ORA ORG ORI OTDR OTIR OUT OUT
              	;      OUTD OUTI
              	
0805: 511E    	xt0805: DB 51H,1EH              ; 0805
0807: 52      	        DB "R"                  ; 0807
0808: 1AB0    	        DB 1AH,0B0H             ; 0808
080A: 5241    	        DB "RA"                 ; 080A
080C: 821E    	        DB 82H,1EH              ; 080C
080E: 5247    	        DB "RG"                 ; 080E
0810: 2AF6    	        DB 2AH,0F6H             ; 0810
0812: 5249    	        DB "RI"                 ; 0812
0814: 73BB    	        DB 73H,0BBH             ; 0814
0816: 544452  	        DB "TDR"                ; 0816
0819: 73B3    	        DB 73H,0B3H             ; 0819
081B: 544952  	        DB "TIR"                ; 081B
081E: 2AD3    	        DB 2AH,0D3H             ; 081E
0820: 5554    	        DB "UT"                 ; 0820
0822: 5220    	        DB 52H,20H              ; 0822
0824: 5554    	        DB "UT"                 ; 0824
0826: 73AB    	        DB 73H,0ABH             ; 0826
0828: 555444  	        DB "UTD"                ; 0828
082B: 73A3    	        DB 73H,0A3H             ; 082B
082D: 555449  	        DB "UTI"                ; 082D
0830: 00      	        DB 00H                  ; 0830
              			
              	; 'P's PAGE PCHL POP POP PUBLIC PUSH
              	;      PUSH
              	
0831: 831F    	xt0831: DB 83H,1FH              ; 0831
0833: 414745  	        DB "AGE"                ; 0833
0836: 03E9    	        DB 03H,0E9H             ; 0836
0838: 43484C  	        DB "CHL"                ; 0838
083B: 12C1    	        DB 12H,0C1H             ; 083B
083D: 4F50    	        DB "OP"                 ; 083D
083F: 5222    	        DB 52H,22H              ; 083F
0841: 4F50    	        DB "OP"                 ; 0841
0843: 8520    	        DB 85H,20H              ; 0843
0845: 55424C49	        DB "UBLIC"              ; 0845
0849: 43      	
084A: 13C5    	        DB 13H,0C5H             ; 084A
084C: 555348  	        DB "USH"                ; 084C
084F: 5324    	        DB 53H,24H              ; 084F
0851: 555348  	        DB "USH"                ; 0851
0854: 00      	        DB 00H                  ; 0854
              			
              	; 'Q's none
              	
0855: 00      	xt0855: DB 00H                  ; 0855
              	
              	; 'R's RAL RAR RC REPT RES RET RET RETI
              	;      RETN RIM RNC RNZ RP RPE RPO RR
              	;      RRA RRC RRC RRCA RRD RST RST RZ
              	
0856: 0217    	xt0856: DB 02H,17H              ; 0856
0858: 414C    	        DB "AL"                 ; 0858
085A: 021F    	        DB 02H,1FH              ; 085A
085C: 4152    	        DB "AR"                 ; 085C
085E: 01D8    	        DB 01H,0D8H             ; 085E
0860: 43      	        DB "C"                  ; 0860
0861: 9321    	        DB 93H,21H              ; 0861
0863: 455054  	        DB "EPT"                ; 0862
0866: 5A26    	        DB 5AH,26H              ; 0865
0868: 4553    	        DB "ES"                 ; 0867
086A: 02C9    	        DB 02H,0C9H             ; 0869
086C: 4554    	        DB "ET"                 ; 086B
086E: 5228    	        DB 52H,28H              ; 086D
0870: 4554    	        DB "ET"                 ; 086F
0872: 734D    	        DB 73H, 4DH             ; 0871
0874: 455449  	        DB "ETI"                ; 0873
0877: 7345    	        DB 73H,45H              ; 0876
0879: 45544E  	        DB "ETN"                ; 0878
087C: 0220    	        DB 02H,20H              ; 087B
087E: 494D    	        DB "IM"                 ; 087D
0880: 592A    	        DB 59H,2AH              ; 087F
0882: 4C      	        DB "L"                  ; 0881
0883: 6A17    	        DB 6AH,17H              ; 0882
0885: 4C41    	        DB "LA"                 ; 0884
0887: 0207    	        DB 02H,07H              ; 0886
0889: 4C43    	        DB "LC"                 ; 0888
088B: 5A2C    	        DB 5AH,2CH              ; 088A
088D: 4C43    	        DB "LC"                 ; 088C
088F: 6B07    	        DB 6BH,07H              ; 088E
0891: 4C4341  	        DB "LCA"                ; 0890
0894: 726F    	        DB 72H,6FH              ; 0893
0896: 4C44    	        DB "LD"                 ; 0895
0898: 01F8    	        DB 01H,0F8H             ; 0897
089A: 4D      	        DB "M"                  ; 0899
089B: 02D0    	        DB 02H,0D0H             ; 089A
089D: 4E43    	        DB "NC"                 ; 089C
089F: 02C0    	        DB 02H,0C0H             ; 089E
08A1: 4E5A    	        DB "NZ"                 ; 08A0
08A3: 01F0    	        DB 01H,0F0H             ; 08A2
08A5: 50      	        DB "P"                  ; 08A4
08A6: 02E8    	        DB 02H,0E8H             ; 08A5
08A8: 5045    	        DB "PE"                 ; 08A7
08AA: 02E0    	        DB 02H,0E0H             ; 08A9
08AC: 504F    	        DB "PO"                 ; 08AB
08AE: 592E    	        DB 59H,2EH              ; 08AD
08B0: 52      	        DB "R"                  ; 08AF
08B1: 6A1F    	        DB 6AH,1FH              ; 08B1
08B3: 5241    	        DB "RA"                 ; 08B3
08B5: 020F    	        DB 02H,0FH              ; 08B5
08B7: 5243    	        DB "RC"                 ; 08B7
08B9: 5A30    	        DB 5AH,30H
08BB: 5243    	        DB "RC"
08BD: 6B0F    	        DB 6BH,0FH              ; 08BD
08BF: 524341  	        DB "RCA"                ; 08BF
08C2: 7267    	        DB 72H,67H
08C4: 5244    	        DB "RD"
08C6: 22C7    	        DB 22H,0C7H             ; 08C7
08C8: 5354    	        DB "ST"
08CA: 5232    	        DB 52H,32H
08CC: 5354    	        DB "ST"                 ; 08C8
08CE: 01C8    	        DB 01H,0C8H             ; 08CE
08D0: 5A      	        DB "Z"                  ; 08D0
08D1: 00      	        DB 00H                  ; 08D1
              	
              	; 'S's SBB SBI SBC SCF SET SET SHLD SIM
              	;      SLA SPHL SRA SRL STA STAX STC SUB
              	;      SUB SUBTTL SUI
              	
08D2: 1A98    	xt08D2: DB 1AH,98H              ; 08D2
08D4: 4242    	        DB "BB"                 ; 08D4
08D6: 2ADE    	        DB 2AH,0DEH             ; 08D6
08D8: 4249    	        DB "BI"                 ; 08D8
08DA: 5234    	        DB 52H,34H              ; 08DA
08DC: 4243    	        DB "BC"                 ; 08DC
08DE: 6A37    	        DB 6AH,37H              ; 08DE
08E0: 4346    	        DB "CF"                 ; 08F0
08E2: 5A36    	        DB 5AH,36H              ; 08F2
08E4: 4554    	        DB "ET"                 ; 08F4
08E6: 8222    	        DB 82H,22H              ; 08E6
08E8: 4554    	        DB "ET"
08EA: 3322    	        DB 33H,22H
08EC: 484C44  	        DB "HLD"                ; 08E7
08EF: 0230    	        DB 02H,30H              ; 08EF
08F1: 494D    	        DB "IM"                 ; 08F1
08F3: 5A38    	        DB 5AH,38H
08F5: 4C41    	        DB "LA" 
08F7: 03F9    	        DB 03H,0F9H             ; 08F7
08F9: 50484C  	        DB "PHL"                ; 08F9
08FC: 5A3A    	        DB 5AH,3AH
08FE: 5241    	        DB "RA"
0900: 5A3C    	        DB 5AH,3CH
0902: 524C    	        DB "RL"
0904: 3232    	        DB 32H,32H
0906: 5441    	        DB "TA"
0908: 0B02    	        DB 0BH,02H              ; 0908
090A: 544158  	        DB "TAX"                ; 090A
090D: 0237    	        DB 02H,37H              ; 090D
090F: 5443    	        DB "TC"                 ; 090F
0911: 1A90    	        DB 1AH,90H              ; 0911
0913: 5542    	        DB "UB"
0915: 523E    	        DB 52H,3EH
0917: 5542    	        DB "UB"                 ; 0913
0919: 8523    	        DB 85H,23H              ; 0919
091B: 55425454	        DB "UBTTL"              ; 091B
091F: 4C      	
0920: 2AD6    	        DB 2AH,0D6H             ; 0920
0922: 5549    	        DB "UI"                 ; 0922
0924: 00      	        DB 00H                  ; 0924
              	
              	; 'T's TITLE
              	
0925: 8424    	xt0925: DB 84H,24H              ; 0925
0927: 49544C45	        DB "ITLE"               ; 0927
092B: 00      	        DB 00H                  ; 092B
              			
              	; 'U's none
              	
092C: 00      	xt092C: DB 00H                  ; 092C
              	
              	; 'V's none
              	
092D: 00      	xt092D: DB 00H                  ; 092D
              	
              	; 'W's none
              	
092E: 00      	xt092E: DB 00H                  ; 092E
              	
              	; 'X's XCHG XOR XRA XRI XTHL
              	
092F: 03EB    	xt092F: DB 03H,0EBH             ; 092F
0931: 434847  	        DB "CHG"
0934: 5240    	        DB 52H,40H
0936: 4F52    	        DB "OR"                 ; 0931
0938: 1AA8    	        DB 1AH,0A8H             ; 0938
093A: 5241    	        DB "RA"                 ; 093A
093C: 2AEE    	        DB 2AH,0EEH             ; 093C
093E: 5249    	        DB "RI"                 ; 093E
0940: 03E3    	        DB 03H,0E3H             ; 0940
0942: 54484C  	        DB "THL"                ; 0942
0945: 00      	        DB 00H                  ; 0945
              	
              	; 'Y's none
              	
0946: 00      	xt0946: DB 00H                  ; 0946
              	
              	; 'Z's none
              	
0947: 00      	xt0947: DB 00H
              	
              	; '.'s  .8080 .Z80 .COMMENT .CRF .DEPHASE
              	;       .LALL .PASS2 .PHASE .PRINTX .RADIX
              	;       .RADIX .REQUEST .SALL .SFCOND
              	;       .SALL .SFCOND .TFCOND .XALL
              	;       .XCREF .XLIST
              	
0948: 8436    	xt0948: DB 84H,36H              ; 0948
094A: 38303830	        DB "8080"               ; 094A
094E: 8337    	        DB 83H,37H              ; 094E
0950: 5A3830  	        DB "Z80"                ; 094F
0953: 8725    	        DB 87H,25H              ; 0953
0955: 434F4D4D	        DB "COMMENT"            ; 0955
0959: 454E54  	
095C: 8426    	        DB 84H,26H              ; 095C
095E: 43524546	        DB "CREF"               ; 095E
0962: 8727    	        DB 87H ,27H             ; 0962
0964: 44455048	        DB "DEPHASE"            ; 0963
0968: 415345  	
096B: 8428    	        DB 84H,28H              ; 096B
096D: 4C414C4C	        DB "LALL"               ; 096D
0971: 863B    	        DB 86H,3BH              ; 0971
0973: 4C46434F	        DB "LFCOND"             ; 0973
0977: 4E44    	
0979: 8429    	        DB 84H,29H              ; 0979
097B: 4C495354	        DB "LIST"               ; 097B
097F: 852A    	        DB 85H,2AH              ; 097F
0981: 50415353	        DB "PASS2"              ; 0981
0985: 32      	
0986: 852B    	        DB 85H,2BH              ; 0986
0988: 50484153	        DB "PHASE"              ; 0988
098C: 45      	
098D: 862C    	        DB 86H,2CH              ; 098D
098F: 5052494E	        DB "PRINTX"             ; 098F
0993: 5458    	
0995: 852D    	        DB 85H,2DH              ; 0995
0997: 52414449	        DB "RADIX"              ; 0997
099B: 58      	
099C: 8735    	        DB 87H,35H              ; 099C
099E: 52455155	        DB "REQUEST"            ; 099E
09A2: 455354  	
09A5: 842E    	        DB 84H,2EH              ; 09A5
09A7: 53414C4C	        DB "SALL"               ; 09A7
09AB: 863C    	        DB 86H,3CH              ; 09AB
09AD: 5346434F	        DB "SFCOND"             ; 09AD
09B1: 4E44    	
09B3: 863D    	        DB 86H,3DH              ; 09B3
09B5: 5446434F	        DB "TFCOND"             ; 09B5
09B9: 4E44    	
09BB: 842F    	        DB 84H,2FH              ; 09BB
09BD: 58414C4C	        DB "XALL"               ; 09BD
09C1: 8530    	        DB 85H,30H              ; 09C1
09C3: 58435245	        DB "XCREF"              ; 09C3
09C7: 46      	
09C8: 8531    	        DB 85H,31H              ; 09C8
09CA: 584C4953	        DB "XLIST"              ; 09C8
09CE: 54      	
09CF: 00      	        DB 00H                  ; 09CF
              	
              	;      EJECT INCLUDE TITLE
              	
09D0: 851F    	xt09D0: DB 85H,1FH              ; 09D0
09D2: 454A4543	        DB "EJECT"              ; 09D2
09D6: 54      	
09D7: 8738    	        DB 87H,38H              ; 09D7
09D9: 494E434C	        DB "INCLUDE"            ; 09D9
09DD: 554445  	
09E0: 8534    	        DB 85H,34H              ; 09E0
09E2: 5449544C	        DB "TITLE"              ; 09E2
09E6: 45      	
09E7: 00      	        DB 00H                  ; 09E7
              	
09E8: 790E    	xt09E8: DW p0E79                ;
09EA: 800E    	        DW p0E80                ;
09EC: 8F0E    	        DW p0E8F                ;
09EE: 9E0E    	        DW p0E9E                ;
09F0: AA0E    	        DW p0EAA                ;
09F2: B90E    	        DW p0EB9                ;
09F4: C70E    	        DW p0EC7                ;
09F6: D30E    	        DW p0ED3                ;
09F8: F40E    	        DW p0EF4                ;
09FA: 100F    	        DW p0F10                ;
09FC: 680F    	        DW p0F68                ;
09FE: 6B0F    	        DW p0F6B                ; mid-command
0A00: 6E0F    	        DW p0F6E                ; mid-command
0A02: 790E    	        DW p0E79                ;
0A04: 740E    	        DW p0E74                ; 0A04
              	
0A06: EF26    	xt0A06: DW p26EF                ; 0A06
0A08: 8E2C    	        DW p2C8E                ; 0A08
0A0A: 0827    	        DW p2708                ; 0A0A
0A0C: 8D27    	        DW p278D
0A0E: 3E28    	        DW p283E                ; 0A0E
0A10: 8328    	        DW p2883                ; 0A10
0A12: 1D27    	        DW p271D                ; 0A12
0A14: D728    	        DW p28D7                ; 0A14
0A16: 1629    	        DW p2916                ; 0A16
0A18: B22D    	        DW p2DB2                ; 0A18
0A1A: EA28    	        DW p28EA                ; 0A1A
0A1C: 2835    	        DW p3528                ; 0A1C
0A1E: 892A    	        DW p2A89                ; 0A1E
0A20: C104    	        DW p04C1                ; 0A20
0A22: 0E35    	        DW p350E                ; 0A22
0A24: DD2C    	        DW p2CDD                ; 0A24
0A26: DD2C    	        DW p2CDD                ; 0A26
0A28: 7F29    	        DW p297F                ; 0A28
0A2A: 8729    	        DW p2987                ; 0A2A
0A2C: 8729    	        DW p2987                ; 0A2C
0A2E: 7F29    	        DW p297F                ; 0A2E
0A30: 9429    	        DW p2994                ; 0A30
0A32: 9E29    	        DW p299E                ; 0A32
0A34: A829    	        DW p29A8                ; 0A34
0A36: A929    	        DW p29A9                ; 0A36 mid-command
0A38: 6836    	        DW p3668                ; 0A38 mid-command
0A3A: 6636    	        DW p3666                ; 0A3A
0A3C: 2835    	        DW p3528                ; 0A3C
0A3E: C104    	        DW p04C1                ; 0A3E
0A40: 432C    	        DW p2C43                ; 0A40
0A42: 7E26    	        DW p267E                ; 0A42
0A44: BE2B    	        DW p2BBE                ; 0A44
0A46: 892A    	        DW p2A89                ; 0A46
0A48: 4134    	        DW p3441                ; 0A48
0A4A: C104    	        DW p04C1                ; 0A4A
0A4C: BE2A    	        DW p2ABE                ; 0A4C
0A4E: B52A    	        DW p2AB5                ; 0A4E
0A50: 6937    	        DW p3769                ; 0A50
0A52: 1A2B    	        DW p2B1A                ; 0A52
0A54: 8639    	        DW p3986                ; 0A54
0A56: 4D2B    	        DW p2B4D                ; 0A56
0A58: 0B2B    	        DW p2B0B                ; 0A58
0A5A: 1205    	        DW p0512                ; 0A5A
0A5C: 5B39    	        DW p395B                ; 0A5C
0A5E: 3B37    	        DW p373B                ; 0A5E
0A60: 922B    	        DW p2B92                ; 0A60
0A62: 552B    	        DW p2B55                ; 0A62
0A64: 5C2B    	        DW p2B5C                ; 0A64
0A66: 212B    	        DW p2B21                ; 0A66
0A68: 132B    	        DW p2B13                ; 0A68
0A6A: E329    	        DW p29E3                ; 0A6A
0A6C: E429    	        DW p29E4                ; 0A6C mid-command
0A6E: E92A    	        DW p2AE9                ; 0A6E
0A70: EA2B    	        DW p2BEA                ; 0A70
0A72: 832B    	        DW p2B83                ; 0A72
0A74: 8B2B    	        DW p2B8B                ; 0A74
0A76: 162C    	        DW p2C16                ; 0A76
0A78: F829    	        DW p29F8                ; 0A78 mid-command
0A7A: F729    	        DW p29F7                ; 0A7A
0A7C: 642B    	        DW p2B64                ; 0A7C
0A7E: 682B    	        DW p2B68                ; 0A7E
0A80: 6D2B    	        DW p2B6D                ; 0A80
0A82: 272D    	        DW p2D27                ; 0A82
              	;=====================================
0A84: 0488    	xt0A84: DB 04H,88H              ; 0A84
0A86: 0680    	        DB 06H,80H              ; 0A86
0A88: 00A0    	        DB 00H,0A0H             ; 0A88
0A8A: 0240    	        DB 02H,40H              ; 0A8A
0A8C: 0CCD    	        DB 0CH,0CDH             ; 0A8C
0A8E: 00B8    	        DB 00H,0B8H             ; 0A8E
0A90: 0805    	        DB 08H,05H              ; 0A90
0A92: 1610    	        DB 16H,10H              ; 0A92
0A94: 1E00    	        DB 1EH,00H              ; 0A94
0A96: 0A46    	        DB 0AH,46H              ; 0A96      
0A98: 1A00    	        DB 1AH,00H              ; 0A98
0A9A: 0804    	        DB 08H,04H              ; 0A9A
0A9C: 10C3    	        DB 10H,0C3H             ; 0A9C
0A9E: 1218    	        DB 12H,18H              ; 0A9E
0AA0: 2200    	        DB 22H,00H              ; 0AA0
0AA2: 00B0    	        DB 00H,0B0H             ; 0AA2
0AA4: 1C00    	        DB 1CH,00H              ; 0AA4
0AA6: 20C1    	        DB 20H,0C1H             ; 0AA6
0AA8: 20C5    	        DB 20H,0C5H             ; 0AA8
0AAA: 0280    	        DB 02H,80H              ; 0AAA
0AAC: 0E00    	        DB 0EH,00H              ; 0AAC
0AAE: 1410    	        DB 14H,10H              ; 0AAE
0AB0: 1400    	        DB 14H,00H              ; 0ABO
0AB2: 1418    	        DB 14H,18H              ; 0AB2
0AB4: 1408    	        DB 14H,08H              ; 0AB4
0AB6: 18C7    	        DB 18H,0C7H             ; 0AB6
0AB8: 0498    	        DB 04H,98H              ; 0AB8
0ABA: 02C0    	        DB 02H,0C0H             ; 0ABA
0ABC: 1420    	        DB 14H,20H              ; 0ABC
0ABE: 1428    	        DB 14H,28H              ; 0ABE
0AC0: 1438    	        DB 14H,38H              ; 0AC0
0AC2: 0090    	        DB 00H,90H              ; 0AC2
0AC4: 00A8    	        DB 00H,0A8H             ; 0AC4
              	;=====================================
0AC6: 3513    	xt0AC6: DW p1335                ; 0AC6
0AC8: 8412    	        DW p1284                ; 0AC8
0ACA: 7613    	        DW p1376                ; 0ACA
0ACC: BF13    	        DW p13BF                ; 0ACC
0ACE: E912    	        DW p12E9                ; 0ACE
0AD0: 830F    	        DW p0F83                ; 0AD0
0AD2: 4310    	        DW p1043                ; 0AD2
0AD4: CD0F    	        DW p0FCD                ; 0AD4
0AD6: 6410    	        DW p1064                ; 0AD6
0AD8: 9010    	        DW p1090                ; 0AD8
0ADA: 9812    	        DW p1298                ; 0ADA
0ADC: 0111    	        DW p1101                ; 0ADC
0ADE: A30F    	        DW p0FA3                ; 0ADE
0AE0: CF11    	        DW p11CF                ; 0AE0
0AE2: 7D11    	        DW p117D                ; 0AE2
0AE4: 1212    	        DW p1212                ; 0AE4
0AE6: B50F    	        DW p0FB5                ; 0AE6
0AE8: 2014    	        DW p1420                ; 0AE8
              	;=====================================
0AEA: E5      	p0AEA:  PUSH HL                 ; 0AEA
0AEB: 2A463D  	p0AEB:  LD HL,(xw3D46)          ; 0AEB
0AEE: 7E      	        LD A,(HL)               ; 0AEE
0AEF: 23      	        INC HL                  ; 0AEF
0AF0: 22463D  	        LD (xw3D46),HL          ; 0AF0
0AF3: FE0C    	        CP 0CH                  ; 0AF3
0AF5: CAEB0A  	        JP Z,p0AEB              ; 0AF5
0AF8: 6F      	        LD L,A                  ; 0AF8
0AF9: FE41    	        CP 'A'                  ; 0AF9
0AFB: D2100B  	        JP NC,p0B10             ; 0AFB
0AFE: FE30    	p0AFE:  CP '0'                  ; 0AFE
0B00: DA080B  	        JP C,p0B08              ; 0B00
0B03: FE3A    	        CP '9'+1                ; 0B03
0B05: DA0D0B  	        JP C,p0B0D              ; 0B05
0B08: 37      	p0B08:  SCF                     ; 0B08
0B09: 9F      	        SBC A,A                 ; 0B09
0B0A: 7D      	        LD A,L                  ; 0B0A
0B0B: E1      	        POP HL                  ; 0B0B
0B0C: C9      	        RET                     ; 0B0C
              	
0B0D: B7      	p0B0D:  OR A                    ; 0B0D
0B0E: E1      	        POP HL                  ; 0B0E
0B0F: C9      	        RET                     ; 0B0F
              	
0B10: FE5B    	p0B10:  CP 'Z'+1                ; 0B10
0B12: DA1F0B  	        JP C,p0B1F              ; 0B12
0B15: FE61    	        CP 'a'                  ; 0B15
0B17: DA080B  	        JP C,p0B08              ; 0B17
0B1A: FE7B    	        CP 'z'+1                ; 0B1A
0B1C: D2080B  	        JP NC,p0B08             ; 0B1C
0B1F: AF      	p0B1F:  XOR A                   ; 0B1F
0B20: 7D      	        LD A,L                  ; 0B20
0B21: E1      	        POP HL                  ; 0B21
0B22: C9      	        RET                     ; 0B22
              	
0B23: CDEA0A  	p0B23:  CALL p0AEA              ; 0B23
0B26: C3360B  	        JP p0B36                ; 0B26
              	
0B29: CDEA0A  	p0B29:  CALL p0AEA              ; 0B29
0B2C: F5      	        PUSH AF                 ; 0B2C
0B2D: FE0D    	        CP 0DH                  ; 0B2D
0B2F: C2C718  	        JP NZ,p18C7             ; 0B2F
0B32: CDC104  	        CALL p04C1              ; 0B32
0B35: F1      	        POP AF                  ; 0B35
0B36: E5      	p0B36:  PUSH HL                 ; 0B36
0B37: 2A463D  	        LD HL,(xw3D46)          ; 0B37
0B3A: 2B      	        DEC HL                  ; 0B3A
0B3B: 22463D  	        LD (xw3D46),HL          ; 0B3B
0B3E: E1      	x0B3E:  POP HL                  ; 0B3E
0B3F: C9      	        RET                     ; 0B3F
              	
0B40: 2A463D  	p0B40:  LD HL,(xw3D46)          ; 0B40
0B43: 23      	        INC HL                  ; 0B43
0B44: 22463D  	        LD (xw3D46),HL          ; 0B44
0B47: C9      	        RET                     ; 0B47
              	
0B48: CDEA0A  	p0B48:  CALL p0AEA              ; 0B48
0B4B: C0      	        RET NZ                  ; 0B4B
0B4C: FE61    	        CP 'a'                  ; 0B4C
0B4E: DA530B  	        JP C,p0B53              ; 0B4E
0B51: D620    	        SUB 20H                 ; 0B51
0B53: BF      	p0B53:  CP A                    ; 0B53
0B54: C9      	        RET                     ; 0B54
              	
0B55: CDC80B  	p0B55:  CALL p0BC8              ; 0B55
0B58: CD360B  	        CALL p0B36              ; 0B58
0B5B: 21EA3D  	        LD HL,xb3DEA            ; 0B5B
0B5E: 012012  	        LD BC,1220H             ; 0B5E count, ' '
0B61: 71      	p0B61:  LD (HL),C               ; 0B61
0B62: 23      	        INC HL                  ; 0B62
0B63: 05      	        DEC B                   ; 0B63
0B64: C2610B  	        JP NZ,p0B61             ; 0B64
0B67: 21E93D  	        LD HL,xb3DE9            ; 0B67 address
0B6A: 3600    	        LD (HL),00H             ; 0B6A
0B6C: 23      	        INC HL                  ; 0B6C
0B6D: CDB10B  	        CALL p0BB1              ; 0B6D
0B70: C4020C  	        CALL NZ,p0C02           ; 0B70
0B73: 32E63C  	p0B73:  LD (xb3CE6),A           ; 0B73
0B76: 0E00    	        LD C,00H                ; 0B76
0B78: FE61    	p0B78:  CP 'a'                  ; 0B78
0B7A: DA7F0B  	        JP C,p0B7F              ; 0B7A
0B7D: D620    	        SUB 20H                 ; 0B7D
0B7F: 77      	p0B7F:  LD (HL),A               ; 0B7F
0B80: 23      	        INC HL                  ; 0B80
0B81: 0C      	        INC C                   ; 0B81
0B82: 79      	        LD A,C                  ; 0B82
0B83: FE12    	        CP 12H                  ; 0B83
0B85: CA9F0B  	        JP Z,p0B9F              ; 0B85
0B88: CDB10B  	        CALL p0BB1              ; 0B88
0B8B: F2780B  	        JP P,p0B78              ; 0B8B
0B8E: CDDA0B  	        CALL p0BDA              ; 0B8E
0B91: D2970B  	        JP NC,p0B97             ; 0B91
0B94: F2780B  	        JP P,p0B78              ; 0B94
0B97: 47      	p0B97:  LD B,A                  ; 0B97
0B98: 79      	        LD A,C                  ; 0B98
0B99: 32E93D  	        LD (xb3DE9),A           ; 0B99
0B9C: AF      	        XOR A                   ; 0B9C
0B9D: 78      	        LD A,B                  ; 0B9D
0B9E: C9      	        RET                     ; 0B9E
              	
0B9F: CDB10B  	p0B9F:  CALL p0BB1              ; 0B9F
0BA2: F29F0B  	p0BA2:  JP P,p0B9F              ; 0BA2
0BA5: CDDA0B  	        CALL p0BDA              ; 0BA5
0BA8: D2970B  	        JP NC,p0B97             ; 0BA8
0BAB: F29F0B  	        JP P,p0B9F              ; 0BAB
0BAE: C3970B  	        JP p0B97                ; 0BAE
              	
0BB1: CDEA0A  	p0BB1:  CALL p0AEA              ; 0BB1
0BB4: F0      	        RET P                   ; 0BB4
0BB5: FE24    	        CP '$'                  ; 0BB5
0BB7: C8      	        RET Z                   ; 0BB7
0BB8: FE2E    	        CP '.'                  ; 0BB8
0BBA: C8      	        RET Z                   ; 0BBA
0BBB: FE40    	        CP '@'                  ; 0BBB
0BBD: C8      	        RET Z                   ; 0BBD
0BBE: FE3F    	        CP '?'                  ; 0BBE
0BC0: C8      	        RET Z                   ; 0BC0
0BC1: FE5F    	        CP '_'                  ; 0BC1
0BC3: C8      	        RET Z                   ; 0BC3
0BC4: 2F      	        CPL                     ; 0BC4
0BC5: B7      	        OR A                    ; 0BC5
0BC6: 2F      	        CPL                     ; 0BC6
0BC7: C9      	        RET                     ; 0BC7
              	
0BC8: CDEA0A  	p0BC8:  CALL p0AEA              ; 0BC8
0BCB: F0      	        RET P                   ; 0BCB
0BCC: FE20    	        CP ' '                  ; 0BCC
0BCE: CAC80B  	        JP Z,p0BC8              ; 0BCE
0BD1: FE09    	        CP 09H                  ; 0BD1
0BD3: CAC80B  	        JP Z,p0BC8              ; 0BD3
0BD6: 2F      	        CPL                     ; 0BD6
0BD7: B7      	        OR A                    ; 0BD7
0BD8: 2F      	        CPL                     ; 0BD8
0BD9: C9      	        RET                     ; 0BD9
              	
0BDA: F5      	p0BDA:  PUSH AF                 ; 0BDA
0BDB: B7      	        OR A                    ; 0BDB
0BDC: CAE40B  	        JP Z,p0BE4              ; 0BDC
0BDF: FE26    	        CP 26H                  ; 0BDF ^Z
0BE1: C2C718  	        JP NZ,p18C7             ; 0BE1
0BE4: 3AFB3F  	p0BE4:  LD A,(xb3FFB)           ; 0BE4
0BE7: B7      	        OR A                    ; 0BE7
0BE8: C2ED0B  	        JP NZ,p0BED             ; 0BE8
0BEB: F1      	        POP AF                  ; 0BEB
0BEC: C9      	        RET                     ; 0BEC
              	
0BED: F1      	p0BED:  POP AF                  ; 0BED
0BEE: CDB10B  	p0BEE:  CALL p0BB1              ; 0BEE
0BF1: B7      	        OR A                    ; 0BF1
0BF2: CAEE0B  	        JP Z,p0BEE              ; 0BF2
0BF5: FE26    	        CP 26H                  ; 0BF5 ^Z
0BF7: CAEE0B  	        JP Z,p0BEE              ; 0BF7
0BFA: CD360B  	        CALL p0B36              ; 0BFA
0BFD: CDB10B  	        CALL p0BB1              ; 0BFD
0C00: 37      	        SCF                     ; 0C00
0C01: C9      	        RET                     ; 0C01
              	
0C02: CDDA0B  	p0C02:  CALL p0BDA              ; 0C02
0C05: D2090C  	        JP NC,p0C09             ; 0C05
0C08: C8      	        RET Z                   ; 0C08
0C09: C1      	p0C09:  POP BC                  ; 0C09
0C0A: 0E00    	        LD C,00H                ; 0C0A
0C0C: 47      	        LD B,A                  ; 0C0C
0C0D: C9      	        RET                     ; 0C0D
              	
0C0E: 21723F  	p0C0E:  LD HL,xf3F72            ; 0C0E start of buffer
0C11: 3AE93D  	        LD A,(xb3DE9)           ; 0C11
0C14: F5      	        PUSH AF                 ; 0C14
0C15: CD270C  	        CALL p0C27              ; 0C15
0C18: CA220C  	        JP Z,p0C22              ; 0C18
0C1B: F1      	        POP AF                  ; 0C1B
0C1C: 32E93D  	        LD (xb3DE9),A           ; 0C1C
0C1F: B7      	        OR A                    ; 0C1F
0C20: 7E      	        LD A,(HL)               ; 0C20
0C21: C9      	        RET                     ; 0C21
              	
0C22: C1      	p0C22:  POP BC                  ; 0C22
0C23: C9      	        RET                     ; 0C23
              	
0C24: 21B43F  	p0C24:  LD HL,xf3FB4            ; 0C24 start of buffer
0C27: CDDC0C  	p0C27:  CALL p0CDC              ; 0C27
0C2A: 0600    	        LD B,00H                ; 0C2A
0C2C: 09      	        ADD HL,BC               ; 0C2C
0C2D: 09      	        ADD HL,BC               ; 0C2D
0C2E: 22703F  	        LD (xw3F70),HL          ; 0C2E
0C31: 5E      	        LD E,(HL)               ; 0C31
0C32: 23      	        INC HL                  ; 0C32
0C33: 56      	        LD D,(HL)               ; 0C33
0C34: 21673F  	        LD HL,xf3F67            ; 0C34 address
0C37: 0609    	        LD B,09H                ; 0C37
0C39: AF      	        XOR A                   ; 0C39
0C3A: 77      	p0C3A:  LD (HL),A               ; 0C3A
0C3B: 23      	        INC HL                  ; 0C3B
0C3C: 05      	        DEC B                   ; 0C3C
0C3D: C23A0C  	        JP NZ,p0C3A             ; 0C3D
0C40: 21E93D  	        LD HL,xb3DE9            ; 0C40 address
0C43: 7E      	        LD A,(HL)               ; 0C43
0C44: FE10    	        CP 10H                  ; 0C44
0C46: DA4B0C  	        JP C,p0C4B              ; 0C46
0C49: 3610    	        LD (HL),10H             ; 0C49
0C4B: 21E93D  	p0C4B:  LD HL,xb3DE9            ; 0C4B address
0C4E: 4E      	        LD C,(HL)               ; 0C4E
0C4F: 0D      	        DEC C                   ; 0C4F
0C50: 7A      	p0C50:  LD A,D                  ; 0C50
0C51: B3      	        OR E                    ; 0C51
0C52: CABE0C  	        JP Z,p0CBE              ; 0C52
0C55: EB      	        EX DE,HL                ; 0C55
0C56: 5E      	        LD E,(HL)               ; 0C56
0C57: 23      	        INC HL                  ; 0C57
0C58: 56      	        LD D,(HL)               ; 0C58
0C59: D5      	        PUSH DE                 ; 0C59
0C5A: 23      	        INC HL                  ; 0C5A
0C5B: 5E      	        LD E,(HL)               ; 0C5B
0C5C: 23      	        INC HL                  ; 0C5C
0C5D: 56      	        LD D,(HL)               ; 0C5D
0C5E: D5      	        PUSH DE                 ; 0C5E
0C5F: E5      	        PUSH HL                 ; 0C5F
0C60: 23      	        INC HL                  ; 0C60
0C61: 7E      	        LD A,(HL)               ; 0C61
0C62: 3D      	        DEC A                   ; 0C62
0C63: CA790C  	        JP Z,p0C79              ; 0C63
0C66: 110800  	        LD DE,0008H             ; 0C66
0C69: 19      	        ADD HL,DE               ; 0C69
0C6A: 11EB3D  	        LD DE,xf3DEB            ; 0C6A address
0C6D: 47      	        LD B,A                  ; 0C6D
0C6E: 1A      	p0C6E:  LD A,(DE)               ; 0C6E
0C6F: BE      	        CP (HL)                 ; 0C6F
0C70: C28B0C  	        JP NZ,p0C8B             ; 0C70
0C73: 23      	        INC HL                  ; 0C73
0C74: 13      	        INC DE                  ; 0C74
0C75: 05      	        DEC B                   ; 0C75
0C76: C26E0C  	        JP NZ,p0C6E             ; 0C76
0C79: E1      	p0C79:  POP HL                  ; 0C79
0C7A: 23      	        INC HL                  ; 0C7A
0C7B: 7E      	        LD A,(HL)               ; 0C7B
0C7C: 3D      	        DEC A                   ; 0C7C
0C7D: B9      	        CP C                    ; 0C7D
0C7E: C2B80C  	        JP NZ,p0CB8             ; 0C7E
0C81: 23      	        INC HL                  ; 0C81
0C82: 223F3D  	        LD (xw3D3F),HL          ; 0C82
0C85: 23      	        INC HL                  ; 0C85
0C86: 7E      	        LD A,(HL)               ; 0C86
0C87: 2B      	        DEC HL                  ; 0C87
0C88: C1      	        POP BC                  ; 0C88
0C89: C1      	        POP BC                  ; 0C89
0C8A: C9      	        RET                     ; 0C8A
              	
0C8B: 3F      	p0C8B:  CCF                     ; 0C8B
0C8C: 9F      	        SBC A,A                 ; 0C8C
0C8D: E602    	        AND 02H                 ; 0C8D
0C8F: E1      	        POP HL                  ; 0C8F
0C90: F5      	p0C90:  PUSH AF                 ; 0C90
0C91: EB      	        EX DE,HL                ; 0C91
0C92: 1B      	        DEC DE                  ; 0C92
0C93: 1B      	        DEC DE                  ; 0C93
0C94: 1B      	        DEC DE                  ; 0C94
0C95: F5      	        PUSH AF                 ; 0C95
0C96: D5      	        PUSH DE                 ; 0C96
0C97: 116A3F  	        LD DE,xf3F6A            ; 0C97 address
0C9A: 21673F  	        LD HL,xf3F67            ; 0C9A address
0C9D: 0606    	        LD B,06H                ; 0C9D
0C9F: 1A      	p0C9F:  LD A,(DE)               ; 0C9F
0CA0: 77      	        LD (HL),A               ; 0CA0
0CA1: 23      	        INC HL                  ; 0CA1
0CA2: 13      	        INC DE                  ; 0CA2
0CA3: 05      	        DEC B                   ; 0CA3
0CA4: C29F0C  	        JP NZ,p0C9F             ; 0CA4
0CA7: D1      	        POP DE                  ; 0CA7
0CA8: F1      	        POP AF                  ; 0CA8
0CA9: 77      	        LD (HL),A               ; 0CA9
0CAA: 23      	        INC HL                  ; 0CAA
0CAB: 73      	        LD (HL),E               ; 0CAB
0CAC: 23      	        INC HL                  ; 0CAC
0CAD: 72      	        LD (HL),D               ; 0CAD
0CAE: F1      	        POP AF                  ; 0CAE
0CAF: E1      	        POP HL                  ; 0CAF
0CB0: D1      	        POP DE                  ; 0CB0
0CB1: CA500C  	        JP Z,p0C50              ; 0CB1
0CB4: EB      	        EX DE,HL                ; 0CB4
0CB5: C3500C  	        JP p0C50                ; 0CB5
              	
0CB8: 2B      	p0CB8:  DEC HL                  ; 0CB8
0CB9: 3E02    	        LD A,02H                ; 0CB9
0CBB: C3900C  	        JP p0C90                ; 0CBB
              	
0CBE: 3C      	p0CBE:  INC A                   ; 0CBE
0CBF: 2A413D  	        LD HL,(xw3D41)          ; 0CBF
0CC2: 7E      	        LD A,(HL)               ; 0CC2
0CC3: C9      	        RET                     ; 0CC3
              	
0CC4: 2A1B40  	p0CC4:  LD HL,(xw401B)          ; 0CC4
0CC7: 23      	        INC HL                  ; 0CC7
0CC8: 23      	        INC HL                  ; 0CC8
0CC9: 23      	        INC HL                  ; 0CC9
0CCA: 23      	        INC HL                  ; 0CCA
0CCB: 7E      	        LD A,(HL)               ; 0CCB
0CCC: B7      	        OR A                    ; 0CCC
0CCD: 37      	        SCF                     ; 0CCD
0CCE: C8      	        RET Z                   ; 0CCE
0CCF: 23      	        INC HL                  ; 0CCF
0CD0: E5      	        PUSH HL                 ; 0CD0
0CD1: C606    	        ADD A,06H               ; 0CD1
0CD3: 1600    	        LD D,00H                ; 0CD3
0CD5: 5F      	        LD E,A                  ; 0CD5
0CD6: 19      	        ADD HL,DE               ; 0CD6
0CD7: 221B40  	        LD (xw401B),HL          ; 0CD7
0CDA: E1      	        POP HL                  ; 0CDA
0CDB: C9      	        RET                     ; 0CDB
              	
0CDC: 3AEA3D  	p0CDC:  LD A,(xb3DEA)           ; 0CDC
0CDF: FE24    	        CP '$'                  ; 0CDF
0CE1: 0E00    	        LD C,00H                ; 0CE1
0CE3: C8      	        RET Z                   ; 0CE3
0CE4: FE2E    	        CP '.'                  ; 0CE4
0CE6: 0E01    	        LD C,01H                ; 0CE6
0CE8: C8      	        RET Z                   ; 0CE8
0CE9: FE3F    	        CP '?'                  ; 0CE9
0CEB: 0E02    	        LD C,02H                ; 0CEB
0CED: C8      	        RET Z                   ; 0CED
0CEE: FE5F    	        CP '_'                  ; 0CEE
0CF0: 0E03    	        LD C,03H                ; 0CF0
0CF2: C8      	        RET Z                   ; 0CF2
0CF3: FE20    	        CP ' '                  ; 0CF3
0CF5: 0E04    	        LD C,04H                ; 0CF5
0CF7: C8      	        RET Z                   ; 0CF7
0CF8: D63B    	        SUB 3BH                 ; 0CF8
0CFA: 4F      	        LD C,A                  ; 0CFA
0CFB: C9      	        RET                     ; 0CFB
              	
0CFC: F5      	p0CFC:  PUSH AF                 ; 0CFC
0CFD: CD240C  	        CALL p0C24              ; 0CFD
0D00: 223F3D  	p0D00:  LD (xw3D3F),HL          ; 0D00
0D03: C1      	        POP BC                  ; 0D03
0D04: F5      	        PUSH AF                 ; 0D04
0D05: C5      	        PUSH BC                 ; 0D05
0D06: F1      	        POP AF                  ; 0D06
0D07: CD930D  	        CALL p0D93              ; 0D07
0D0A: F1      	        POP AF                  ; 0D0A
0D0B: C8      	        RET Z                   ; 0D0B
0D0C: E5      	        PUSH HL                 ; 0D0C
0D0D: 2A6E3F  	        LD HL,(xw3F6E)          ; 0D0D
0D10: EB      	        EX DE,HL                ; 0D10
0D11: 7A      	        LD A,D                  ; 0D11
0D12: B3      	        OR E                    ; 0D12
0D13: CACE0D  	        JP Z,p0DCE              ; 0D13
0D16: 3A6D3F  	        LD A,(xb3F6D)           ; 0D16
0D19: EB      	        EX DE,HL                ; 0D19
0D1A: 0600    	        LD B,00H                ; 0D1A
0D1C: 4F      	        LD C,A                  ; 0D1C
0D1D: 09      	        ADD HL,BC               ; 0D1D
0D1E: D1      	p0D1E:  POP DE                  ; 0D1E
0D1F: 73      	        LD (HL),E               ; 0D1F
0D20: 23      	        INC HL                  ; 0D20
0D21: 72      	        LD (HL),D               ; 0D21
0D22: EB      	        EX DE,HL                ; 0D22
0D23: 0E04    	        LD C,04H                ; 0D23
0D25: AF      	        XOR A                   ; 0D25
0D26: 77      	p0D26:  LD (HL),A               ; 0D26
0D27: 23      	        INC HL                  ; 0D27
0D28: 0D      	        DEC C                   ; 0D28
0D29: C2260D  	        JP NZ,p0D26             ; 0D29
0D2C: 11E93D  	        LD DE,xb3DE9            ; 0D2C address
0D2F: 1A      	        LD A,(DE)               ; 0D2F
0D30: FE10    	        CP 10H                  ; 0D30
0D32: DA370D  	        JP C,p0D37              ; 0D32
0D35: 3E10    	        LD A,10H                ; 0D35
0D37: 77      	p0D37:  LD (HL),A               ; 0D37
0D38: 47      	        LD B,A                  ; 0D38
0D39: 23      	        INC HL                  ; 0D39
0D3A: 13      	        INC DE                  ; 0D3A
0D3B: AF      	        XOR A                   ; 0D3B
0D3C: 77      	        LD (HL),A               ; 0D3C
0D3D: 223F3D  	        LD (xw3D3F),HL          ; 0D3D
0D40: 23      	        INC HL                  ; 0D40
0D41: 77      	        LD (HL),A               ; 0D41
0D42: 23      	        INC HL                  ; 0D42
0D43: 77      	        LD (HL),A               ; 0D43
0D44: 23      	        INC HL                  ; 0D44
0D45: 77      	        LD (HL),A               ; 0D45
0D46: 23      	        INC HL                  ; 0D46
0D47: 23      	        INC HL                  ; 0D47
0D48: 23      	        INC HL                  ; 0D48
0D49: 1A      	p0D49:  LD A,(DE)               ; 0D49
0D4A: 77      	        LD (HL),A               ; 0D4A
0D4B: 23      	        INC HL                  ; 0D4B
0D4C: 13      	        INC DE                  ; 0D4C
0D4D: 05      	        DEC B                   ; 0D4D
0D4E: C2490D  	        JP NZ,p0D49             ; 0D4E
0D51: 22413D  	        LD (xw3D41),HL          ; 0D51
0D54: 23      	        INC HL                  ; 0D54
0D55: 23      	        INC HL                  ; 0D55
0D56: 23      	        INC HL                  ; 0D56
0D57: 23      	        INC HL                  ; 0D57
0D58: 70      	        LD (HL),B               ; 0D58
0D59: 110001  	        LD DE,0100H             ; 0D59
0D5C: 19      	        ADD HL,DE               ; 0D5C
0D5D: EB      	        EX DE,HL                ; 0D5D
0D5E: 2A1D40  	        LD HL,(xw401D)          ; 0D5E
0D61: CD8D0D  	        CALL p0D8D              ; 0D61
0D64: DC003B  	        CALL C,p3B00            ; 0D64
0D67: 2A3F3D  	        LD HL,(xw3D3F)          ; 0D67
0D6A: 7C      	        LD A,H                  ; 0D6A
0D6B: B7      	        OR A                    ; 0D6B
0D6C: 3E00    	        LD A,00H                ; 0D6C
0D6E: C9      	        RET                     ; 0D6E
              	
0D6F: 21780D  	p0D6F:  LD HL,xs0D78            ; 0D6F message
0D72: CDCC46  	p0D72:  CALL p46CC              ; 0D72
0D75: C30001  	        JP p0100                ; 0D75
              	;=====================================
0D78: 3F53796D	xs0D78: DB "?Symbol table full" ; 0D78
0D7C: 626F6C20	
0D80: 7461626C	
0D84: 65206675	
0D88: 6C6C    	
0D8A: 0D      	        DB CR                   ; 0D8A
0D8B: 0A00    	xs0D8B: DB LF,0                 ; 0D8B
              	;=====================================
0D8D: 7C      	p0D8D:  LD A,H                  ; 0D8D
0D8E: 92      	        SUB D                   ; 0D8E
0D8F: C0      	        RET NZ                  ; 0D8F
0D90: 7D      	        LD A,L                  ; 0D90
0D91: 93      	        SUB E                   ; 0D91
0D92: C9      	        RET                     ; 0D92
              	
0D93: F5      	p0D93:  PUSH AF                 ; 0D93
0D94: 3AEC3C  	        LD A,(xb3CEC)           ; 0D94
0D97: B7      	        OR A                    ; 0D97
0D98: CAC718  	        JP Z,p18C7              ; 0D98
0D9B: 3A8C40  	        LD A,(xb408C)           ; 0D9B
0D9E: B7      	        OR A                    ; 0D9E
0D9F: CAC718  	        JP Z,p18C7              ; 0D9F
0DA2: 3A2D3D  	        LD A,(xb3D2D)           ; 0DA2
0DA5: B7      	        OR A                    ; 0DA5
0DA6: C2C718  	        JP NZ,p18C7             ; 0DA6
0DA9: 2A3F3D  	        LD HL,(xw3D3F)          ; 0DA9
0DAC: 7E      	        LD A,(HL)               ; 0DAC
0DAD: E640    	        AND 40H                 ; 0DAD
0DAF: C2C718  	        JP NZ,p18C7             ; 0DAF
0DB2: F1      	        POP AF                  ; 0DB2
0DB3: DAB90D  	        JP C,p0DB9              ; 0DB3
0DB6: 3E82    	        LD A,82H                ; 0DB6
0DB8: DA      	        DB 0DAH                 ; 0DB8 (JP C,p813E)
0DB9: 3E81    	p0DB9:  LD A,81H                ; 0DB9
0DBB: CD764C  	        CALL p4C76              ; 0DBB
0DBE: E5      	        PUSH HL                 ; 0DBE
0DBF: 21E93D  	        LD HL,xb3DE9            ; 0DBF address
0DC2: 46      	        LD B,(HL)               ; 0DC2
0DC3: 23      	p0DC3:  INC HL                  ; 0DC3
0DC4: 7E      	        LD A,(HL)               ; 0DC4
0DC5: CD764C  	        CALL p4C76              ; 0DC5
0DC8: 05      	        DEC B                   ; 0DC8
0DC9: C2C30D  	        JP NZ,p0DC3             ; 0DC9
0DCC: E1      	        POP HL                  ; 0DCC
0DCD: C9      	        RET                     ; 0DCD
              	
0DCE: 2A703F  	p0DCE:  LD HL,(xw3F70)          ; 0DCE
0DD1: C31E0D  	        JP p0D1E                ; 0DD1
              	
0DD4: F5      	p0DD4:  PUSH AF                 ; 0DD4
0DD5: CD0E0C  	        CALL p0C0E              ; 0DD5
0DD8: C3000D  	        JP p0D00                ; 0DD8
              	
0DDB: 47      	p0DDB:  LD B,A                  ; 0DDB
0DDC: 7E      	        LD A,(HL)               ; 0DDC
0DDD: E638    	        AND 38H                 ; 0DDD
0DDF: C2020E  	        JP NZ,p0E02             ; 0DDF
0DE2: 23      	        INC HL                  ; 0DE2
0DE3: 7E      	        LD A,(HL)               ; 0DE3
0DE4: E620    	        AND 20H                 ; 0DE4
0DE6: C2110E  	        JP NZ,p0E11             ; 0DE6
0DE9: 2B      	p0DE9:  DEC HL                  ; 0DE9
0DEA: 7E      	        LD A,(HL)               ; 0DEA
0DEB: F680    	        OR 80H                  ; 0DEB
0DED: 77      	        LD (HL),A               ; 0DED
0DEE: 23      	        INC HL                  ; 0DEE
0DEF: 7E      	        LD A,(HL)               ; 0DEF
0DF0: B0      	        OR B                    ; 0DF0
0DF1: 77      	        LD (HL),A               ; 0DF1
0DF2: 23      	        INC HL                  ; 0DF2
0DF3: 73      	        LD (HL),E               ; 0DF3
0DF4: 23      	        INC HL                  ; 0DF4
0DF5: 72      	        LD (HL),D               ; 0DF5
0DF6: 23      	        INC HL                  ; 0DF6
0DF7: D5      	        PUSH DE                 ; 0DF7
0DF8: EB      	        EX DE,HL                ; 0DF8
0DF9: 2ADE3D  	        LD HL,(xw3DDE)          ; 0DF9
0DFC: EB      	        EX DE,HL                ; 0DFC
0DFD: 73      	        LD (HL),E               ; 0DFD
0DFE: 23      	        INC HL                  ; 0DFE
0DFF: 72      	        LD (HL),D               ; 0DFF
0E00: D1      	        POP DE                  ; 0E00
0E01: C9      	        RET                     ; 0E01
              	
0E02: 7E      	p0E02:  LD A,(HL)               ; 0E02
0E03: E640    	        AND 40H                 ; 0E03
0E05: 77      	        LD (HL),A               ; 0E05
0E06: 3AEA3C  	        LD A,(xb3CEA)           ; 0E06
0E09: B7      	        OR A                    ; 0E09
0E0A: CCCD04  	        CALL Z,p04CD            ; 0E0A
0E0D: 23      	        INC HL                  ; 0E0D
0E0E: C3E90D  	        JP p0DE9                ; 0E0E
              	
0E11: 7E      	p0E11:  LD A,(HL)               ; 0E11
0E12: E694    	        AND 94H                 ; 0E12
0E14: C4610E  	        CALL NZ,p0E61           ; 0E14
0E17: 7E      	        LD A,(HL)               ; 0E17
0E18: A8      	        XOR B                   ; 0E18
0E19: E603    	        AND 03H                 ; 0E19
0E1B: C4610E  	        CALL NZ,p0E61           ; 0E1B
0E1E: 23      	        INC HL                  ; 0E1E
0E1F: D5      	        PUSH DE                 ; 0E1F
0E20: 5E      	        LD E,(HL)               ; 0E20
0E21: 23      	        INC HL                  ; 0E21
0E22: 56      	        LD D,(HL)               ; 0E22
0E23: 23      	        INC HL                  ; 0E23
0E24: E3      	        EX (SP),HL              ; 0E24
0E25: CD8D0D  	        CALL p0D8D              ; 0E25
0E28: C4520E  	        CALL NZ,p0E52           ; 0E28
0E2B: D1      	        POP DE                  ; 0E2B
0E2C: E5      	        PUSH HL                 ; 0E2C
0E2D: 2ADE3D  	        LD HL,(xw3DDE)          ; 0E2D
0E30: EB      	        EX DE,HL                ; 0E30
0E31: 78      	        LD A,B                  ; 0E31
0E32: E603    	        AND 03H                 ; 0E32
0E34: FE03    	        CP 03H                  ; 0E34
0E36: C2440E  	        JP NZ,p0E44             ; 0E36
0E39: 7B      	        LD A,E                  ; 0E39
0E3A: BE      	        CP (HL)                 ; 0E3A
0E3B: C4610E  	        CALL NZ,p0E61           ; 0E3B
0E3E: 23      	        INC HL                  ; 0E3E
0E3F: 7A      	        LD A,D                  ; 0E3F
0E40: BE      	        CP (HL)                 ; 0E40
0E41: C4610E  	        CALL NZ,p0E61           ; 0E41
0E44: D1      	p0E44:  POP DE                  ; 0E44
0E45: 3A113E  	        LD A,(xb3E11)           ; 0E45
0E48: FE20    	        CP 20H                  ; 0E48
0E4A: 2A3F3D  	        LD HL,(xw3D3F)          ; 0E4A
0E4D: 23      	        INC HL                  ; 0E4D
0E4E: CAE90D  	        JP Z,p0DE9              ; 0E4E
0E51: C9      	        RET                     ; 0E51
              	
0E52: 3A303D  	p0E52:  LD A,(xb3D30)           ; 0E52
0E55: B7      	        OR A                    ; 0E55
0E56: C2610E  	        JP NZ,p0E61             ; 0E56
0E59: 2A3F3D  	        LD HL,(xw3D3F)          ; 0E59
0E5C: 7E      	        LD A,(HL)               ; 0E5C
0E5D: B7      	        OR A                    ; 0E5D
0E5E: F2C704  	        JP P,p04C7              ; 0E5E
0E61: E5      	p0E61:  PUSH HL                 ; 0E61
0E62: F5      	        PUSH AF                 ; 0E62
0E63: 2A3F3D  	        LD HL,(xw3D3F)          ; 0E63
0E66: 23      	        INC HL                  ; 0E66
0E67: 7E      	        LD A,(HL)               ; 0E67
0E68: F610    	        OR 10H                  ; 0E68
0E6A: 77      	        LD (HL),A               ; 0E6A
0E6B: 78      	        LD A,B                  ; 0E6B
0E6C: F610    	        OR 10H                  ; 0E6C
0E6E: 47      	        LD B,A                  ; 0E6E
0E6F: F1      	        POP AF                  ; 0E6F
0E70: E1      	        POP HL                  ; 0E70
0E71: C3B504  	        JP p04B5                ; 0E71
              	
0E74: 3EED    	p0E74:  LD A,0EDH               ; 0E74
0E76: CD4C16  	        CALL p164C              ; 0E76
0E79: 79      	p0E79:  LD A,C                  ; 0E79
0E7A: CD4C16  	        CALL p164C              ; 0E7A
0E7D: C3400B  	        JP p0B40                ; 0E7D
              	
0E80: C5      	p0E80:  PUSH BC                 ; 0E80
0E81: CD5A0F  	        CALL p0F5A              ; 0E81
0E84: CD360F  	        CALL p0F36              ; 0E84
0E87: 87      	        ADD A,A                 ; 0E87
0E88: 87      	        ADD A,A                 ; 0E88
0E89: 87      	        ADD A,A                 ; 0E89
0E8A: C1      	        POP BC                  ; 0E8A
0E8B: 81      	        ADD A,C                 ; 0E8B
0E8C: C34C16  	        JP p164C                ; 0E8C
              	
0E8F: C5      	p0E8F:  PUSH BC                 ; 0E8F
0E90: CD5A0F  	        CALL p0F5A              ; 0E90
0E93: CD400F  	        CALL p0F40              ; 0E93
0E96: 87      	        ADD A,A                 ; 0E96
0E97: 87      	        ADD A,A                 ; 0E97
0E98: 87      	        ADD A,A                 ; 0E98
0E99: C1      	        POP BC                  ; 0E99
0E9A: 81      	        ADD A,C                 ; 0E9A
0E9B: C34C16  	        JP p164C                ; 0E9B
              	
0E9E: C5      	p0E9E:  PUSH BC                 ; 0E9E
0E9F: CD5A0F  	        CALL p0F5A              ; 0E9F
0EA2: CD520F  	        CALL p0F52              ; 0EA2
0EA5: C1      	        POP BC                  ; 0EA5
0EA6: 81      	        ADD A,C                 ; 0EA6
0EA7: C34C16  	        JP p164C                ; 0EA7
              	
0EAA: C5      	p0EAA:  PUSH BC                 ; 0EAA
0EAB: CD5A0F  	        CALL p0F5A              ; 0EAB
0EAE: CD520F  	        CALL p0F52              ; 0EAE
0EB1: C1      	        POP BC                  ; 0EB1
0EB2: 87      	        ADD A,A                 ; 0EB2
0EB3: 87      	        ADD A,A                 ; 0EB3
0EB4: 87      	        ADD A,A                 ; 0EB4
0EB5: 81      	        ADD A,C                 ; 0EB5
0EB6: C34C16  	        JP p164C                ; 0EB6
              	
0EB9: 79      	p0EB9:  LD A,C                  ; 0EB9
0EBA: F5      	        PUSH AF                 ; 0EBA
0EBB: CD5A0F  	        CALL p0F5A              ; 0EBB
0EBE: 4F      	        LD C,A                  ; 0EBE
0EBF: F1      	        POP AF                  ; 0EBF
0EC0: CD4C16  	        CALL p164C              ; 0EC0
0EC3: 79      	        LD A,C                  ; 0EC3
0EC4: C3D916  	        JP p16D9                ; 0EC4
              	
0EC7: 79      	p0EC7:  LD A,C                  ; 0EC7
0EC8: F5      	        PUSH AF                 ; 0EC8
0EC9: CD6D2D  	        CALL p2D6D              ; 0EC9
0ECC: F1      	        POP AF                  ; 0ECC
0ECD: CD4C16  	        CALL p164C              ; 0ECD
0ED0: C3D517  	        JP p17D5                ; 0ED0
              	
0ED3: C5      	p0ED3:  PUSH BC                 ; 0ED3
0ED4: CD5A0F  	        CALL p0F5A              ; 0ED4
0ED7: CD520F  	        CALL p0F52              ; 0ED7
0EDA: C1      	        POP BC                  ; 0EDA
0EDB: 87      	        ADD A,A                 ; 0EDB
0EDC: 87      	        ADD A,A                 ; 0EDC
0EDD: 87      	        ADD A,A                 ; 0EDD
0EDE: 81      	        ADD A,C                 ; 0EDE
0EDF: 4F      	        LD C,A                  ; 0EDF
0EE0: C5      	        PUSH BC                 ; 0EE0
0EE1: CD2A0F  	        CALL p0F2A              ; 0EE1
0EE4: CD5A0F  	        CALL p0F5A              ; 0EE4
0EE7: CD520F  	        CALL p0F52              ; 0EE7
0EEA: C1      	        POP BC                  ; 0EEA
0EEB: 81      	        ADD A,C                 ; 0EEB
0EEC: FE76    	        CP 76H                  ; 0EEC
0EEE: CC9D04  	        CALL Z,p049D            ; 0EEE
0EF1: C34C16  	        JP p164C                ; 0EF1
              	
0EF4: C5      	p0EF4:  PUSH BC                 ; 0EF4
0EF5: CD5A0F  	        CALL p0F5A              ; 0EF5
0EF8: CD520F  	        CALL p0F52              ; 0EF8
0EFB: C1      	        POP BC                  ; 0EFB
0EFC: 87      	        ADD A,A                 ; 0EFC
0EFD: 87      	        ADD A,A                 ; 0EFD
0EFE: 87      	        ADD A,A                 ; 0EFE
0EFF: 81      	        ADD A,C                 ; 0EFF
0F00: F5      	        PUSH AF                 ; 0F00
0F01: CD2A0F  	        CALL p0F2A              ; 0F01
0F04: CD5A0F  	        CALL p0F5A              ; 0F04
0F07: 4F      	        LD C,A                  ; 0F07
0F08: F1      	        POP AF                  ; 0F08
0F09: CD4C16  	        CALL p164C              ; 0F09
0F0C: 79      	        LD A,C                  ; 0F0C
0F0D: C3D916  	        JP p16D9                ; 0F0D
              	
0F10: C5      	p0F10:  PUSH BC                 ; 0F10
0F11: CD5A0F  	        CALL p0F5A              ; 0F11
0F14: C1      	        POP BC                  ; 0F14
0F15: CD400F  	        CALL p0F40              ; 0F15
0F18: 87      	        ADD A,A                 ; 0F18
0F19: 87      	        ADD A,A                 ; 0F19
0F1A: 87      	        ADD A,A                 ; 0F1A
0F1B: 81      	        ADD A,C                 ; 0F1B
0F1C: F5      	        PUSH AF                 ; 0F1C
0F1D: CD2A0F  	        CALL p0F2A              ; 0F1D
0F20: CD6D2D  	        CALL p2D6D              ; 0F20
0F23: F1      	        POP AF                  ; 0F23
0F24: CD4C16  	        CALL p164C              ; 0F24
0F27: C3D517  	        JP p17D5                ; 0F27
              	
0F2A: CD360B  	p0F2A:  CALL p0B36              ; 0F2A
0F2D: CDEA0A  	        CALL p0AEA              ; 0F2D
0F30: FE2C    	        CP 2CH                  ; 0F30
0F32: C4C104  	        CALL NZ,p04C1           ; 0F32
0F35: C9      	        RET                     ; 0F35
              	
0F36: B7      	p0F36:  OR A                    ; 0F36
0F37: C8      	        RET Z                   ; 0F37
0F38: FE02    	        CP 02H                  ; 0F38
0F3A: C8      	        RET Z                   ; 0F3A
0F3B: E602    	        AND 02H                 ; 0F3B
0F3D: C39D04  	        JP p049D                ; 0F3D
              	
0F40: FE07    	p0F40:  CP 07H                  ; 0F40
0F42: F5      	        PUSH AF                 ; 0F42
0F43: D24B0F  	        JP NC,p0F4B             ; 0F43
0F46: E601    	        AND 01H                 ; 0F46
0F48: CA4E0F  	        JP Z,p0F4E              ; 0F48
0F4B: CD9D04  	p0F4B:  CALL p049D              ; 0F4B
0F4E: F1      	p0F4E:  POP AF                  ; 0F4E
0F4F: E606    	        AND 06H                 ; 0F4F
0F51: C9      	        RET                     ; 0F51
              	
0F52: FE08    	p0F52:  CP 08H                  ; 0F52
0F54: D8      	        RET C                   ; 0F54
0F55: E607    	        AND 07H                 ; 0F55
0F57: C39D04  	        JP p049D                ; 0F57
              	
0F5A: CD6D2D  	p0F5A:  CALL p2D6D              ; 0F5A
0F5D: 7A      	        LD A,D                  ; 0F5D
0F5E: B7      	        OR A                    ; 0F5E
0F5F: CA660F  	        JP Z,p0F66              ; 0F5F
0F62: 3C      	        INC A                   ; 0F62
0F63: C49D04  	        CALL NZ,p049D           ; 0F63
0F66: 7B      	p0F66:  LD A,E                  ; 0F66
0F67: C9      	        RET                     ; 0F67
              	
0F68: 0600    	p0F68:  LD B,00H                ; 0F68
0F6A: 11      	        DB 11H                  ; 0F6A (LD DE,CB06H)
0F6B: 06CB    	p0F6B:  LD B,0CBH               ; 0F6B
0F6D: 11      	        DB 11H                  ; 0F6D (LD DE,ED06H)
0F6E: 06ED    	p0F6E:  LD B,0EDH               ; 0F6E
0F70: 59      	        LD E,C                  ; 0F70
0F71: 1600    	        LD D,00H                ; 0F71
0F73: 21840A  	        LD HL,xt0A84            ; 0F73
0F76: 19      	        ADD HL,DE               ; 0F76
0F77: 5E      	        LD E,(HL)               ; 0F77
0F78: 23      	        INC HL                  ; 0F78
0F79: 4E      	        LD C,(HL)               ; 0F79
0F7A: 21C60A  	        LD HL,xt0AC6            ; 0F7A Table start
0F7D: 19      	        ADD HL,DE               ; 0F7D
0F7E: 5E      	        LD E,(HL)               ; 0F7E
0F7F: 23      	        INC HL                  ; 0F7F
0F80: 56      	        LD D,(HL)               ; 0F80
0F81: EB      	        EX DE,HL                ; 0F81
0F82: E9      	        JP (HL)                 ; 0F82
              	
0F83: C5      	p0F83:  PUSH BC                 ; 0F83
0F84: CD5A0F  	        CALL p0F5A              ; 0F84
0F87: FE03    	        CP 03H                  ; 0F87
0F89: D49D04  	        CALL NC,p049D           ; 0F89
0F8C: CD4216  	        CALL p1642              ; 0F8C
0F8F: C1      	        POP BC                  ; 0F8F
0F90: 78      	        LD A,B                  ; 0F90
0F91: CD4C16  	        CALL p164C              ; 0F91
0F94: 7B      	        LD A,E                  ; 0F94
0F95: FE01    	        CP 01H                  ; 0F95
0F97: 3F      	        CCF                     ; 0F97
0F98: CE00    	        ADC A,00H               ; 0F98
0F9A: E603    	        AND 03H                 ; 0F9A
0F9C: 87      	p0F9C:  ADD A,A                 ; 0F9C
0F9D: 87      	        ADD A,A                 ; 0F9D
0F9E: 87      	        ADD A,A                 ; 0F9E
0F9F: 81      	        ADD A,C                 ; 0F9F
0FA0: C34C16  	        JP p164C                ; 0FA0
              	
0FA3: C5      	p0FA3:  PUSH BC                 ; 0FA3
0FA4: CD5A0F  	        CALL p0F5A              ; 0FA4
0FA7: E638    	        AND 38H                 ; 0FA7
0FA9: BB      	        CP E                    ; 0FA9
0FAA: C49D04  	        CALL NZ,p049D           ; 0FAA
0FAD: CD4216  	        CALL p1642              ; 0FAD
0FB0: C1      	        POP BC                  ; 0FB0
0FB1: 81      	        ADD A,C                 ; 0FB1
0FB2: C34C16  	        JP p164C                ; 0FB2
              	
0FB5: C5      	p0FB5:  PUSH BC                 ; 0FB5
0FB6: CD4E11  	        CALL p114E              ; 0FB6
0FB9: DC9D04  	        CALL C,p049D            ; 0FB9
0FBC: E608    	        AND 08H                 ; 0FBC
0FBE: C4F10F  	        CALL NZ,p0FF1           ; 0FBE
0FC1: C1      	        POP BC                  ; 0FC1
0FC2: CD6311  	        CALL p1163              ; 0FC2
0FC5: 3AE83C  	        LD A,(xb3CE8)           ; 0FC5
0FC8: E606    	        AND 06H                 ; 0FC8
0FCA: C39C0F  	        JP p0F9C                ; 0FCA
              	
0FCD: CD8320  	p0FCD:  CALL p2083              ; 0FCD
0FD0: 3AC23E  	        LD A,(xb3EC2)           ; 0FD0
0FD3: B7      	        OR A                    ; 0FD3
0FD4: C2EC0F  	        JP NZ,p0FEC             ; 0FD4
0FD7: CD4811  	        CALL p1148              ; 0FD7
0FDA: 3AE73C  	        LD A,(xb3CE7)           ; 0FDA
0FDD: FE30    	        CP 30H                  ; 0FDD
0FDF: C40110  	        CALL NZ,p1001           ; 0FDF
0FE2: 3AE83C  	        LD A,(xb3CE8)           ; 0FE2
0FE5: E607    	        AND 07H                 ; 0FE5
0FE7: 0EC0    	        LD C,0C0H               ; 0FE7
0FE9: C39C0F  	        JP p0F9C                ; 0FE9
              	
0FEC: 3EC9    	p0FEC:  LD A,0C9H               ; 0FEC
0FEE: C34C16  	        JP p164C                ; 0FEE
              	
0FF1: 3AE83C  	p0FF1:  LD A,(xb3CE8)            ; 0FF1
0FF4: E620    	        AND 20H                 ; 0FF4
0FF6: C6DD    	        ADD A,0DDH              ; 0FF6
0FF8: CD4C16  	        CALL p164C              ; 0FF8
0FFB: 3E04    	        LD A,04H                ; 0FFB
0FFD: 32E83C  	        LD (xb3CE8),A           ; 0FFD
1000: C9      	        RET                     ; 1000
              	
1001: FE10    	p1001:  CP 10H                  ; 1001
1003: C29D04  	        JP NZ,p049D             ; 1003
1006: 3AE83C  	        LD A,(xb3CE8)           ; 1006
1009: 3C      	        INC A                   ; 1009
100A: FE02    	        CP 02H                  ; 100A
100C: CA1510  	        JP Z,p1015              ; 100C
100F: 3D      	        DEC A                   ; 100F
1010: FE06    	        CP 06H                  ; 1010
1012: C29D04  	        JP NZ,p049D             ; 1012
1015: 3C      	p1015:  INC A                   ; 1015
1016: 32E83C  	        LD (xb3CE8),A           ; 1016
1019: C9      	        RET                     ; 1019
              	
101A: C5      	p101A:  PUSH BC                 ; 101A
101B: AF      	        XOR A                   ; 101B
101C: 32E93C  	        LD (xb3CE9),A           ; 101C
101F: CDC80B  	        CALL p0BC8              ; 101F
1022: CD360B  	        CALL p0B36              ; 1022
1025: FE28    	        CP 28H                  ; 1025
1027: C22D10  	        JP NZ,p102D             ; 1027
102A: 32E93C  	        LD (xb3CE9),A           ; 102A
102D: CD6D2D  	p102D:  CALL p2D6D              ; 102D
1030: 79      	        LD A,C                  ; 1030
1031: D62C    	        SUB 2CH                 ; 1031
1033: C1      	        POP BC                  ; 1033
1034: B7      	        OR A                    ; 1034
1035: C0      	        RET NZ                  ; 1035
1036: CD4811  	        CALL p1148              ; 1036
1039: 3AE73C  	        LD A,(xb3CE7)           ; 1039
103C: FE30    	        CP 30H                  ; 103C
103E: C40110  	        CALL NZ,p1001           ; 103E
1041: 37      	        SCF                     ; 1041
1042: C9      	        RET                     ; 1042
              	
1043: CD1A10  	p1043:  CALL p101A              ; 1043
1046: D25D10  	        JP NC,p105D             ; 1046
1049: 0EC4    	        LD C,0C4H               ; 1049
104B: 3AE83C  	p104B:  LD A,(xb3CE8)           ; 104B
104E: 87      	        ADD A,A                 ; 104E
104F: 87      	        ADD A,A                 ; 104F
1050: 87      	        ADD A,A                 ; 1050
1051: E638    	        AND 38H                 ; 1051
1053: 81      	        ADD A,C                 ; 1053
1054: 4F      	        LD C,A                  ; 1054
1055: C5      	        PUSH BC                 ; 1055
1056: CD6D2D  	        CALL p2D6D              ; 1056
1059: CD4216  	        CALL p1642              ; 1059
105C: C1      	        POP BC                  ; 105C
105D: 79      	p105D:  LD A,C                  ; 105D
105E: CD4C16  	        CALL p164C              ; 105E
1061: C3D517  	        JP p17D5                ; 1061
              	
1064: CD1A10  	p1064:  CALL p101A              ; 1064
1067: DA8B10  	        JP C,p108B              ; 1067
106A: 3AE73C  	        LD A,(xb3CE7)           ; 106A
106D: FE20    	        CP 20H                  ; 106D
106F: 3F      	        CCF                     ; 106F
1070: D25D10  	        JP NC,p105D             ; 1070
1073: FE28    	        CP 28H                  ; 1073
1075: CCF10F  	        CALL Z,p0FF1            ; 1075
1078: CD5B11  	        CALL p115B              ; 1078
107B: 3AE83C  	        LD A,(xb3CE8)           ; 107B
107E: FE04    	        CP 04H                  ; 107E
1080: C49D04  	        CALL NZ,p049D           ; 1080
1083: CD4811  	        CALL p1148              ; 1083
1086: 3EE9    	        LD A,0E9H               ; 1086
1088: C34C16  	        JP p164C                ; 1088
              	
108B: 0EC2    	p108B:  LD C,0C2H               ; 108B
108D: C34B10  	        JP p104B                ; 108D
              	
1090: CD1A10  	p1090:  CALL p101A              ; 1090
1093: D2AB10  	        JP NC,p10AB             ; 1093
1096: 3AE83C  	        LD A,(xb3CE8)           ; 1096
1099: FE04    	        CP 04H                  ; 1099
109B: D49D04  	        CALL NC,p049D           ; 109B
109E: E603    	        AND 03H                 ; 109E
10A0: 87      	        ADD A,A                 ; 10A0
10A1: 87      	        ADD A,A                 ; 10A1
10A2: 87      	        ADD A,A                 ; 10A2
10A3: C620    	        ADD A,20H               ; 10A3
10A5: 4F      	        LD C,A                  ; 10A5
10A6: C5      	        PUSH BC                 ; 10A6
10A7: CD6D2D  	        CALL p2D6D              ; 10A7
10AA: C1      	        POP BC                  ; 10AA
10AB: CDB710  	p10AB:  CALL p10B7              ; 10AB
10AE: 79      	        LD A,C                  ; 10AE
10AF: 48      	        LD C,B                  ; 10AF
10B0: CD4C16  	        CALL p164C              ; 10B0
10B3: 79      	        LD A,C                  ; 10B3
10B4: C34C16  	        JP p164C                ; 10B4
              	
10B7: 3AC13E  	p10B7:  LD A,(xb3EC1)           ; 10B7
10BA: 47      	        LD B,A                  ; 10BA
10BB: E680    	        AND 80H                 ; 10BB
10BD: C2AF04  	        JP NZ,p04AF             ; 10BD
10C0: CD4216  	        CALL p1642              ; 10C0
10C3: 78      	        LD A,B                  ; 10C3
10C4: E603    	        AND 03H                 ; 10C4
10C6: 47      	        LD B,A                  ; 10C6
10C7: CD6A1B  	        CALL p1B6A              ; 10C7
10CA: B8      	        CP B                    ; 10CA
10CB: C2D304  	        JP NZ,p04D3             ; 10CB
10CE: FE03    	        CP 03H                  ; 10CE
10D0: C2E210  	        JP NZ,p10E2             ; 10D0
10D3: D5      	        PUSH DE                 ; 10D3
10D4: 2ADA3D  	        LD HL,(xw3DDA)          ; 10D4
10D7: EB      	        EX DE,HL                ; 10D7
10D8: 2ADE3D  	        LD HL,(xw3DDE)          ; 10D8
10DB: CD8D0D  	        CALL p0D8D              ; 10DB
10DE: D1      	        POP DE                  ; 10DE
10DF: C2D304  	        JP NZ,p04D3             ; 10DF
10E2: CD6A1B  	p10E2:  CALL p1B6A              ; 10E2
10E5: 23      	        INC HL                  ; 10E5
10E6: 23      	        INC HL                  ; 10E6
10E7: EB      	        EX DE,HL                ; 10E7
10E8: CD5439  	        CALL p3954              ; 10E8
10EB: 7A      	        LD A,D                  ; 10EB
10EC: B7      	        OR A                    ; 10EC
10ED: 43      	        LD B,E                  ; 10ED
10EE: CAFB10  	        JP Z,p10FB              ; 10EE
10F1: 3C      	        INC A                   ; 10F1
10F2: C29D04  	        JP NZ,p049D             ; 10F2
10F5: 78      	        LD A,B                  ; 10F5
10F6: B7      	        OR A                    ; 10F6
10F7: F29D04  	        JP P,p049D              ; 10F7
10FA: C9      	        RET                     ; 10FA
              	
10FB: 78      	p10FB:  LD A,B                  ; 10FB
10FC: B7      	        OR A                    ; 10FC
10FD: FA9D04  	        JP M,p049D              ; 10FD
1100: C9      	        RET                     ; 1100
              	
1101: C5      	p1101:  PUSH BC                 ; 1101
1102: CD6D2D  	        CALL p2D6D              ; 1102
1105: C1      	        POP BC                  ; 1105
1106: C3AB10  	        JP p10AB                ; 1106
              	
1109: CD2A0F  	p1109:  CALL p0F2A              ; 1109
110C: C5      	p110C:  PUSH BC                 ; 110C
110D: AF      	        XOR A                   ; 110D
110E: 32E93C  	        LD (xb3CE9),A           ; 110E
1111: CDC80B  	        CALL p0BC8              ; 1111
1114: CD360B  	        CALL p0B36              ; 1114
1117: FE28    	        CP 28H                  ; 1117
1119: C21F11  	        JP NZ,p111F             ; 1119
111C: 32E93C  	        LD (xb3CE9),A           ; 111C
111F: CD6D2D  	p111F:  CALL p2D6D              ; 111F
1122: C1      	        POP BC                  ; 1122
1123: 3AE73C  	        LD A,(xb3CE7)           ; 1123
1126: B7      	        OR A                    ; 1126
1127: C8      	        RET Z                   ; 1127
1128: FE30    	        CP 30H                  ; 1128
112A: CC9D04  	        CALL Z,p049D            ; 112A
112D: 6F      	        LD L,A                  ; 112D
112E: 3AE93C  	        LD A,(xb3CE9)           ; 112E
1131: B7      	        OR A                    ; 1131
1132: 7D      	        LD A,L                  ; 1132
1133: CA4811  	        JP Z,p1148              ; 1133
1136: FE28    	        CP 28H                  ; 1136
1138: C24811  	        JP NZ,p1148             ; 1138
113B: 7A      	p113B:  LD A,D                  ; 113B
113C: B7      	        OR A                    ; 113C
113D: CA4D11  	        JP Z,p114D              ; 113D
1140: 3C      	        INC A                   ; 1140
1141: 57      	        LD D,A                  ; 1141
1142: CA4D11  	        JP Z,p114D              ; 1142
1145: CD9D04  	        CALL p049D              ; 1145
1148: 7A      	p1148:  LD A,D                  ; 1148
1149: B3      	        OR E                    ; 1149
114A: C49D04  	        CALL NZ,p049D           ; 114A
114D: C9      	p114D:  RET                     ; 114D
              	
114E: CD0C11  	p114E:  CALL p110C              ; 114E
1151: 3AE73C  	        LD A,(xb3CE7)           ; 1151
1154: B7      	        OR A                    ; 1154
1155: CA9D04  	        JP Z,p049D              ; 1155
1158: FE20    	        CP 20H                  ; 1158
115A: C9      	        RET                     ; 115A
              	
115B: 3AE93C  	p115B:  LD A,(xb3CE9)           ; 115B
115E: B7      	        OR A                    ; 115E
115F: CC9D04  	        CALL Z,p049D            ; 115F
1162: C9      	        RET                     ; 1162
              	
1163: 3AE93C  	p1163:  LD A,(xb3CE9)           ; 1163
1166: B7      	        OR A                    ; 1166
1167: C49D04  	        CALL NZ,p049D           ; 1167
116A: C9      	        RET                     ; 116A
              	
116B: CD0C11  	p116B:  CALL p110C              ; 116B
116E: 3AE73C  	p116E:  LD A,(xb3CE7)           ; 116E
1171: FE10    	        CP 10H                  ; 1171
1173: C0      	        RET NZ                  ; 1173
1174: 3AE83C  	        LD A,(xb3CE8)           ; 1174
1177: FE08    	        CP 08H                  ; 1177
1179: D8      	        RET C                   ; 1179
117A: C39D04  	        JP p049D                ; 117A
              	
117D: CD6B11  	p117D:  CALL p116B              ; 117D
1180: CD2A0F  	        CALL p0F2A              ; 1180
1183: CD5B11  	        CALL p115B              ; 1183
1186: 3AE73C  	        LD A,(xb3CE7)           ; 1186
1189: FE10    	        CP 10H                  ; 1189
118B: CAAF11  	        JP Z,p11AF              ; 118B
118E: B7      	        OR A                    ; 118E
118F: C49D04  	        CALL NZ,p049D           ; 118F
1192: CD3B11  	        CALL p113B              ; 1192
1195: 3ED3    	        LD A,0D3H               ; 1195
1197: CD4C16  	        CALL p164C              ; 1197
119A: 7B      	        LD A,E                  ; 119A
119B: CDD916  	        CALL p16D9              ; 119B
119E: CD4E11  	        CALL p114E              ; 119E
11A1: D49D04  	        CALL NC,p049D           ; 11A1
11A4: 3AE83C  	        LD A,(xb3CE8)           ; 11A4
11A7: FE07    	        CP 07H                  ; 11A7
11A9: C49D04  	        CALL NZ,p049D           ; 11A9
11AC: C36311  	        JP p1163                ; 11AC
              	
11AF: 3AE83C  	p11AF:  LD A,(xb3CE8)           ; 11AF
11B2: 3D      	        DEC A                   ; 11B2
11B3: C49D04  	        CALL NZ,p049D           ; 11B3
11B6: CD4E11  	        CALL p114E              ; 11B6
11B9: D49D04  	        CALL NC,p049D           ; 11B9
11BC: CD6311  	        CALL p1163              ; 11BC
11BF: 3EED    	        LD A,0EDH               ; 11BF
11C1: CD4C16  	        CALL p164C              ; 11C1
11C4: CD6311  	        CALL p1163              ; 11C4
11C7: CD6E11  	        CALL p116E              ; 11C7
11CA: 0E41    	        LD C,41H                ; 11CA
11CC: C39C0F  	        JP p0F9C                ; 11CC
              	
11CF: CD4E11  	p11CF:  CALL p114E              ; 11CF
11D2: D49D04  	        CALL NC,p049D           ; 11D2
11D5: CD6311  	        CALL p1163              ; 11D5
11D8: CD6E11  	        CALL p116E              ; 11D8
11DB: F5      	        PUSH AF                 ; 11DB
11DC: CD0911  	        CALL p1109              ; 11DC
11DF: CD5B11  	        CALL p115B              ; 11DF
11E2: 3AE73C  	        LD A,(xb3CE7)           ; 11E2
11E5: FE10    	        CP 10H                  ; 11E5
11E7: CA0012  	        JP Z,p1200              ; 11E7
11EA: B7      	        OR A                    ; 11EA
11EB: C49D04  	        CALL NZ,p049D           ; 11EB
11EE: 3EDB    	        LD A,0DBH               ; 11EE
11F0: CD4C16  	        CALL p164C              ; 11F0
11F3: F1      	        POP AF                  ; 11F3
11F4: FE07    	        CP 07H                  ; 11F4
11F6: C49D04  	        CALL NZ,p049D           ; 11F6
11F9: CD3B11  	        CALL p113B              ; 11F9
11FC: 7B      	        LD A,E                  ; 11FC
11FD: C3D916  	        JP p16D9                ; 11FD
              	
1200: 3AE83C  	p1200:  LD A,(xb3CE8)           ; 1200
1203: 3D      	        DEC A                   ; 1203
1204: C49D04  	        CALL NZ,p049D           ; 1204
1207: 3EED    	        LD A,0EDH               ; 1207
1209: CD4C16  	        CALL p164C              ; 1209
120C: F1      	        POP AF                  ; 120C
120D: 0E40    	        LD C,40H                ; 120D
120F: C39C0F  	        JP p0F9C                ; 120F
              	
1212: CD4E11  	p1212:  CALL p114E              ; 1212
1215: DC9D04  	        CALL C,p049D            ; 1215
1218: CD2A0F  	        CALL p0F2A              ; 1218
121B: CD6520  	        CALL p2065              ; 121B
121E: CA5212  	        JP Z,p1252              ; 121E
1221: 3AE83C  	        LD A,(xb3CE8)           ; 1221
1224: FE02    	        CP 02H                  ; 1224
1226: CA6612  	        JP Z,p1266              ; 1226
1229: FE06    	        CP 06H                  ; 1229
122B: C49D04  	        CALL NZ,p049D           ; 122B
122E: CD5B11  	        CALL p115B              ; 122E
1231: CD4E11  	        CALL p114E              ; 1231
1234: DC9D04  	        CALL C,p049D            ; 1234
1237: CD6311  	        CALL p1163              ; 1237
123A: CD4811  	        CALL p1148              ; 123A
123D: 3AE73C  	        LD A,(xb3CE7)           ; 123D
1240: FE28    	        CP 28H                  ; 1240
1242: CCF10F  	        CALL Z,p0FF1            ; 1242
1245: 3AE83C  	        LD A,(xb3CE8)           ; 1245
1248: FE04    	        CP 04H                  ; 1248
124A: C49D04  	        CALL NZ,p049D           ; 124A
124D: 3EE3    	        LD A,0E3H               ; 124D
124F: C34C16  	        JP p164C                ; 124F
              	
1252: CD6311  	p1252:  CALL p1163              ; 1252
1255: CD4E11  	        CALL p114E              ; 1255
1258: DC9D04  	        CALL C,p049D            ; 1258
125B: CD6520  	        CALL p2065              ; 125B
125E: C49D04  	        CALL NZ,p049D           ; 125E
1261: 3E08    	        LD A,08H                ; 1261
1263: C34C16  	        JP p164C                ; 1263
              	
1266: CD6311  	p1266:  CALL p1163              ; 1266
1269: CD4E11  	        CALL p114E              ; 1269
126C: DC9D04  	        CALL C,p049D            ; 126C
126F: 3AE73C  	        LD A,(xb3CE7)           ; 126F
1272: FE20    	        CP 20H                  ; 1272
1274: C49D04  	        CALL NZ,p049D           ; 1274
1277: 3AE83C  	        LD A,(xb3CE8)           ; 1277
127A: FE04    	        CP 04H                  ; 127A
127C: C49D04  	        CALL NZ,p049D           ; 127C
127F: 3EEB    	        LD A,0EBH               ; 127F
1281: C34C16  	        JP p164C                ; 1281
              	
1284: C5      	p1284:  PUSH BC                 ; 1284
1285: CD5A0F  	        CALL p0F5A              ; 1285
1288: FE08    	        CP 08H                  ; 1288
128A: D49D04  	        CALL NC,p049D           ; 128A
128D: E607    	        AND 07H                 ; 128D
128F: 87      	        ADD A,A                 ; 128F
1290: 87      	        ADD A,A                 ; 1290
1291: 87      	        ADD A,A                 ; 1291
1292: C1      	        POP BC                  ; 1292
1293: 81      	        ADD A,C                 ; 1293
1294: 4F      	        LD C,A                  ; 1294
1295: CD2A0F  	        CALL p0F2A              ; 1295
1298: CD6B11  	p1298:  CALL p116B              ; 1298
129B: F6      	        DB 0F6H                 ; 129B (OR 37H)      
129C: 37      	p129C:  SCF                     ; 129C
129D: F5      	        PUSH AF                 ; 129D
129E: 3AE73C  	        LD A,(xb3CE7)           ; 129E
12A1: FE28    	        CP 28H                  ; 12A1
12A3: F5      	        PUSH AF                 ; 12A3
12A4: CCF10F  	        CALL Z,p0FF1            ; 12A4
12A7: E1      	        POP HL                  ; 12A7
12A8: F1      	        POP AF                  ; 12A8
12A9: E5      	        PUSH HL                 ; 12A9
12AA: F5      	        PUSH AF                 ; 12AA
12AB: 3ECB    	        LD A,0CBH               ; 12AB
12AD: D44C16  	        CALL NC,p164C           ; 12AD
12B0: F1      	        POP AF                  ; 12B0
12B1: DABA12  	        JP C,p12BA              ; 12B1
12B4: F1      	        POP AF                  ; 12B4
12B5: 7B      	        LD A,E                  ; 12B5
12B6: CCD916  	        CALL Z,p16D9            ; 12B6
12B9: F5      	        PUSH AF                 ; 12B9
12BA: F5      	p12BA:  PUSH AF                 ; 12BA
12BB: 3AE73C  	        LD A,(xb3CE7)           ; 12BB
12BE: B7      	        OR A                    ; 12BE
12BF: CC9D04  	        CALL Z,p049D            ; 12BF
12C2: E620    	        AND 20H                 ; 12C2
12C4: 3AE83C  	        LD A,(xb3CE8)           ; 12C4
12C7: C2D412  	        JP NZ,p12D4             ; 12C7
12CA: 81      	        ADD A,C                 ; 12CA
12CB: CD4C16  	        CALL p164C              ; 12CB
12CE: CD6311  	        CALL p1163              ; 12CE
12D1: F1      	        POP AF                  ; 12D1
12D2: F1      	        POP AF                  ; 12D2
12D3: C9      	        RET                     ; 12D3
              	
12D4: FE04    	p12D4:  CP 04H                  ; 12D4
12D6: C49D04  	        CALL NZ,p049D           ; 12D6
12D9: 3E06    	        LD A,06H                ; 12D9
12DB: 81      	        ADD A,C                 ; 12DB
12DC: CD4C16  	        CALL p164C              ; 12DC
12DF: CD5B11  	        CALL p115B              ; 12DF
12E2: F1      	        POP AF                  ; 12E2
12E3: D2C718  	        JP NC,p18C7             ; 12E3
12E6: C32F13  	        JP p132F                ; 12E6
              	
12E9: CD6B11  	p12E9:  CALL p116B              ; 12E9
12EC: 3AE73C  	        LD A,(xb3CE7)           ; 12EC
12EF: B7      	        OR A                    ; 12EF
12F0: CC9D04  	        CALL Z,p049D            ; 12F0
12F3: FE10    	        CP 10H                  ; 12F3
12F5: CA2213  	        JP Z,p1322              ; 12F5
12F8: FE28    	        CP 28H                  ; 12F8
12FA: F5      	        PUSH AF                 ; 12FA
12FB: CCF10F  	        CALL Z,p0FF1            ; 12FB
12FE: 3AE83C  	        LD A,(xb3CE8)           ; 12FE
1301: FE04    	        CP 04H                  ; 1301
1303: C20D13  	        JP NZ,p130D             ; 1303
1306: 3AE93C  	        LD A,(xb3CE9)           ; 1306
1309: B7      	        OR A                    ; 1309
130A: C22A13  	        JP NZ,p132A             ; 130A
130D: CD6311  	p130D:  CALL p1163              ; 130D
1310: F1      	        POP AF                  ; 1310
1311: 79      	        LD A,C                  ; 1311
1312: 0D      	        DEC C                   ; 1312
1313: FE05    	        CP 05H                  ; 1313
1315: C21A13  	        JP NZ,p131A             ; 1315
1318: 0E0B    	        LD C,0BH                ; 1318
131A: 3AE83C  	p131A:  LD A,(xb3CE8)           ; 131A
131D: E606    	        AND 06H                 ; 131D
131F: C39C0F  	        JP p0F9C                ; 131F
              	
1322: 3AE83C  	p1322:  LD A,(xb3CE8)           ; 1322
1325: E607    	p1325:  AND 07H                 ; 1325
1327: C39C0F  	        JP p0F9C                ; 1327
              	
132A: 3E06    	p132A:  LD A,06H                ; 132A
132C: CD2513  	        CALL p1325              ; 132C
132F: F1      	p132F:  POP AF                  ; 132F
1330: 7B      	        LD A,E                  ; 1330
1331: CCD916  	        CALL Z,p16D9            ; 1331
1334: C9      	        RET                     ; 1334
              	
1335: CD0C11  	p1335:  CALL p110C              ; 1335
1338: 3AE73C  	        LD A,(xb3CE7)           ; 1338
133B: B7      	        OR A                    ; 133B
133C: CA6913  	        JP Z,p1369              ; 133C
133F: FE10    	        CP 10H                  ; 133F
1341: CA6013  	        JP Z,p1360              ; 1341
1344: FE28    	        CP 28H                  ; 1344
1346: F5      	        PUSH AF                 ; 1346
1347: CCF10F  	        CALL Z,p0FF1            ; 1347
134A: CD5B11  	        CALL p115B              ; 134A
134D: 3AE83C  	        LD A,(xb3CE8)           ; 134D
1350: E607    	        AND 07H                 ; 1350
1352: FE04    	        CP 04H                  ; 1352
1354: C49D04  	        CALL NZ,p049D           ; 1354
1357: 3E06    	        LD A,06H                ; 1357
1359: 81      	        ADD A,C                 ; 1359
135A: CD4C16  	        CALL p164C              ; 135A
135D: C32F13  	        JP p132F                ; 135D
              	
1360: 3AE83C  	p1360:  LD A,(xb3CE8)           ; 1360
1363: E607    	        AND 07H                 ; 1363
1365: 81      	        ADD A,C                 ; 1365
1366: C34C16  	        JP p164C                ; 1366
              	
1369: 3E46    	p1369:  LD A,46H                ; 1369
136B: 81      	        ADD A,C                 ; 136B
136C: CD4C16  	        CALL p164C              ; 136C
136F: CD3B11  	        CALL p113B              ; 136F
1372: 7B      	        LD A,E                  ; 1372
1373: C3D916  	        JP p16D9                ; 1373
              	
1376: CD4E11  	p1376:  CALL p114E              ; 1376
1379: CD2A0F  	        CALL p0F2A              ; 1379
137C: CD6311  	        CALL p1163              ; 137C
137F: 3AE73C  	        LD A,(xb3CE7)           ; 137F
1382: FE10    	        CP 10H                  ; 1382
1384: CAB413  	        JP Z,p13B4              ; 1384
1387: FE20    	        CP 20H                  ; 1387
1389: C49D04  	        CALL NZ,p049D           ; 1389
138C: 3AE83C  	        LD A,(xb3CE8)           ; 138C
138F: FE04    	        CP 04H                  ; 138F
1391: C49D04  	        CALL NZ,p049D           ; 1391
1394: 3EED    	        LD A,0EDH               ; 1394
1396: CD4C16  	        CALL p164C              ; 1396
1399: 79      	        LD A,C                  ; 1399
139A: EE10    	        XOR 10H                 ; 139A
139C: 1F      	        RRA                     ; 139C
139D: E608    	        AND 08H                 ; 139D
139F: C642    	        ADD A,42H               ; 139F
13A1: 4F      	        LD C,A                  ; 13A1
13A2: CD4E11  	p13A2:  CALL p114E              ; 13A2
13A5: C49D04  	        CALL NZ,p049D           ; 13A5
13A8: CD6520  	        CALL p2065              ; 13A8
13AB: CC9D04  	        CALL Z,p049D            ; 13AB
13AE: CD6311  	        CALL p1163              ; 13AE
13B1: C31A13  	        JP p131A                ; 13B1
              	
13B4: 3AE83C  	p13B4:  LD A,(xb3CE8)           ; 13B4
13B7: FE07    	        CP 07H                  ; 13B7
13B9: C49D04  	        CALL NZ,p049D           ; 13B9
13BC: C33513  	        JP p1335                ; 13BC
              	
13BF: CD4E11  	p13BF:  CALL p114E              ; 13BF
13C2: CD2A0F  	        CALL p0F2A              ; 13C2
13C5: CD6311  	        CALL p1163              ; 13C5
13C8: 3AE73C  	        LD A,(xb3CE7)           ; 13C8
13CB: FE10    	        CP 10H                  ; 13CB
13CD: CAB413  	        JP Z,p13B4              ; 13CD
13D0: FE28    	        CP 28H                  ; 13D0
13D2: CAE213  	        JP Z,p13E2              ; 13D2
13D5: 3AE83C  	        LD A,(xb3CE8)           ; 13D5
13D8: FE04    	        CP 04H                  ; 13D8
13DA: C49D04  	        CALL NZ,p049D           ; 13DA
13DD: 0E09    	        LD C,09H                ; 13DD
13DF: C3A213  	        JP p13A2                ; 13DF
              	
13E2: 3AE83C  	p13E2:  LD A,(xb3CE8)           ; 13E2
13E5: F5      	        PUSH AF                 ; 13E5
13E6: CDF10F  	        CALL p0FF1              ; 13E6
13E9: CD4E11  	        CALL p114E              ; 13E9
13EC: DC9D04  	        CALL C,p049D            ; 13EC
13EF: F5      	        PUSH AF                 ; 13EF
13F0: CD6520  	        CALL p2065              ; 13F0
13F3: CC9D04  	        CALL Z,p049D            ; 13F3
13F6: CD6311  	        CALL p1163              ; 13F6
13F9: 3AE83C  	        LD A,(xb3CE8)           ; 13F9
13FC: FE04    	        CP 04H                  ; 13FC
13FE: CC9D04  	        CALL Z,p049D            ; 13FE
1401: 47      	        LD B,A                  ; 1401
1402: F1      	        POP AF                  ; 1402
1403: 78      	        LD A,B                  ; 1403
1404: CA0F14  	        JP Z,p140F              ; 1404
1407: F1      	        POP AF                  ; 1407
1408: B8      	        CP B                    ; 1408
1409: C49D04  	        CALL NZ,p049D           ; 1409
140C: 3E04    	        LD A,04H                ; 140C
140E: F5      	        PUSH AF                 ; 140E
140F: C1      	p140F:  POP BC                  ; 140F
1410: E606    	        AND 06H                 ; 1410
1412: 0E09    	        LD C,09H                ; 1412
1414: C39C0F  	        JP p0F9C                ; 1414
              	
1417: 3AE73C  	p1417:  LD A,(xb3CE7)           ; 1417
141A: FE10    	        CP 10H                  ; 141A
141C: C49D04  	        CALL NZ,p049D           ; 141C
141F: C9      	        RET                     ; 141F
              	
1420: CD0C11  	p1420:  CALL p110C              ; 1420
1423: 3AE73C  	        LD A,(xb3CE7)           ; 1423
1426: B7      	        OR A                    ; 1426
1427: CA5B14  	        JP Z,p145B              ; 1427
142A: FE10    	        CP 10H                  ; 142A
142C: CA3415  	        JP Z,p1534              ; 142C
142F: 3AE93C  	        LD A,(xb3CE9)           ; 142F
1432: B7      	        OR A                    ; 1432
1433: CAC114  	        JP Z,p14C1              ; 1433
1436: 3AE83C  	        LD A,(xb3CE8)           ; 1436
1439: E606    	        AND 06H                 ; 1439
143B: FE04    	        CP 04H                  ; 143B
143D: CA9915  	        JP Z,p1599              ; 143D
1440: D49D04  	        CALL NC,p049D           ; 1440
1443: F5      	        PUSH AF                 ; 1443
1444: CD0C11  	        CALL p110C              ; 1444
1447: CD6311  	        CALL p1163              ; 1447
144A: CD1714  	        CALL p1417              ; 144A
144D: 3AE83C  	        LD A,(xb3CE8)           ; 144D
1450: FE07    	        CP 07H                  ; 1450
1452: C49D04  	        CALL NZ,p049D           ; 1452
1455: 0E02    	        LD C,02H                ; 1455
1457: F1      	        POP AF                  ; 1457
1458: C39C0F  	        JP p0F9C                ; 1458
              	
145B: D5      	p145B:  PUSH DE                 ; 145B
145C: CD2816  	        CALL p1628              ; 145C
145F: CD5B11  	        CALL p115B              ; 145F
1462: 3ABD3E  	        LD A,(xb3EBD)           ; 1462
1465: F5      	        PUSH AF                 ; 1465
1466: 3AC13E  	        LD A,(xb3EC1)           ; 1466
1469: F5      	        PUSH AF                 ; 1469
146A: CD0911  	        CALL p1109              ; 146A
146D: CD6311  	        CALL p1163              ; 146D
1470: 3AE73C  	        LD A,(xb3CE7)           ; 1470
1473: B7      	        OR A                    ; 1473
1474: CC9D04  	        CALL Z,p049D            ; 1474
1477: FE20    	        CP 20H                  ; 1477
1479: DAB114  	        JP C,p14B1              ; 1479
147C: 3AE83C  	        LD A,(xb3CE8)           ; 147C
147F: 4F      	        LD C,A                  ; 147F
1480: E606    	        AND 06H                 ; 1480
1482: FE04    	        CP 04H                  ; 1482
1484: CAA114  	        JP Z,p14A1              ; 1484
1487: 3EED    	        LD A,0EDH               ; 1487
1489: CD4C16  	        CALL p164C              ; 1489
148C: 79      	        LD A,C                  ; 148C
148D: 0E43    	        LD C,43H                ; 148D
148F: CD9C0F  	        CALL p0F9C              ; 148F
1492: CD2816  	p1492:  CALL p1628              ; 1492
1495: F1      	        POP AF                  ; 1495
1496: 32C13E  	        LD (xb3EC1),A           ; 1496
1499: F1      	        POP AF                  ; 1499
149A: 32BD3E  	        LD (xb3EBD),A           ; 149A
149D: D1      	        POP DE                  ; 149D
149E: C3D517  	        JP p17D5                ; 149E
              	
14A1: 3AE73C  	p14A1:  LD A,(xb3CE7)           ; 14A1
14A4: FE28    	        CP 28H                  ; 14A4
14A6: CCF10F  	        CALL Z,p0FF1            ; 14A6
14A9: 3E22    	        LD A,22H                ; 14A9
14AB: CD4C16  	        CALL p164C              ; 14AB
14AE: C39214  	        JP p1492                ; 14AE
              	
14B1: 3AE83C  	p14B1:  LD A,(xb3CE8)           ; 14B1
14B4: FE07    	        CP 07H                  ; 14B4
14B6: C49D04  	        CALL NZ,p049D           ; 14B6
14B9: 3E32    	        LD A,32H                ; 14B9
14BB: CD4C16  	        CALL p164C              ; 14BB
14BE: C39214  	        JP p1492                ; 14BE
              	
14C1: 3AE83C  	p14C1:  LD A,(xb3CE8)           ; 14C1
14C4: F5      	        PUSH AF                 ; 14C4
14C5: CD0911  	        CALL p1109              ; 14C5
14C8: 3AE73C  	        LD A,(xb3CE7)           ; 14C8
14CB: FE20    	        CP 20H                  ; 14CB
14CD: D2F114  	        JP NC,p14F1             ; 14CD
14D0: B7      	        OR A                    ; 14D0
14D1: C49D04  	        CALL NZ,p049D           ; 14D1
14D4: 3AE93C  	        LD A,(xb3CE9)           ; 14D4
14D7: B7      	        OR A                    ; 14D7
14D8: C20A15  	        JP NZ,p150A             ; 14D8
14DB: 0E01    	        LD C,01H                ; 14DB
14DD: F1      	        POP AF                  ; 14DD
14DE: F5      	        PUSH AF                 ; 14DE
14DF: E660    	        AND 60H                 ; 14DF
14E1: C69D    	        ADD A,9DH               ; 14E1
14E3: FEC0    	        CP 0C0H                 ; 14E3
14E5: D44C16  	        CALL NC,p164C           ; 14E5
14E8: F1      	        POP AF                  ; 14E8
14E9: E606    	        AND 06H                 ; 14E9
14EB: CD9C0F  	        CALL p0F9C              ; 14EB
14EE: C3D517  	        JP p17D5                ; 14EE
              	
14F1: C4F10F  	p14F1:  CALL NZ,p0FF1           ; 14F1
14F4: F1      	        POP AF                  ; 14F4
14F5: FE06    	        CP 06H                  ; 14F5
14F7: C49D04  	        CALL NZ,p049D           ; 14F7
14FA: CD6311  	        CALL p1163              ; 14FA
14FD: 3AE83C  	        LD A,(xb3CE8)           ; 14FD
1500: FE04    	        CP 04H                  ; 1500
1502: C49D04  	        CALL NZ,p049D           ; 1502
1505: 3EF9    	        LD A,0F9H               ; 1505
1507: C34C16  	        JP p164C                ; 1507
              	
150A: F1      	p150A:  POP AF                  ; 150A
150B: 32E83C  	        LD (xb3CE8),A           ; 150B
150E: 4F      	        LD C,A                  ; 150E
150F: E606    	        AND 06H                 ; 150F
1511: FE04    	        CP 04H                  ; 1511
1513: C22415  	        JP NZ,p1524             ; 1513
1516: 79      	        LD A,C                  ; 1516
1517: FE40    	        CP 40H                  ; 1517
1519: D4F10F  	        CALL NC,p0FF1           ; 1519
151C: 3E2A    	        LD A,2AH                ; 151C
151E: CD4C16  	        CALL p164C              ; 151E
1521: C3D517  	        JP p17D5                ; 1521
              	
1524: 3EED    	p1524:  LD A,0EDH               ; 1524
1526: CD4C16  	        CALL p164C              ; 1526
1529: 79      	        LD A,C                  ; 1529
152A: E606    	        AND 06H                 ; 152A
152C: 0E4B    	        LD C,4BH                ; 152C
152E: CD9C0F  	        CALL p0F9C              ; 152E
1531: C3D517  	        JP p17D5                ; 1531
              	
1534: CD6311  	p1534:  CALL p1163              ; 1534
1537: 3AE83C  	        LD A,(xb3CE8)           ; 1537
153A: FE08    	        CP 08H                  ; 153A
153C: D27D15  	        JP NC,p157D             ; 153C
153F: F5      	        PUSH AF                 ; 153F
1540: CD0911  	        CALL p1109              ; 1540
1543: 3AE73C  	        LD A,(xb3CE7)           ; 1543
1546: B7      	        OR A                    ; 1546
1547: C25E15  	        JP NZ,p155E             ; 1547
154A: 3AE93C  	        LD A,(xb3CE9)           ; 154A
154D: B7      	        OR A                    ; 154D
154E: C2CA15  	        JP NZ,p15CA             ; 154E
1551: CD3B11  	        CALL p113B              ; 1551
1554: 0E06    	        LD C,06H                ; 1554
1556: F1      	        POP AF                  ; 1556
1557: CD9C0F  	        CALL p0F9C              ; 1557
155A: 7B      	        LD A,E                  ; 155A
155B: C3D916  	        JP p16D9                ; 155B
              	
155E: 3AE73C  	p155E:  LD A,(xb3CE7)           ; 155E
1561: FE10    	        CP 10H                  ; 1561
1563: CC0A16  	        CALL Z,p160A            ; 1563
1566: FE20    	        CP 20H                  ; 1566
1568: C27315  	        JP NZ,p1573             ; 1568
156B: 3AE83C  	        LD A,(xb3CE8)           ; 156B
156E: FE04    	        CP 04H                  ; 156E
1570: DAD815  	        JP C,p15D8              ; 1570
1573: F1      	p1573:  POP AF                  ; 1573
1574: 87      	        ADD A,A                 ; 1574
1575: 87      	        ADD A,A                 ; 1575
1576: 87      	        ADD A,A                 ; 1576
1577: C640    	        ADD A,40H               ; 1577
1579: 4F      	        LD C,A                  ; 1579
157A: C39C12  	        JP p129C                ; 157A
              	
157D: F5      	p157D:  PUSH AF                 ; 157D
157E: CD0911  	        CALL p1109              ; 157E
1581: CD1714  	        CALL p1417              ; 1581
1584: 3AE83C  	        LD A,(xb3CE8)           ; 1584
1587: FE07    	        CP 07H                  ; 1587
1589: C49D04  	        CALL NZ,p049D           ; 1589
158C: 3EED    	        LD A,0EDH               ; 158C
158E: CD4C16  	        CALL p164C              ; 158E
1591: F1      	        POP AF                  ; 1591
1592: E601    	        AND 01H                 ; 1592
1594: 0E47    	        LD C,47H                ; 1594
1596: C39C0F  	        JP p0F9C                ; 1596
              	
1599: 3AE83C  	p1599:  LD A,(xb3CE8)           ; 1599
159C: D5      	        PUSH DE                 ; 159C
159D: F5      	        PUSH AF                 ; 159D
159E: CD2816  	        CALL p1628              ; 159E
15A1: CD0911  	        CALL p1109              ; 15A1
15A4: CD6311  	        CALL p1163              ; 15A4
15A7: F1      	        POP AF                  ; 15A7
15A8: F5      	        PUSH AF                 ; 15A8
15A9: E660    	        AND 60H                 ; 15A9
15AB: C69D    	        ADD A,9DH               ; 15AB
15AD: FEC0    	        CP 0C0H                 ; 15AD
15AF: D44C16  	        CALL NC,p164C           ; 15AF
15B2: 0E70    	        LD C,70H                ; 15B2
15B4: 3AE73C  	        LD A,(xb3CE7)           ; 15B4
15B7: B7      	        OR A                    ; 15B7
15B8: CAE915  	        JP Z,p15E9              ; 15B8
15BB: CD9C12  	        CALL p129C              ; 15BB
15BE: CD2816  	        CALL p1628              ; 15BE
15C1: F1      	        POP AF                  ; 15C1
15C2: D1      	        POP DE                  ; 15C2
15C3: FE40    	        CP 40H                  ; 15C3
15C5: 7B      	        LD A,E                  ; 15C5
15C6: D4D916  	        CALL NC,p16D9           ; 15C6
15C9: C9      	        RET                     ; 15C9
              	
15CA: F1      	p15CA:  POP AF                  ; 15CA
15CB: FE07    	        CP 07H                  ; 15CB
15CD: C49D04  	        CALL NZ,p049D           ; 15CD
15D0: 3E3A    	        LD A,3AH                ; 15D0
15D2: CD4C16  	        CALL p164C              ; 15D2
15D5: C3D517  	        JP p17D5                ; 15D5
              	
15D8: CD5B11  	p15D8:  CALL p115B              ; 15D8
15DB: F1      	        POP AF                  ; 15DB
15DC: FE07    	        CP 07H                  ; 15DC
15DE: C49D04  	        CALL NZ,p049D           ; 15DE
15E1: 3AE83C  	        LD A,(xb3CE8)           ; 15E1
15E4: 0E0A    	        LD C,0AH                ; 15E4
15E6: C39C0F  	        JP p0F9C                ; 15E6
              	
15E9: CD3B11  	p15E9:  CALL p113B              ; 15E9
15EC: CD6311  	        CALL p1163              ; 15EC
15EF: 3E36    	        LD A,36H                ; 15EF
15F1: CD4C16  	        CALL p164C              ; 15F1
15F4: 4B      	        LD C,E                  ; 15F4
15F5: 42      	        LD B,D                  ; 15F5
15F6: CD2816  	        CALL p1628              ; 15F6
15F9: F1      	        POP AF                  ; 15F9
15FA: D1      	        POP DE                  ; 15FA
15FB: FE40    	        CP 40H                  ; 15FB
15FD: 7B      	        LD A,E                  ; 15FD
15FE: D4D916  	        CALL NC,p16D9           ; 15FE
1601: CD2816  	        CALL p1628              ; 1601
1604: 59      	        LD E,C                  ; 1604
1605: 50      	        LD D,B                  ; 1605
1606: 79      	        LD A,C                  ; 1606
1607: C3D916  	        JP p16D9                ; 1607
              	
160A: 3AE83C  	p160A:  LD A,(xb3CE8)           ; 160A
160D: FE08    	        CP 08H                  ; 160D
160F: 4F      	        LD C,A                  ; 160F
1610: 3AE73C  	        LD A,(xb3CE7)           ; 1610
1613: D8      	        RET C                   ; 1613
1614: E1      	        POP HL                  ; 1614
1615: F1      	        POP AF                  ; 1615
1616: FE07    	        CP 07H                  ; 1616
1618: C49D04  	        CALL NZ,p049D           ; 1618
161B: 3EED    	        LD A,0EDH               ; 161B
161D: CD4C16  	        CALL p164C              ; 161D
1620: 79      	        LD A,C                  ; 1620
1621: E601    	        AND 01H                 ; 1621
1623: 0E57    	        LD C,57H                ; 1623
1625: C39C0F  	        JP p0F9C                ; 1625
              	
1628: C5      	p1628:  PUSH BC                 ; 1628
1629: D5      	        PUSH DE                 ; 1629
162A: E5      	        PUSH HL                 ; 162A
162B: 21D43E  	        LD HL,xb3ED4            ; 162B
162E: 11153F  	        LD DE,xf3F15            ; 162E start of buffer
1631: 0E41    	        LD C,41H                ; 1631
1633: 46      	p1633:  LD B,(HL)               ; 1633
1634: 1A      	        LD A,(DE)               ; 1634
1635: 77      	        LD (HL),A               ; 1635
1636: 78      	        LD A,B                  ; 1636
1637: 12      	        LD (DE),A               ; 1637
1638: 23      	        INC HL                  ; 1638
1639: 13      	        INC DE                  ; 1639
163A: 0D      	        DEC C                   ; 163A
163B: C23316  	        JP NZ,p1633             ; 163B
163E: E1      	        POP HL                  ; 163E
163F: D1      	        POP DE                  ; 163F
1640: C1      	        POP BC                  ; 1640
1641: C9      	        RET                     ; 1641
              	
1642: F5      	p1642:  PUSH AF                 ; 1642
1643: 3AE73C  	        LD A,(xb3CE7)           ; 1643
1646: B7      	        OR A                    ; 1646
1647: C4CD04  	        CALL NZ,p04CD           ; 1647
164A: F1      	        POP AF                  ; 164A
164B: C9      	        RET                     ; 164B
              	
164C: 47      	p164C:  LD B,A                  ; 164C
164D: 3AEC3C  	        LD A,(xb3CEC)           ; 164D
1650: B7      	        OR A                    ; 1650
1651: 37      	        SCF                     ; 1651
1652: C46216  	        CALL NZ,p1662           ; 1652
1655: E5      	        PUSH HL                 ; 1655
1656: 2AD23D  	        LD HL,(xw3DD2)          ; 1656
1659: 23      	        INC HL                  ; 1659
165A: 22D23D  	        LD (xw3DD2),HL          ; 165A
165D: E1      	        POP HL                  ; 165D
165E: C2271C  	        JP NZ,p1C27             ; 165E
1661: C9      	        RET                     ; 1661
              	
1662: E5      	p1662:  PUSH HL                 ; 1662
1663: D5      	        PUSH DE                 ; 1663
1664: C5      	        PUSH BC                 ; 1664
1665: F5      	        PUSH AF                 ; 1665
1666: CD6827  	        CALL p2768              ; 1666
1669: 2A0F3E  	        LD HL,(xw3E0F)          ; 1669
166C: 11273E  	        LD DE,xf3E27            ; 166C
166F: CD8D0D  	        CALL p0D8D              ; 166F
1672: C5      	        PUSH BC                 ; 1672
1673: D42B19  	        CALL NC,p192B           ; 1673
1676: C1      	        POP BC                  ; 1676
1677: 2A0F3E  	        LD HL,(xw3E0F)          ; 1677
167A: EB      	        EX DE,HL                ; 167A
167B: 3A8F40  	        LD A,(xb408F)           ; 167B
167E: B7      	        OR A                    ; 167E
167F: CAD316  	        JP Z,p16D3              ; 167F
1682: 60      	        LD H,B                  ; 1682
1683: AF      	        XOR A                   ; 1683
1684: 29      	        ADD HL,HL               ; 1684
1685: 8F      	        ADC A,A                 ; 1685
1686: 29      	        ADD HL,HL               ; 1686
1687: 8F      	        ADC A,A                 ; 1687
1688: C630    	        ADD A,30H               ; 1688
168A: 12      	        LD (DE),A               ; 168A
168B: 13      	        INC DE                  ; 168B
168C: 0602    	        LD B,02H                ; 168C
168E: AF      	p168E:  XOR A                   ; 168E
168F: 0E03    	        LD C,03H                ; 168F
1691: 29      	p1691:  ADD HL,HL               ; 1691
1692: 8F      	        ADC A,A                 ; 1692
1693: 0D      	        DEC C                   ; 1693
1694: C29116  	        JP NZ,p1691             ; 1694
1697: C630    	        ADD A,30H               ; 1697
1699: 12      	        LD (DE),A               ; 1699
169A: 13      	        INC DE                  ; 169A
169B: 05      	        DEC B                   ; 169B
169C: C28E16  	        JP NZ,p168E             ; 169C
169F: EB      	p169F:  EX DE,HL                ; 169F
16A0: F1      	        POP AF                  ; 16A0
16A1: F5      	        PUSH AF                 ; 16A1
16A2: DACA16  	        JP C,p16CA              ; 16A2
16A5: 3AD43E  	        LD A,(xb3ED4)           ; 16A5
16A8: E6A0    	        AND 0A0H                ; 16A8
16AA: CACA16  	        JP Z,p16CA              ; 16AA
16AD: E680    	        AND 80H                 ; 16AD
16AF: C2C816  	        JP NZ,p16C8             ; 16AF mid code
16B2: 3AC13E  	        LD A,(xb3EC1)           ; 16B2
16B5: E603    	        AND 03H                 ; 16B5
16B7: FE02    	        CP 02H                  ; 16B7
16B9: DAC516  	        JP C,p16C5              ; 16B9 mid code
16BC: CAC216  	        JP Z,p16C2              ; 16BC mid code
16BF: 3621    	        LD (HL),21H             ; 16BF
16C1: 01      	        DB 01H                  ; 16C1 (LD BC,2236H)
16C2: 3622    	p16C2:  LD (HL),22H             ; 16C2
16C4: 01      	        DB 01H                  ; 16C4 (LD BC,2736H)
16C5: 3627    	p16C5:  LD (HL),27H             ; 16C5
16C7: 01      	        DB 01H                  ; 16C7 (LD BC,2A36H)
16C8: 362A    	p16C8:  LD (HL),2AH             ; 16C8
              	
16CA: 23      	p16CA:  INC HL                  ; 16CA
16CB: 220F3E  	        LD (xw3E0F),HL          ; 16CB
16CE: F1      	        POP AF                  ; 16CE
16CF: C1      	        POP BC                  ; 16CF
16D0: D1      	        POP DE                  ; 16D0
16D1: E1      	        POP HL                  ; 16D1
16D2: C9      	        RET                     ; 16D2
              	
16D3: CD1419  	p16D3:  CALL p1914              ; 16D3
16D6: C39F16  	        JP p169F                ; 16D6
              	
16D9: 47      	p16D9:  LD B,A                  ; 16D9
16DA: 3AD43E  	        LD A,(xb3ED4)           ; 16DA
16DD: F640    	        OR 40H                  ; 16DD
16DF: 32D43E  	        LD (xb3ED4),A           ; 16DF
16E2: 3AEC3C  	        LD A,(xb3CEC)           ; 16E2
16E5: B7      	        OR A                    ; 16E5
16E6: C46216  	        CALL NZ,p1662           ; 16E6
16E9: E5      	        PUSH HL                 ; 16E9
16EA: 2AD23D  	        LD HL,(xw3DD2)          ; 16EA
16ED: 23      	        INC HL                  ; 16ED
16EE: 22D23D  	        LD (xw3DD2),HL          ; 16EE
16F1: E1      	        POP HL                  ; 16F1
16F2: C2FE16  	        JP NZ,p16FE             ; 16F2
16F5: C9      	        RET                     ; 16F5
              	
16F6: 3AD43E  	p16F6:  LD A,(xb3ED4)           ; 16F6
16F9: E6BF    	        AND 0BFH                ; 16F9
16FB: 32D43E  	        LD (xb3ED4),A           ; 16FB
16FE: E5      	p16FE:  PUSH HL                 ; 16FE
16FF: 21D43E  	        LD HL,xb3ED4            ; 16FF
1702: 7E      	        LD A,(HL)               ; 1702
1703: E610    	        AND 10H                 ; 1703
1705: CA1117  	        JP Z,p1711              ; 1705
1708: CDAF04  	        CALL p04AF              ; 1708
170B: 7E      	        LD A,(HL)               ; 170B
170C: E640    	        AND 40H                 ; 170C
170E: C3B417  	        JP p17B4                ; 170E
              	
1711: 7E      	p1711:  LD A,(HL)               ; 1711
1712: E6A0    	        AND 0A0H                ; 1712
1714: CAB917  	        JP Z,p17B9              ; 1714
1717: D5      	        PUSH DE                 ; 1717
1718: C5      	        PUSH BC                 ; 1718
1719: 23      	        INC HL                  ; 1719
171A: 7E      	        LD A,(HL)               ; 171A
171B: E63F    	        AND 3FH                 ; 171B
171D: 47      	        LD B,A                  ; 171D
171E: 78      	p171E:  LD A,B                  ; 171E
171F: B7      	        OR A                    ; 171F
1720: CA9A17  	        JP Z,p179A              ; 1720
1723: 23      	        INC HL                  ; 1723
1724: 05      	        DEC B                   ; 1724
1725: 7E      	        LD A,(HL)               ; 1725
1726: B7      	        OR A                    ; 1726
1727: FA3717  	        JP M,p1737              ; 1727
172A: 32CD3E  	        LD (xb3ECD),A           ; 172A
172D: 3E41    	        LD A,41H                ; 172D
172F: 1E02    	        LD E,02H                ; 172F
1731: CDBE17  	p1731:  CALL p17BE              ; 1731
1734: C31E17  	        JP p171E                ; 1734
              	
1737: E67F    	p1737:  AND 7FH                 ; 1737
1739: 1F      	        RRA                     ; 1739
173A: DA6817  	        JP C,p1768              ; 173A
173D: FE03    	        CP 03H                  ; 173D
173F: C25317  	        JP NZ,p1753             ; 173F
1742: 23      	        INC HL                  ; 1742
1743: 5E      	        LD E,(HL)               ; 1743
1744: 23      	        INC HL                  ; 1744
1745: 56      	        LD D,(HL)               ; 1745
1746: 05      	        DEC B                   ; 1746
1747: 05      	        DEC B                   ; 1747
1748: EB      	        EX DE,HL                ; 1748
1749: 22DE3D  	        LD (xw3DDE),HL          ; 1749
174C: EB      	        EX DE,HL                ; 174C
174D: C5      	        PUSH BC                 ; 174D
174E: 47      	        LD B,A                  ; 174E
174F: CD831B  	        CALL p1B83              ; 174F
1752: C1      	        POP BC                  ; 1752
1753: 32CD3E  	p1753:  LD (xb3ECD),A           ; 1753
1756: 23      	        INC HL                  ; 1756
1757: 5E      	        LD E,(HL)               ; 1757
1758: 23      	        INC HL                  ; 1758
1759: 56      	        LD D,(HL)               ; 1759
175A: 05      	        DEC B                   ; 175A
175B: 05      	        DEC B                   ; 175B
175C: EB      	        EX DE,HL                ; 175C
175D: 22CE3E  	        LD (xf3ECE),HL          ; 175D
1760: EB      	        EX DE,HL                ; 1760
1761: 3E43    	        LD A,43H                ; 1761
1763: 1E04    	        LD E,04H                ; 1763
1765: C33117  	        JP p1731                ; 1765
              	
1768: 23      	p1768:  INC HL                  ; 1768
1769: 5E      	        LD E,(HL)               ; 1769
176A: 23      	        INC HL                  ; 176A
176B: 56      	        LD D,(HL)               ; 176B
176C: 05      	        DEC B                   ; 176C
176D: 05      	        DEC B                   ; 176D
176E: C5      	        PUSH BC                 ; 176E
176F: E5      	        PUSH HL                 ; 176F
1770: EB      	        EX DE,HL                ; 1770
1771: 2B      	        DEC HL                  ; 1771
1772: 7E      	        LD A,(HL)               ; 1772
1773: FE06    	        CP 06H                  ; 1773
1775: DA7A17  	        JP C,p177A              ; 1775
1778: 3E06    	        LD A,06H                ; 1778
177A: 3C      	p177A:  INC A                   ; 177A
177B: 32C53E  	        LD (xb3EC5),A           ; 177B
177E: 3D      	        DEC A                   ; 177E
177F: 010600  	        LD BC,0006H             ; 177F
1782: 09      	        ADD HL,BC               ; 1782
1783: 47      	        LD B,A                  ; 1783
1784: 11CC3E  	        LD DE,xb3ECC            ; 1784
1787: 3E42    	        LD A,42H                ; 1787
1789: 12      	        LD (DE),A               ; 1789
178A: 13      	p178A:  INC DE                  ; 178A
178B: 23      	        INC HL                  ; 178B
178C: 7E      	        LD A,(HL)               ; 178C
178D: 12      	        LD (DE),A               ; 178D
178E: 05      	        DEC B                   ; 178E
178F: C28A17  	        JP NZ,p178A             ; 178F
1792: CDC517  	        CALL p17C5              ; 1792
1795: E1      	        POP HL                  ; 1795
1796: C1      	        POP BC                  ; 1796
1797: C31E17  	        JP p171E                ; 1797
              	
179A: 3AD43E  	p179A:  LD A,(xb3ED4)           ; 179A
179D: E640    	        AND 40H                 ; 179D
179F: F5      	        PUSH AF                 ; 179F
17A0: 3E01    	        LD A,01H                ; 17A0
17A2: C2A717  	        JP NZ,p17A7             ; 17A2
17A5: 3E02    	        LD A,02H                ; 17A5
17A7: 32CD3E  	p17A7:  LD (xb3ECD),A           ; 17A7
17AA: 3E41    	        LD A,41H                ; 17AA
17AC: 1E02    	        LD E,02H                ; 17AC
17AE: CDBE17  	        CALL p17BE              ; 17AE
17B1: F1      	        POP AF                  ; 17B1
17B2: C1      	        POP BC                  ; 17B2
17B3: D1      	        POP DE                  ; 17B3
17B4: 0600    	p17B4:  LD B,00H                ; 17B4
17B6: CC271C  	        CALL Z,p1C27            ; 17B6
17B9: CD271C  	p17B9:  CALL p1C27              ; 17B9
17BC: E1      	        POP HL                  ; 17BC
17BD: C9      	        RET                     ; 17BD
              	
17BE: 32CC3E  	p17BE:  LD (xb3ECC),A           ; 17BE
17C1: 7B      	        LD A,E                  ; 17C1
17C2: 32C53E  	        LD (xb3EC5),A           ; 17C2
17C5: C5      	p17C5:  PUSH BC                 ; 17C5
17C6: E5      	        PUSH HL                 ; 17C6
17C7: 21C63E  	        LD HL,xb3EC6            ; 17C7
17CA: 223F3D  	        LD (xw3D3F),HL          ; 17CA
17CD: 0E04    	        LD C,04H                ; 17CD
17CF: CDA91B  	        CALL p1BA9              ; 17CF
17D2: E1      	        POP HL                  ; 17D2
17D3: C1      	        POP BC                  ; 17D3
17D4: C9      	        RET                     ; 17D4
              	
17D5: 3AEC3C  	p17D5:  LD A,(xb3CEC)           ; 17D5
17D8: B7      	        OR A                    ; 17D8
17D9: C4C918  	        CALL NZ,p18C9           ; 17D9
17DC: E5      	        PUSH HL                 ; 17DC
17DD: 2AD23D  	        LD HL,(xw3DD2)          ; 17DD
17E0: 23      	        INC HL                  ; 17E0
17E1: 23      	        INC HL                  ; 17E1
17E2: 22D23D  	        LD (xw3DD2),HL          ; 17E2
17E5: E1      	        POP HL                  ; 17E5
17E6: C8      	        RET Z                   ; 17E6
17E7: 3AC13E  	        LD A,(xb3EC1)           ; 17E7
17EA: 47      	        LD B,A                  ; 17EA
17EB: 3AD43E  	        LD A,(xb3ED4)           ; 17EB
17EE: E640    	        AND 40H                 ; 17EE
17F0: 78      	        LD A,B                  ; 17F0
17F1: CC9318  	        CALL Z,p1893            ; 17F1
17F4: 3AC13E  	        LD A,(xb3EC1)           ; 17F4
17F7: 47      	        LD B,A                  ; 17F7
17F8: CD831B  	        CALL p1B83              ; 17F8
17FB: 2A0F3E  	        LD HL,(xw3E0F)          ; 17FB
17FE: E683    	        AND 83H                 ; 17FE
1800: C20F18  	        JP NZ,p180F             ; 1800
1803: 23      	        INC HL                  ; 1803
1804: 220F3E  	        LD (xw3E0F),HL          ; 1804
1807: 43      	        LD B,E                  ; 1807
1808: CD271C  	        CALL p1C27              ; 1808
180B: 42      	        LD B,D                  ; 180B
180C: C3271C  	        JP p1C27                ; 180C
              	
180F: 78      	p180F:  LD A,B                  ; 180F
1810: E680    	        AND 80H                 ; 1810
1812: C5      	        PUSH BC                 ; 1812
1813: C22618  	        JP NZ,p1826             ; 1813
1816: 78      	        LD A,B                  ; 1816
1817: E603    	        AND 03H                 ; 1817
1819: FE02    	        CP 02H                  ; 1819
181B: FA3718  	        JP M,p1837              ; 181B
181E: CA3418  	        JP Z,p1834              ; 181E
1821: 3621    	        LD (HL),21H             ; 1821
1823: C33918  	        JP p1839                ; 1823
              	
1826: 362A    	p1826:  LD (HL),2AH             ; 1826
1828: EB      	        EX DE,HL                ; 1828
1829: 2ABF3E  	        LD HL,(xw3EBF)          ; 1829
182C: 23      	        INC HL                  ; 182C
182D: 23      	        INC HL                  ; 182D
182E: 7E      	        LD A,(HL)               ; 182E
182F: 23      	        INC HL                  ; 182F
1830: 66      	        LD H,(HL)               ; 1830
1831: 6F      	        LD L,A                  ; 1831
1832: EB      	        EX DE,HL                ; 1832
1833: 01      	        DB 01H                  ; 1833 (LD BC,2236H)
1834: 3622    	p1834:  LD (HL),22H             ; 1834
1836: 01      	        DB 01H                  ; 1836 (LD BC,2736H)
1837: 3627    	p1837:  LD (HL),27H             ; 1837        
1839: C1      	p1839:  POP BC                  ; 1839
183A: 23      	        INC HL                  ; 183A
183B: 23      	        INC HL                  ; 183B
183C: 220F3E  	        LD (xw3E0F),HL          ; 183C
183F: CD831B  	        CALL p1B83              ; 183F
1842: 78      	        LD A,B                  ; 1842
1843: E680    	        AND 80H                 ; 1843
1845: CA5018  	        JP Z,p1850              ; 1845
1848: 3AD43E  	        LD A,(xb3ED4)           ; 1848
184B: E640    	        AND 40H                 ; 184B
184D: C2F616  	        JP NZ,p16F6             ; 184D
1850: 78      	p1850:  LD A,B                  ; 1850
1851: E603    	        AND 03H                 ; 1851
1853: C5      	        PUSH BC                 ; 1853
1854: CA8818  	        JP Z,p1888              ; 1854
1857: CD3A1C  	        CALL p1C3A              ; 1857
185A: 43      	        LD B,E                  ; 185A
185B: CD2B1C  	        CALL p1C2B              ; 185B
185E: 42      	        LD B,D                  ; 185E
185F: CD2B1C  	        CALL p1C2B              ; 185F
1862: C1      	p1862:  POP BC                  ; 1862
1863: 78      	        LD A,B                  ; 1863
1864: E680    	        AND 80H                 ; 1864
1866: C8      	        RET Z                   ; 1866
1867: 2AD23D  	        LD HL,(xw3DD2)          ; 1867
186A: 2B      	        DEC HL                  ; 186A
186B: 2B      	        DEC HL                  ; 186B
186C: EB      	        EX DE,HL                ; 186C
186D: 2ABF3E  	        LD HL,(xw3EBF)          ; 186D
1870: 23      	        INC HL                  ; 1870
1871: 3AD13D  	        LD A,(xb3DD1)           ; 1871
1874: 47      	        LD B,A                  ; 1874
1875: 7E      	        LD A,(HL)               ; 1875
1876: E6FC    	        AND 0FCH                ; 1876
1878: B0      	        OR B                    ; 1878
1879: 77      	        LD (HL),A               ; 1879
187A: 23      	        INC HL                  ; 187A
187B: 73      	        LD (HL),E               ; 187B
187C: 23      	        INC HL                  ; 187C
187D: 72      	        LD (HL),D               ; 187D
187E: 23      	        INC HL                  ; 187E
187F: EB      	        EX DE,HL                ; 187F
1880: 2ADC3D  	        LD HL,(xw3DDC)          ; 1880
1883: EB      	        EX DE,HL                ; 1883
1884: 73      	        LD (HL),E               ; 1884
1885: 23      	        INC HL                  ; 1885
1886: 72      	        LD (HL),D               ; 1886
1887: C9      	        RET                     ; 1887
              	
1888: 43      	p1888:  LD B,E                  ; 1888
1889: CD271C  	        CALL p1C27              ; 1889
188C: 42      	        LD B,D                  ; 188C
188D: CD271C  	        CALL p1C27              ; 188D
1890: C36218  	        JP p1862                ; 1890
              	
1893: F5      	p1893:  PUSH AF                 ; 1893
1894: B7      	        OR A                    ; 1894
1895: F2C718  	        JP P,p18C7              ; 1895
1898: 3ABE3E  	        LD A,(xb3EBE)           ; 1898
189B: 32C13E  	        LD (xb3EC1),A           ; 189B
189E: 3ABD3E  	        LD A,(xb3EBD)           ; 189E
18A1: B7      	        OR A                    ; 18A1
18A2: CAC718  	        JP Z,p18C7              ; 18A2
18A5: E5      	        PUSH HL                 ; 18A5
18A6: C5      	        PUSH BC                 ; 18A6
18A7: D5      	        PUSH DE                 ; 18A7
18A8: 78      	        LD A,B                  ; 18A8
18A9: CD831B  	        CALL p1B83              ; 18A9
18AC: E603    	        AND 03H                 ; 18AC
18AE: C2B318  	        JP NZ,p18B3             ; 18AE
18B1: 7A      	        LD A,D                  ; 18B1
18B2: B3      	        OR E                    ; 18B2
18B3: 0E09    	p18B3:  LD C,09H                ; 18B3
18B5: C4A91B  	        CALL NZ,p1BA9           ; 18B5
18B8: AF      	        XOR A                   ; 18B8
18B9: 32BD3E  	        LD (xb3EBD),A           ; 18B9
18BC: D1      	        POP DE                  ; 18BC
18BD: C1      	        POP BC                  ; 18BD
18BE: 2ABF3E  	        LD HL,(xw3EBF)          ; 18BE
18C1: 23      	        INC HL                  ; 18C1
18C2: 7E      	        LD A,(HL)               ; 18C2
18C3: 32C13E  	        LD (xb3EC1),A           ; 18C3
18C6: E1      	        POP HL                  ; 18C6
18C7: F1      	p18C7:  POP AF                  ; 18C7
18C8: C9      	        RET                     ; 18C8
              	
18C9: F5      	p18C9:  PUSH AF                 ; 18C9
18CA: E5      	        PUSH HL                 ; 18CA
18CB: D5      	        PUSH DE                 ; 18CB
18CC: 2A0F3E  	        LD HL,(xw3E0F)          ; 18CC
18CF: 11233E  	        LD DE,xf3E23            ; 18CF
18D2: CD8D0D  	        CALL p0D8D              ; 18D2
18D5: D42B19  	        CALL NC,p192B           ; 18D5
18D8: 2A0F3E  	        LD HL,(xw3E0F)          ; 18D8
18DB: EB      	        EX DE,HL                ; 18DB
18DC: E1      	        POP HL                  ; 18DC
18DD: E5      	        PUSH HL                 ; 18DD
18DE: 3A8F40  	        LD A,(xb408F)           ; 18DE
18E1: B7      	        OR A                    ; 18E1
18E2: CA0819  	        JP Z,p1908              ; 18E2
18E5: AF      	        XOR A                   ; 18E5
18E6: 29      	        ADD HL,HL               ; 18E6
18E7: CE30    	        ADC A,30H               ; 18E7
18E9: 12      	        LD (DE),A               ; 18E9
18EA: 13      	        INC DE                  ; 18EA
18EB: C5      	        PUSH BC                 ; 18EB
18EC: 0605    	        LD B,05H                ; 18EC
18EE: AF      	p18EE:  XOR A                   ; 18EE
18EF: 0E03    	        LD C,03H                ; 18EF
18F1: 29      	p18F1:  ADD HL,HL               ; 18F1
18F2: 8F      	        ADC A,A                 ; 18F2
18F3: 0D      	        DEC C                   ; 18F3
18F4: C2F118  	        JP NZ,p18F1             ; 18F4
18F7: C630    	        ADD A,30H               ; 18F7
18F9: 12      	        LD (DE),A               ; 18F9
18FA: 13      	        INC DE                  ; 18FA
18FB: 05      	        DEC B                   ; 18FB
18FC: C2EE18  	        JP NZ,p18EE             ; 18FC
18FF: EB      	p18FF:  EX DE,HL                ; 18FF
1900: 220F3E  	        LD (xw3E0F),HL          ; 1900
1903: C1      	        POP BC                  ; 1903
1904: D1      	        POP DE                  ; 1904
1905: E1      	        POP HL                  ; 1905
1906: F1      	        POP AF                  ; 1906
1907: C9      	        RET                     ; 1907
              	
1908: C5      	p1908:  PUSH BC                 ; 1908
1909: 44      	        LD B,H                  ; 1909
190A: CD1419  	        CALL p1914              ; 190A
190D: 45      	        LD B,L                  ; 190D
190E: CD1419  	        CALL p1914              ; 190E
1911: C3FF18  	        JP p18FF                ; 1911
              	
1914: 78      	p1914:  LD A,B                  ; 1914
1915: 1F      	        RRA                     ; 1915
1916: 1F      	        RRA                     ; 1916
1917: 1F      	        RRA                     ; 1917
1918: 1F      	        RRA                     ; 1918
1919: CD1D19  	        CALL p191D              ; 1919
191C: 78      	        LD A,B                  ; 191C
191D: E60F    	p191D:  AND 0FH                 ; 191D
191F: C630    	        ADD A,30H               ; 191F
1921: FE3A    	        CP 3AH                  ; 1921
1923: DA2819  	        JP C,p1928              ; 1923
1926: C607    	        ADD A,07H               ; 1926
1928: 12      	p1928:  LD (DE),A               ; 1928
1929: 13      	        INC DE                  ; 1929
192A: C9      	        RET                     ; 192A
              	
192B: F5      	p192B:  PUSH AF                 ; 192B
192C: C5      	        PUSH BC                 ; 192C
192D: D5      	        PUSH DE                 ; 192D
192E: E5      	        PUSH HL                 ; 192E
192F: CD161B  	        CALL p1B16              ; 192F
1932: 3A2A3D  	        LD A,(xb3D2A)           ; 1932
1935: B7      	        OR A                    ; 1935
1936: CA4719  	        JP Z,p1947              ; 1936
1939: 3A293D  	        LD A,(xb3D29)           ; 1939
193C: B7      	        OR A                    ; 193C
193D: CA4719  	        JP Z,p1947              ; 193D
1940: 3A283D  	        LD A,(xb3D28)           ; 1940
1943: B7      	        OR A                    ; 1943
1944: CA4E19  	        JP Z,p194E              ; 1944
1947: 3A2F3D  	p1947:  LD A,(xb3D2F)           ; 1947
194A: B7      	        OR A                    ; 194A
194B: C25319  	        JP NZ,p1953             ; 194B
194E: 3A113E  	p194E:  LD A,(xb3E11)           ; 194E
1951: FE20    	        CP 20H                  ; 1951
1953: C47E19  	p1953:  CALL NZ,p197E           ; 1953
1956: 3A113E  	        LD A,(xb3E11)           ; 1956
1959: FE20    	        CP 20H                  ; 1959
195B: CA6F19  	        JP Z,p196F              ; 195B
195E: 3AB440  	        LD A,(xf40B4)           ; 195E
1961: 3C      	        INC A                   ; 1961
1962: CA6F19  	        JP Z,p196F              ; 1962
1965: 325B3F  	        LD (xb3F5B),A           ; 1965
1968: CD7E19  	        CALL p197E              ; 1968
196B: AF      	        XOR A                   ; 196B
196C: 325B3F  	        LD (xb3F5B),A           ; 196C
196F: 3C      	p196F:  INC A                   ; 196F
1970: 322B3D  	        LD (xb3D2B),A           ; 1970
1973: CD3F04  	        CALL p043F              ; 1973
1976: CD311B  	        CALL p1B31              ; 1976
1979: E1      	        POP HL                  ; 1979
197A: D1      	        POP DE                  ; 197A
197B: C1      	        POP BC                  ; 197B
197C: F1      	        POP AF                  ; 197C
197D: C9      	        RET                     ; 197D
              	
197E: 3AFA3F  	p197E:  LD A,(xb3FFA)           ; 197E
1981: B7      	        OR A                    ; 1981
1982: CABF19  	        JP Z,p19BF              ; 1982
1985: 3D      	        DEC A                   ; 1985
1986: C29F19  	        JP NZ,p199F             ; 1986
1989: 3AFB3F  	        LD A,(xb3FFB)           ; 1989
198C: B7      	        OR A                    ; 198C
198D: C29F19  	        JP NZ,p199F             ; 198D
1990: 3A2E3D  	        LD A,(xb3D2E)           ; 1990
1993: B7      	        OR A                    ; 1993
1994: C2BF19  	        JP NZ,p19BF             ; 1994
1997: 3E2B    	        LD A,2BH                ; 1997
1999: 322B3E  	        LD (xf3E2B),A           ; 1999
199C: C3BF19  	        JP p19BF                ; 199C
              	
199F: 3E2B    	p199F:  LD A,2BH                ; 199F
19A1: 322B3E  	        LD (xf3E2B),A           ; 19A1
19A4: 3A113E  	        LD A,(xb3E11)           ; 19A4
19A7: FE20    	        CP 20H                  ; 19A7
19A9: C2BF19  	        JP NZ,p19BF             ; 19A9
19AC: 3A2E3D  	        LD A,(xb3D2E)           ; 19AC
19AF: B7      	        OR A                    ; 19AF
19B0: FABF19  	        JP M,p19BF              ; 19B0
19B3: C8      	        RET Z                   ; 19B3
19B4: 3A133E  	        LD A,(xf3E13)           ; 19B4
19B7: FE20    	        CP 20H                  ; 19B7
19B9: C8      	        RET Z                   ; 19B9
19BA: 3A313D  	        LD A,(xb3D31)           ; 19BA
19BD: B7      	        OR A                    ; 19BD
19BE: C0      	        RET NZ                  ; 19BE
19BF: 3A2C3D  	p19BF:  LD A,(xb3D2C)           ; 19BF
19C2: B7      	        OR A                    ; 19C2
19C3: CACB19  	        JP Z,p19CB              ; 19C3
19C6: 3E43    	        LD A,43H                ; 19C6
19C8: 322A3E  	        LD (xb3E2A),A           ; 19C8
19CB: 3A5B3F  	p19CB:  LD A,(xb3F5B)           ; 19CB
19CE: B7      	        OR A                    ; 19CE
19CF: C2FD19  	        JP NZ,p19FD             ; 19CF
19D2: 3A2F3D  	        LD A,(xb3D2F)           ; 19D2
19D5: B7      	        OR A                    ; 19D5
19D6: C2DF19  	        JP NZ,p19DF             ; 19D6
19D9: 3A113E  	        LD A,(xb3E11)           ; 19D9
19DC: FE20    	        CP 20H                  ; 19DC
19DE: C8      	        RET Z                   ; 19DE
19DF: 21333D  	p19DF:  LD HL,xb3D33            ; 19DF
19E2: 34      	        INC (HL)                ; 19E2
19E3: 3A323D  	        LD A,(xb3D32)           ; 19E3
19E6: BE      	        CP (HL)                 ; 19E6
19E7: CC701A  	        CALL Z,p1A70            ; 19E7
19EA: 3A5B3F  	        LD A,(xb3F5B)           ; 19EA
19ED: B7      	        OR A                    ; 19ED
19EE: C2FD19  	        JP NZ,p19FD             ; 19EE
19F1: 3A8C40  	        LD A,(xb408C)           ; 19F1
19F4: B7      	        OR A                    ; 19F4
19F5: CAFD19  	        JP Z,p19FD              ; 19F5
19F8: 3E83    	        LD A,83H                ; 19F8
19FA: CD764C  	        CALL p4C76              ; 19FA
19FD: 21113E  	p19FD:  LD HL,xb3E11            ; 19FD
1A00: 0620    	        LD B,20H                ; 1A00
1A02: 7E      	p1A02:  LD A,(HL)               ; 1A02
1A03: 23      	        INC HL                  ; 1A03
1A04: CD641A  	        CALL p1A64              ; 1A04
1A07: 05      	        DEC B                   ; 1A07
1A08: C2021A  	        JP NZ,p1A02             ; 1A08
1A0B: 3A2B3D  	        LD A,(xb3D2B)           ; 1A0B
1A0E: B7      	        OR A                    ; 1A0E
1A0F: C25A1A  	        JP NZ,p1A5A             ; 1A0F
1A12: 3AFA3F  	        LD A,(xb3FFA)           ; 1A12
1A15: 3D      	        DEC A                   ; 1A15
1A16: FA231A  	        JP M,p1A23              ; 1A16
1A19: C2231A  	        JP NZ,p1A23             ; 1A19
1A1C: 3AFB3F  	        LD A,(xb3FFB)           ; 1A1C
1A1F: B7      	        OR A                    ; 1A1F
1A20: CA231A  	        JP Z,p1A23              ; 1A20
1A23: 21393D  	p1A23:  LD HL,xf3D39            ; 1A23 address
1A26: 0606    	        LD B,06H                ; 1A26
1A28: 7E      	p1A28:  LD A,(HL)               ; 1A28
1A29: 23      	        INC HL                  ; 1A29
1A2A: FE30    	        CP 30H                  ; 1A2A
1A2C: DA361A  	        JP C,p1A36              ; 1A2C
1A2F: CD641A  	        CALL p1A64              ; 1A2F
1A32: 05      	        DEC B                   ; 1A32
1A33: C2281A  	        JP NZ,p1A28             ; 1A33
1A36: 3E06    	p1A36:  LD A,06H                ; 1A36
1A38: B8      	        CP B                    ; 1A38
1A39: C2431A  	        JP NZ,p1A43             ; 1A39
1A3C: 3A383D  	        LD A,(xb3D38)           ; 1A3C
1A3F: B7      	        OR A                    ; 1A3F
1A40: CA481A  	        JP Z,p1A48              ; 1A40
1A43: 3E09    	p1A43:  LD A,09H                ; 1A43
1A45: CD641A  	        CALL p1A64              ; 1A45
1A48: 21483D  	p1A48:  LD HL,xf3D48            ; 1A48 address of buffer
1A4B: 7E      	p1A4B:  LD A,(HL)               ; 1A4B
1A4C: 23      	        INC HL                  ; 1A4C
1A4D: FE0D    	        CP 0DH                  ; 1A4D
1A4F: CA5A1A  	        JP Z,p1A5A              ; 1A4F
1A52: FE0C    	        CP 0CH                  ; 1A52
1A54: C4641A  	        CALL NZ,p1A64           ; 1A54
1A57: C34B1A  	        JP p1A4B                ; 1A57
              	
1A5A: 3E0D    	p1A5A:  LD A,CR                 ; 1A5A
1A5C: CD641A  	        CALL p1A64              ; 1A5C
1A5F: 3E0A    	        LD A,LF                 ; 1A5F
1A61: C3641A  	        JP p1A64                ; 1A61
              	
1A64: 4F      	p1A64:  LD C,A                  ; 1A64
1A65: 3A5B3F  	        LD A,(xb3F5B)           ; 1A65
1A68: B7      	        OR A                    ; 1A68
1A69: 79      	        LD A,C                  ; 1A69
1A6A: CA764C  	        JP Z,p4C76              ; 1A6A
1A6D: C3EE4A  	        JP p4AEE                ; 1A6D
              	
1A70: 3E04    	p1A70:  LD A,04H                ; 1A70
1A72: 32333D  	        LD (xb3D33),A           ; 1A72
1A75: 3A2F3D  	        LD A,(xb3D2F)           ; 1A75
1A78: B7      	        OR A                    ; 1A78
1A79: CA8D1A  	        JP Z,p1A8D              ; 1A79
1A7C: 3E0C    	        LD A,0CH                ; 1A7C
1A7E: CD764C  	        CALL p4C76              ; 1A7E
1A81: 21313E  	        LD HL,xf3E31            ; 1A81 buffer start
1A84: CDD51A  	        CALL p1AD5              ; 1A84
1A87: 21F71A  	        LD HL,x1AF7             ; 1A87 MACRO-80 heading
1A8A: CDD51A  	        CALL p1AD5              ; 1A8A
1A8D: 2A343D  	p1A8D:  LD HL,(xw3D34)          ; 1A8D
1A90: 23      	        INC HL                  ; 1A90
1A91: 7C      	        LD A,H                  ; 1A91
1A92: B5      	        OR L                    ; 1A92
1A93: 2B      	        DEC HL                  ; 1A93
1A94: F5      	        PUSH AF                 ; 1A94
1A95: 3A2F3D  	        LD A,(xb3D2F)           ; 1A95
1A98: B7      	        OR A                    ; 1A98
1A99: CAA41A  	        JP Z,p1AA4              ; 1A99
1A9C: F1      	        POP AF                  ; 1A9C
1A9D: F5      	        PUSH AF                 ; 1A9D
1A9E: CACD1A  	        JP Z,p1ACD              ; 1A9E
1AA1: CDDF1A  	        CALL p1ADF              ; 1AA1
1AA4: F1      	p1AA4:  POP AF                  ; 1AA4
1AA5: 2A363D  	        LD HL,(xw3D36)          ; 1AA5
1AA8: 23      	        INC HL                  ; 1AA8
1AA9: 22363D  	        LD (xw3D36),HL          ; 1AA9
1AAC: 3A2F3D  	        LD A,(xb3D2F)           ; 1AAC
1AAF: B7      	        OR A                    ; 1AAF
1AB0: C8      	        RET Z                   ; 1AB0
1AB1: 7C      	        LD A,H                  ; 1AB1
1AB2: B5      	        OR L                    ; 1AB2
1AB3: CABE1A  	        JP Z,p1ABE              ; 1AB3
1AB6: 3E2D    	        LD A,2DH                ; 1AB6
1AB8: CD764C  	        CALL p4C76              ; 1AB8
1ABB: CDDF1A  	        CALL p1ADF              ; 1ABB
1ABE: CD5A1A  	p1ABE:  CALL p1A5A              ; 1ABE
1AC1: 21813E  	        LD HL,xf3E81            ; 1AC1 Buffer
1AC4: CDD51A  	        CALL p1AD5              ; 1AC4
1AC7: CD5A1A  	        CALL p1A5A              ; 1AC7
1ACA: C35A1A  	        JP p1A5A                ; 1ACA
              	
1ACD: 3E53    	p1ACD:  LD A,53H                ; 1ACD
1ACF: CD764C  	        CALL p4C76              ; 1ACF
1AD2: C3A41A  	        JP p1AA4                ; 1AD2
              	
1AD5: 7E      	p1AD5:  LD A,(HL)               ; 1AD5
1AD6: 23      	        INC HL                  ; 1AD6
1AD7: B7      	        OR A                    ; 1AD7
1AD8: C8      	        RET Z                   ; 1AD8
1AD9: CD764C  	        CALL p4C76              ; 1AD9
1ADC: C3D51A  	        JP p1AD5                ; 1ADC
              	
1ADF: 01F6FF  	p1ADF:  LD BC,0FFF6H            ; 1ADF
1AE2: 50      	p1AE2:  LD D,B                  ; 1AE2
1AE3: 58      	        LD E,B                  ; 1AE3
1AE4: 09      	p1AE4:  ADD HL,BC               ; 1AE4
1AE5: 13      	        INC DE                  ; 1AE5
1AE6: DAE41A  	        JP C,p1AE4              ; 1AE6
1AE9: E5      	        PUSH HL                 ; 1AE9
1AEA: EB      	        EX DE,HL                ; 1AEA
1AEB: 7C      	        LD A,H                  ; 1AEB
1AEC: B5      	        OR L                    ; 1AEC
1AED: C4E21A  	        CALL NZ,p1AE2           ; 1AED
1AF0: 3E3A    	        LD A,3AH                ; 1AF0
1AF2: C1      	        POP BC                  ; 1AF2
1AF3: 81      	        ADD A,C                 ; 1AF3
1AF4: C3641A  	        JP p1A64                ; 1AF4
              	;=====================================
1AF7: 09      	x1AF7:  DB 09H                  ; 1AF7
1AF8: 4D414352	        DB 'MACRO-80 3.44'      ; 1AF8
1AFC: 4F2D3830	
1B00: 20332E34	
1B04: 34      	
1B05: 09      	        DB TAB                  ; 1B05
1B06: 30392D44	        DB '09-Dec-81'          ; 1B06
1B0A: 65632D38	
1B0E: 31      	
1B0F: 09      	        DB TAB                  ; 1B0F
1B10: 50414745	        DB 'PAGE'               ; 1BA0
1B14: 0900    	        DB 09H,00
              	;=====================================
1B16: 3A113E  	p1B16:  LD A,(xb3E11)           ; 1B16
1B19: FE20    	        CP 20H                  ; 1B19
1B1B: C8      	        RET Z                   ; 1B1B
1B1C: FE51    	        CP 51H                  ; 1B1C
1B1E: CA291B  	        JP Z,p1B29              ; 1B1E
1B21: 2AED3C  	        LD HL,(xw3CED)          ; 1B21
1B24: 23      	        INC HL                  ; 1B24
1B25: 22ED3C  	        LD (xw3CED),HL          ; 1B25
1B28: C9      	        RET                     ; 1B28
              	
1B29: 2AEF3C  	p1B29:  LD HL,(xw3CEF)          ; 1B29
1B2C: 23      	        INC HL                  ; 1B2C
1B2D: 22EF3C  	        LD (xw3CEF),HL          ; 1B2D
1B30: C9      	p1B30:  RET                     ; 1B30
              	
1B31: CD6A1B  	p1B31:  CALL p1B6A              ; 1B31
1B34: F5      	p1B34:  PUSH AF                 ; 1B34
1B35: 3AEC3C  	p1B35:  LD A,(xb3CEC)           ; 1B35
1B38: B7      	        OR A                    ; 1B38
1B39: CAC718  	        JP Z,p18C7              ; 1B39
1B3C: 3A133E  	        LD A,(xf3E13)           ; 1B3C
1B3F: FE20    	        CP 20H                  ; 1B3F
1B41: C2C718  	p1B41:  JP NZ,p18C7             ; 1B41
1B44: F1      	        POP AF                  ; 1B44
1B45: EB      	        EX DE,HL                ; 1B45
1B46: 21133E  	        LD HL,xf3E13            ; 1B46 buffer
1B49: 220F3E  	        LD (xw3E0F),HL          ; 1B49
1B4C: CDC918  	        CALL p18C9              ; 1B4C
1B4F: E603    	        AND 03H                 ; 1B4F
1B51: C5      	        PUSH BC                 ; 1B51
1B52: 4F      	        LD C,A                  ; 1B52
1B53: 0600    	        LD B,00H                ; 1B53
1B55: 21661B  	        LD HL,x1B66             ; 1B55 table
1B58: 09      	        ADD HL,BC               ; 1B58
1B59: 7E      	        LD A,(HL)               ; 1B59
1B5A: 2A0F3E  	        LD HL,(xw3E0F)          ; 1B5A
1B5D: 77      	        LD (HL),A               ; 1B5D
1B5E: 211B3E  	        LD HL,xf3E1B            ; 1B5E buffer address
1B61: 220F3E  	        LD (xw3E0F),HL          ; 1B61
1B64: C1      	        POP BC                  ; 1B64
1B65: C9      	        RET                     ; 1B65
              	
1B66: 20272221	x1B66:  DB 20H,27H,22H,21H      ; 1B66
              	
1B6A: 2AD23D  	p1B6A:  LD HL,(xw3DD2)          ; 1B6A
1B6D: 3AE43D  	        LD A,(xb3DE4)           ; 1B6D
1B70: B7      	        OR A                    ; 1B70
1B71: CA7F1B  	        JP Z,p1B7F              ; 1B71
1B74: D5      	        PUSH DE                 ; 1B74
1B75: EB      	        EX DE,HL                ; 1B75
1B76: 2AE53D  	        LD HL,(xw3DE5)          ; 1B76
1B79: 19      	        ADD HL,DE               ; 1B79
1B7A: D1      	        POP DE                  ; 1B7A
1B7B: 3AE73D  	        LD A,(xb3DE7)           ; 1B7B
1B7E: C9      	        RET                     ; 1B7E
              	
1B7F: 3AD13D  	p1B7F:  LD A,(xb3DD1)           ; 1B7F
1B82: C9      	        RET                     ; 1B82
              	
1B83: F5      	p1B83:  PUSH AF                 ; 1B83
1B84: C5      	        PUSH BC                 ; 1B84
1B85: 78      	        LD A,B                  ; 1B85
1B86: E603    	        AND 03H                 ; 1B86
1B88: FE03    	        CP 03H                  ; 1B88
1B8A: C2A61B  	        JP NZ,p1BA6             ; 1B8A
1B8D: D5      	        PUSH DE                 ; 1B8D
1B8E: E5      	        PUSH HL                 ; 1B8E
1B8F: 2ADC3D  	p1B8F:  LD HL,(xw3DDC)          ; 1B8F
1B92: EB      	        EX DE,HL                ; 1B92
1B93: 2ADE3D  	        LD HL,(xw3DDE)          ; 1B93
1B96: CD8D0D  	        CALL p0D8D              ; 1B96
1B99: 223F3D  	        LD (xw3D3F),HL          ; 1B99
1B9C: 22DC3D  	        LD (xw3DDC),HL          ; 1B9C
1B9F: 0E01    	        LD C,01H                ; 1B9F
1BA1: C4A91B  	        CALL NZ,p1BA9           ; 1BA1
1BA4: E1      	        POP HL                  ; 1BA4
1BA5: D1      	        POP DE                  ; 1BA5
1BA6: C1      	p1BA6:  POP BC                  ; 1BA6
1BA7: F1      	        POP AF                  ; 1BA7
1BA8: C9      	        RET                     ; 1BA8
              	
1BA9: C5      	p1BA9:  PUSH BC                 ; 1BA9
1BAA: 0600    	        LD B,00H                ; 1BAA
1BAC: CD3A1C  	        CALL p1C3A              ; 1BAC
1BAF: 41      	        LD B,C                  ; 1BAF
1BB0: 3E04    	        LD A,04H                ; 1BB0
1BB2: CD0B1C  	        CALL p1C0B              ; 1BB2
1BB5: C1      	        POP BC                  ; 1BB5
1BB6: 79      	        LD A,C                  ; 1BB6
1BB7: FE05    	        CP 05H                  ; 1BB7
1BB9: DAD01B  	        JP C,p1BD0              ; 1BB9
1BBC: FE0F    	        CP 0FH                  ; 1BBC
1BBE: C8      	        RET Z                   ; 1BBE
1BBF: 3E02    	        LD A,02H                ; 1BBF
1BC1: CD0B1C  	        CALL p1C0B              ; 1BC1
1BC4: 43      	        LD B,E                  ; 1BC4
1BC5: CD2B1C  	        CALL p1C2B              ; 1BC5
1BC8: 42      	        LD B,D                  ; 1BC8
1BC9: CD2B1C  	        CALL p1C2B              ; 1BC9
1BCC: 79      	        LD A,C                  ; 1BCC
1BCD: FE08    	        CP 08H                  ; 1BCD
1BCF: D0      	        RET NC                  ; 1BCF
1BD0: E5      	p1BD0:  PUSH HL                 ; 1BD0
1BD1: 0606    	        LD B,06H                ; 1BD1
1BD3: FE04    	        CP 04H                  ; 1BD3
1BD5: CADD1B  	        JP Z,p1BDD              ; 1BD5
1BD8: FE03    	        CP 03H                  ; 1BD8
1BDA: C2DE1B  	        JP NZ,p1BDE             ; 1BDA
1BDD: 04      	p1BDD:  INC B                   ; 1BDD
1BDE: 2A3F3D  	p1BDE:  LD HL,(xw3D3F)          ; 1BDE
1BE1: 2B      	        DEC HL                  ; 1BE1
1BE2: 7E      	        LD A,(HL)               ; 1BE2
1BE3: B8      	        CP B                    ; 1BE3
1BE4: DAE81B  	        JP C,p1BE8              ; 1BE4
1BE7: 78      	        LD A,B                  ; 1BE7
1BE8: 47      	p1BE8:  LD B,A                  ; 1BE8
1BE9: 57      	        LD D,A                  ; 1BE9
1BEA: 3E03    	        LD A,03H                ; 1BEA
1BEC: CD0B1C  	        CALL p1C0B              ; 1BEC
1BEF: 23      	        INC HL                  ; 1BEF
1BF0: 23      	        INC HL                  ; 1BF0
1BF1: 23      	        INC HL                  ; 1BF1
1BF2: 23      	        INC HL                  ; 1BF2
1BF3: 23      	        INC HL                  ; 1BF3
1BF4: 23      	        INC HL                  ; 1BF4
1BF5: 23      	        INC HL                  ; 1BF5
1BF6: 46      	p1BF6:  LD B,(HL)               ; 1BF6
1BF7: 79      	        LD A,C                  ; 1BF7
1BF8: FE04    	        CP 04H                  ; 1BF8
1BFA: CA011C  	        JP Z,p1C01              ; 1BFA
1BFD: 78      	        LD A,B                  ; 1BFD
1BFE: E67F    	        AND 7FH                 ; 1BFE
1C00: 47      	        LD B,A                  ; 1C00
1C01: CD2B1C  	p1C01:  CALL p1C2B              ; 1C01
1C04: 23      	        INC HL                  ; 1C04
1C05: 15      	        DEC D                   ; 1C05
1C06: C2F61B  	        JP NZ,p1BF6             ; 1C06
1C09: E1      	        POP HL                  ; 1C09
1C0A: C9      	        RET                     ; 1C0A
              	
1C0B: D5      	p1C0B:  PUSH DE                 ; 1C0B
1C0C: 57      	        LD D,A                  ; 1C0C
1C0D: 3E08    	        LD A,08H                ; 1C0D
1C0F: 92      	        SUB D                   ; 1C0F
1C10: CA1B1C  	        JP Z,p1C1B              ; 1C10
1C13: 5F      	        LD E,A                  ; 1C13
1C14: 78      	        LD A,B                  ; 1C14
1C15: 87      	p1C15:  ADD A,A                 ; 1C15
1C16: 1D      	        DEC E                   ; 1C16
1C17: C2151C  	        JP NZ,p1C15             ; 1C17
1C1A: 47      	        LD B,A                  ; 1C1A
1C1B: 78      	p1C1B:  LD A,B                  ; 1C1B
1C1C: 87      	        ADD A,A                 ; 1C1C
1C1D: 47      	        LD B,A                  ; 1C1D
1C1E: CD461C  	        CALL p1C46              ; 1C1E
1C21: 15      	        DEC D                   ; 1C21
1C22: C21B1C  	        JP NZ,p1C1B             ; 1C22
1C25: D1      	        POP DE                  ; 1C25
1C26: C9      	        RET                     ; 1C26
              	
1C27: AF      	p1C27:  XOR A                   ; 1C27
1C28: CD461C  	        CALL p1C46              ; 1C28
1C2B: C5      	p1C2B:  PUSH BC                 ; 1C2B
1C2C: 0E08    	        LD C,08H                ; 1C2C
1C2E: 78      	p1C2E:  LD A,B                  ; 1C2E
1C2F: 17      	        RLA                     ; 1C2F
1C30: 47      	        LD B,A                  ; 1C30
1C31: CD461C  	        CALL p1C46              ; 1C31
1C34: 0D      	        DEC C                   ; 1C34
1C35: C22E1C  	        JP NZ,p1C2E             ; 1C35
1C38: C1      	        POP BC                  ; 1C38
1C39: C9      	        RET                     ; 1C39
              	
1C3A: 37      	p1C3A:  SCF                     ; 1C3A
1C3B: CD461C  	        CALL p1C46              ; 1C3B
1C3E: 78      	        LD A,B                  ; 1C3E
1C3F: 1F      	        RRA                     ; 1C3F
1C40: 1F      	        RRA                     ; 1C40
1C41: CD461C  	        CALL p1C46              ; 1C41
1C44: 78      	        LD A,B                  ; 1C44
1C45: 1F      	        RRA                     ; 1C45
1C46: E5      	p1C46:  PUSH HL                 ; 1C46
1C47: 21C33E  	        LD HL,xb3EC3            ; 1C47
1C4A: 7E      	        LD A,(HL)               ; 1C4A
1C4B: 17      	        RLA                     ; 1C4B
1C4C: 77      	        LD (HL),A               ; 1C4C
1C4D: 23      	        INC HL                  ; 1C4D
1C4E: 34      	        INC (HL)                ; 1C4E
1C4F: C25A1C  	        JP NZ,p1C5A             ; 1C4F
1C52: CDDD4C  	        CALL p4CDD              ; 1C52
1C55: 3EF8    	        LD A,0F8H               ; 1C55
1C57: 32C43E  	        LD (xb3EC4),A           ; 1C57
1C5A: E1      	p1C5A:  POP HL                  ; 1C5A
1C5B: C9      	        RET                     ; 1C5B
              	
1C5C: C5      	p1C5C:  PUSH BC                 ; 1C5C
1C5D: CD550B  	        CALL p0B55              ; 1C5D
1C60: C1      	        POP BC                  ; 1C60
1C61: CA431E  	        JP Z,p1E43              ; 1C61
1C64: F2071D  	        JP P,p1D07              ; 1C64
1C67: FE20    	        CP ' '                  ; 1C67
1C69: CA5C1C  	        JP Z,p1C5C              ; 1C69 Skip spaces
1C6C: FE09    	        CP TAB                  ; 1C6C TAB
1C6E: CA5C1C  	        JP Z,p1C5C              ; 1C6E Skip tabs
1C71: FE27    	        CP "'"                  ; 1C71
1C73: CAC31C  	        JP Z,p1CC3              ; 1C73
1C76: FE22    	        CP '"'                  ; 1C76
1C78: CAC31C  	        JP Z,p1CC3              ; 1C78
1C7B: FE28    	        CP '('                  ; 1C7B
1C7D: CAAC1C  	        JP Z,p1CAC              ; 1C7D
1C80: FE29    	        CP ')'                  ; 1C80
1C82: CAAF1C  	        JP Z,p1CAF              ; 1C82 *
1C85: FE2B    	        CP '+'                  ; 1C85
1C87: CAB21C  	        JP Z,p1CB2              ; 1C87 *
1C8A: FE2D    	        CP '-'                  ; 1C8A
1C8C: CAB51C  	        JP Z,p1CB5              ; 1C8C *
1C8F: FE2A    	        CP '*'                  ; 1C8F
1C91: CAB81C  	        JP Z,p1CB8              ; 1C91 *
1C94: FE2F    	        CP '/'                  ; 1C94
1C96: CABB1C  	        JP Z,p1CBB              ; 1C96 *
1C99: FE3B    	        CP ';'                  ; 1C99
1C9B: CAA81C  	        JP Z,p1CA8              ; 1C9B
1C9E: FE2C    	        CP ','                  ; 1C9E
1CA0: CAA81C  	        JP Z,p1CA8              ; 1CA0
1CA3: FE0D    	        CP CR                   ; 1CA3 <CR>
1CA5: C4C104  	        CALL NZ,p04C1           ; 1CA5
1CA8: AF      	p1CA8:  XOR A                   ; 1CA8
1CA9: C3C01C  	        JP p1CC0                ; 1CA9
              	
              	; *Jumps into mid code
1CAC: 3E02    	p1CAC:  LD A,02H                ; 1CAC
1CAE: 11      	        DB 11H                  ; 1CAE (LD DE,033EH)
1CAF: 3E03    	p1CAF:  LD A,03H                ; 1CAF
1CB1: 11      	        DB 11H                  ; 1CB1 (LD DE,093EH)
1CB2: 3E08    	p1CB2:  LD A,08H                ; 1CB2
1CB4: 11      	        DB 11H                  ; 1CB4 (LD DE,093EH) 
1CB5: 3E09    	p1CB5:  LD A,09H                ; 1CB5
1CB7: 11      	        DB 11H                  ; 1CB7 (LD DE,0A3EH)
1CB8: 3E0A    	p1CB8:  LD A,0AH                ; 1CB8
1CBA: 11      	        DB 11H                  ; 1CBA (LD DE,0B3EH)
1CBB: 3E0B    	p1CBB:  LD A,0BH                ; 1CBB
1CBD: 11      	        DB 11H                  ; 1CBD (LD DE,013EH)
1CBE: 3E01    	p1CBE:  LD A,01H                ; 1CBE 
1CC0: FE01    	p1CC0:  CP 01H                  ; 1CC0
1CC2: C9      	        RET                     ; 1CC2
              	
1CC3: 210000  	p1CC3:  LD HL,0000H             ; 1CC3
1CC6: C5      	        PUSH BC                 ; 1CC6
1CC7: 47      	        LD B,A                  ; 1CC7
1CC8: CD290B  	        CALL p0B29              ; 1CC8
1CCB: B8      	        CP B                    ; 1CCB
1CCC: C2D91C  	        JP NZ,p1CD9             ; 1CCC
1CCF: CD230B  	        CALL p0B23              ; 1CCF
1CD2: B8      	        CP B                    ; 1CD2
1CD3: C2F91C  	        JP NZ,p1CF9             ; 1CD3
1CD6: CD290B  	        CALL p0B29              ; 1CD6
1CD9: 6F      	p1CD9:  LD L,A                  ; 1CD9
1CDA: 32E23D  	        LD (xb3DE2),A           ; 1CDA
1CDD: CD290B  	        CALL p0B29              ; 1CDD
1CE0: B8      	        CP B                    ; 1CE0
1CE1: C2EF1C  	        JP NZ,p1CEF             ; 1CE1
1CE4: CD230B  	        CALL p0B23              ; 1CE4
1CE7: B8      	        CP B                    ; 1CE7
1CE8: 78      	        LD A,B                  ; 1CE8
1CE9: C2F41C  	        JP NZ,p1CF4             ; 1CE9
1CEC: CD290B  	        CALL p0B29              ; 1CEC
1CEF: 65      	p1CEF:  LD H,L                  ; 1CEF
1CF0: 6F      	        LD L,A                  ; 1CF0
1CF1: CD290B  	        CALL p0B29              ; 1CF1
1CF4: B8      	p1CF4:  CP B                    ; 1CF4
1CF5: C1      	        POP BC                  ; 1CF5
1CF6: C36E1D  	        JP p1D6E                ; 1CF6
              	
1CF9: 11E23D  	p1CF9:  LD DE,xb3DE2            ; 1CF9
1CFC: 1A      	        LD A,(DE)               ; 1CFC
1CFD: B7      	        OR A                    ; 1CFD
1CFE: C2031D  	        JP NZ,p1D03             ; 1CFE
1D01: 3D      	        DEC A                   ; 1D01
1D02: 12      	        LD (DE),A               ; 1D02
1D03: 78      	p1D03:  LD A,B                  ; 1D03
1D04: C3F41C  	        JP p1CF4                ; 1D04
              	
1D07: 2A463D  	p1D07:  LD HL,(xw3D46)          ; 1D07
1D0A: 2B      	        DEC HL                  ; 1D0A
1D0B: E5      	        PUSH HL                 ; 1D0B
1D0C: CD480B  	p1D0C:  CALL p0B48              ; 1D0C
1D0F: F20C1D  	        JP P,p1D0C              ; 1D0F
1D12: 32E23D  	        LD (xb3DE2),A           ; 1D12
1D15: 2A463D  	        LD HL,(xw3D46)          ; 1D15
1D18: 2B      	        DEC HL                  ; 1D18
1D19: 2B      	        DEC HL                  ; 1D19
1D1A: 22463D  	        LD (xw3D46),HL          ; 1D1A
1D1D: CD480B  	        CALL p0B48              ; 1D1D
1D20: E1      	        POP HL                  ; 1D20
1D21: 22463D  	        LD (xw3D46),HL          ; 1D21
1D24: C2FB1D  	        JP NZ,p1DFB             ; 1D24
1D27: FE47    	        CP 47H                  ; 1D27
1D29: D2481D  	        JP NC,p1D48             ; 1D29
1D2C: 67      	        LD H,A                  ; 1D2C
1D2D: 3AF13C  	        LD A,(xb3CF1)           ; 1D2D
1D30: FE0E    	        CP 0EH                  ; 1D30
1D32: D2FB1D  	        JP NC,p1DFB             ; 1D32
1D35: 6F      	        LD L,A                  ; 1D35
1D36: 7C      	        LD A,H                  ; 1D36
1D37: FE44    	        CP 44H                  ; 1D37
1D39: CA481D  	        JP Z,p1D48              ; 1D39
1D3C: FE42    	        CP 42H                  ; 1D3C
1D3E: C2FB1D  	        JP NZ,p1DFB             ; 1D3E
1D41: 7D      	        LD A,L                  ; 1D41
1D42: FE0C    	        CP 0CH                  ; 1D42
1D44: D2FB1D  	        JP NC,p1DFB             ; 1D44
1D47: 7C      	        LD A,H                  ; 1D47
1D48: FE42    	p1D48:  CP 42H                  ; 1D48
1D4A: CA771D  	        JP Z,p1D77              ; 1D4A
1D4D: FE44    	        CP 44H                  ; 1D4D
1D4F: CA951D  	        JP Z,p1D95              ; 1D4F
1D52: FE48    	        CP 48H                  ; 1D52
1D54: CA9D1D  	        JP Z,p1D9D              ; 1D54
1D57: FE4F    	        CP 4FH                  ; 1D57
1D59: CA641D  	        JP Z,p1D64              ; 1D59
1D5C: FE51    	        CP 51H                  ; 1D5C
1D5E: C4C104  	        CALL NZ,p04C1           ; 1D5E
1D61: C2951D  	        JP NZ,p1D95             ; 1D61
1D64: CDBC1D  	p1D64:  CALL p1DBC              ; 1D64
1D67: FE4F    	        CP 4FH                  ; 1D67
1D69: CA711D  	        JP Z,p1D71              ; 1D69
1D6C: FE51    	        CP 51H                  ; 1D6C
1D6E: C4C104  	p1D6E:  CALL NZ,p04C1           ; 1D6E
1D71: 0E20    	p1D71:  LD C,20H                ; 1D71
1D73: EB      	        EX DE,HL                ; 1D73
1D74: C3BE1C  	        JP p1CBE                ; 1D74
              	
1D77: 210000  	p1D77:  LD HL,0000H             ; 1D77
1D7A: CD480B  	p1D7A:  CALL p0B48              ; 1D7A
1D7D: FE42    	        CP 42H                  ; 1D7D
1D7F: CA711D  	        JP Z,p1D71              ; 1D7F
1D82: D630    	        SUB 30H                 ; 1D82
1D84: FCBB04  	        CALL M,p04BB            ; 1D84
1D87: FE02    	        CP 02H                  ; 1D87
1D89: D4BB04  	        CALL NC,p04BB           ; 1D89
1D8C: 29      	        ADD HL,HL               ; 1D8C
1D8D: B7      	        OR A                    ; 1D8D
1D8E: CA7A1D  	        JP Z,p1D7A              ; 1D8E
1D91: 23      	        INC HL                  ; 1D91
1D92: C37A1D  	        JP p1D7A                ; 1D92
              	
1D95: CDA51D  	p1D95:  CALL p1DA5              ; 1D95
1D98: FE44    	        CP 44H                  ; 1D98
1D9A: C36E1D  	        JP p1D6E                ; 1D9A
              	
1D9D: CDD51D  	p1D9D:  CALL p1DD5              ; 1D9D
1DA0: FE48    	        CP 48H                  ; 1DA0
1DA2: C36E1D  	        JP p1D6E                ; 1DA2
              	
1DA5: 210000  	p1DA5:  LD HL,0000H             ; 1DA5
1DA8: CD480B  	p1DA8:  CALL p0B48              ; 1DA8
1DAB: C8      	        RET Z                   ; 1DAB
1DAC: F8      	        RET M                   ; 1DAC
1DAD: D630    	        SUB 30H                 ; 1DAD
1DAF: 29      	        ADD HL,HL               ; 1DAF
1DB0: 54      	        LD D,H                  ; 1DB0
1DB1: 5D      	        LD E,L                  ; 1DB1
1DB2: 29      	        ADD HL,HL               ; 1DB2
1DB3: 29      	        ADD HL,HL               ; 1DB3
1DB4: 19      	        ADD HL,DE               ; 1DB4
1DB5: 1600    	        LD D,00H                ; 1DB5
1DB7: 5F      	        LD E,A                  ; 1DB7
1DB8: 19      	        ADD HL,DE               ; 1DB8
1DB9: C3A81D  	        JP p1DA8                ; 1DB9
              	
1DBC: 210000  	p1DBC:  LD HL,0000H             ; 1DBC
1DBF: CD480B  	p1DBF:  CALL p0B48              ; 1DBF
1DC2: C8      	        RET Z                   ; 1DC2
1DC3: F8      	        RET M                   ; 1DC3
1DC4: D630    	        SUB 30H                 ; 1DC4
1DC6: FE08    	        CP 08H                  ; 1DC6
1DC8: D4BB04  	        CALL NC,p04BB           ; 1DC8
1DCB: 29      	        ADD HL,HL               ; 1DCB
1DCC: 29      	        ADD HL,HL               ; 1DCC
1DCD: 29      	        ADD HL,HL               ; 1DCD
1DCE: 5F      	        LD E,A                  ; 1DCE
1DCF: 1600    	        LD D,00H                ; 1DCF
1DD1: 19      	        ADD HL,DE               ; 1DD1
1DD2: C3BF1D  	        JP p1DBF                ; 1DD2
              	
1DD5: 210000  	p1DD5:  LD HL,0000H             ; 1DD5
1DD8: CD480B  	p1DD8:  CALL p0B48              ; 1DD8
1DDB: F8      	        RET M                   ; 1DDB
1DDC: FE47    	        CP 47H                  ; 1DDC
1DDE: D2F51D  	        JP NC,p1DF5             ; 1DDE
1DE1: D630    	        SUB 30H                 ; 1DE1
1DE3: FE0A    	        CP 0AH                  ; 1DE3
1DE5: DAEA1D  	        JP C,p1DEA              ; 1DE5
1DE8: D607    	        SUB 07H                 ; 1DE8
1DEA: 29      	p1DEA:  ADD HL,HL               ; 1DEA
1DEB: 29      	        ADD HL,HL               ; 1DEB
1DEC: 29      	        ADD HL,HL               ; 1DEC
1DED: 29      	        ADD HL,HL               ; 1DED
1DEE: 5F      	        LD E,A                  ; 1DEE
1DEF: 1600    	        LD D,00H                ; 1DEF
1DF1: 19      	        ADD HL,DE               ; 1DF1
1DF2: C3D81D  	        JP p1DD8                ; 1DF2
              	
1DF5: FE48    	p1DF5:  CP 48H                  ; 1DF5
1DF7: C8      	        RET Z                   ; 1DF7
1DF8: C3BB04  	        JP p04BB                ; 1DF8
              	
1DFB: 3AF23C  	p1DFB:  LD A,(xb3CF2)           ; 1DFB
1DFE: B7      	        OR A                    ; 1DFE
1DFF: C2341E  	        JP NZ,p1E34             ; 1DFF
1E02: 210000  	        LD HL,0000H             ; 1E02
1E05: C5      	        PUSH BC                 ; 1E05
1E06: CD480B  	p1E06:  CALL p0B48              ; 1E06
1E09: FA301E  	        JP M,p1E30              ; 1E09
1E0C: D630    	        SUB 30H                 ; 1E0C
1E0E: FE0A    	        CP 0AH                  ; 1E0E
1E10: DA181E  	        JP C,p1E18              ; 1E10
1E13: D607    	        SUB 07H                 ; 1E13
1E15: DCBB04  	        CALL C,p04BB            ; 1E15
1E18: 4F      	p1E18:  LD C,A                  ; 1E18
1E19: 0600    	        LD B,00H                ; 1E19
1E1B: 3AF13C  	        LD A,(xb3CF1)           ; 1E1B
1E1E: 3D      	        DEC A                   ; 1E1E
1E1F: B9      	        CP C                    ; 1E1F
1E20: DCBB04  	        CALL C,p04BB            ; 1E20
1E23: 3C      	        INC A                   ; 1E23
1E24: 5F      	        LD E,A                  ; 1E24
1E25: 50      	        LD D,B                  ; 1E25
1E26: C5      	        PUSH BC                 ; 1E26
1E27: CD6324  	        CALL p2463              ; 1E27
1E2A: EB      	        EX DE,HL                ; 1E2A
1E2B: C1      	        POP BC                  ; 1E2B
1E2C: 09      	        ADD HL,BC               ; 1E2C
1E2D: C3061E  	        JP p1E06                ; 1E2D
              	
1E30: C1      	p1E30:  POP BC                  ; 1E30
1E31: C33D1E  	        JP p1E3D                ; 1E31
              	
1E34: CDA51D  	p1E34:  CALL p1DA5              ; 1E34
1E37: C33D1E  	        JP p1E3D                ; 1E37
              	
1E3A: CDBC1D  	        CALL p1DBC              ; 1E3A
1E3D: CD360B  	p1E3D:  CALL p0B36              ; 1E3D
1E40: C3711D  	        JP p1D71                ; 1E40
              	
1E43: C5      	p1E43:  PUSH BC                 ; 1E43
1E44: CD360B  	        CALL p0B36              ; 1E44
1E47: 3AE93D  	        LD A,(xb3DE9)           ; 1E47
1E4A: 32E23D  	        LD (xb3DE2),A           ; 1E4A
1E4D: FE05    	        CP 05H                  ; 1E4D
1E4F: D2BF1E  	        JP NC,p1EBF             ; 1E4F
1E52: 3D      	        DEC A                   ; 1E52
1E53: CAE41F  	        JP Z,p1FE4              ; 1E53
1E56: CD240C  	        CALL p0C24              ; 1E56
1E59: CABF1E  	        JP Z,p1EBF              ; 1E59
1E5C: 211020  	        LD HL,x2010             ; 1E5C Operand table
1E5F: 011200  	        LD BC,0012H             ; 1E5F
1E62: 0D      	p1E62:  DEC C                   ; 1E62
1E63: CABF1E  	        JP Z,p1EBF              ; 1E63
1E66: 04      	        INC B                   ; 1E66
1E67: 05      	p1E67:  DEC B                   ; 1E67
1E68: CA6F1E  	        JP Z,p1E6F              ; 1E68
1E6B: 23      	        INC HL                  ; 1E6B
1E6C: C3671E  	        JP p1E67                ; 1E6C
              	
1E6F: 0604    	p1E6F:  LD B,04H                ; 1E6F
1E71: 11EA3D  	        LD DE,xb3DEA            ; 1E71
1E74: 1A      	p1E74:  LD A,(DE)               ; 1E74
1E75: BE      	        CP (HL)                 ; 1E75
1E76: C2621E  	        JP NZ,p1E62             ; 1E76
1E79: 13      	        INC DE                  ; 1E79
1E7A: 23      	        INC HL                  ; 1E7A
1E7B: 05      	        DEC B                   ; 1E7B
1E7C: C2741E  	        JP NZ,p1E74             ; 1E7C
1E7F: 215320  	        LD HL,x2054-1           ; 1E7F end of list
1E82: 09      	        ADD HL,BC               ; 1E82
1E83: 7E      	        LD A,(HL)               ; 1E83
1E84: FE1E    	        CP 1EH                  ; 1E84
1E86: C28C1E  	        JP NZ,p1E8C             ; 1E86
1E89: 32EB3C  	        LD (xb3CEB),A           ; 1E89
1E8C: C1      	p1E8C:  POP BC                  ; 1E8C
1E8D: B7      	        OR A                    ; 1E8D
1E8E: F2C01C  	        JP P,p1CC0              ; 1E8E
1E91: CDC80B  	        CALL p0BC8              ; 1E91
1E94: 11FFFF  	        LD DE,0FFFFH            ; 1E94
1E97: FE3B    	p1E97:  CP ';'                  ; 1E97
1E99: CAB91E  	        JP Z,p1EB9              ; 1E99
1E9C: FE0D    	        CP CR                   ; 1E9C <CR>
1E9E: CAB91E  	        JP Z,p1EB9              ; 1E9E
1EA1: B7      	        OR A                    ; 1EA1
1EA2: C2B01E  	        JP NZ,p1EB0             ; 1EA2
1EA5: CDEA0A  	        CALL p0AEA              ; 1EA5
1EA8: FE26    	        CP '&'                  ; 1EA8
1EAA: CCEA0A  	        CALL Z,p0AEA            ; 1EAA
1EAD: C3971E  	        JP p1E97                ; 1EAD
              	
1EB0: CDEA0A  	p1EB0:  CALL p0AEA              ; 1EB0
1EB3: FE0D    	        CP CR                   ; 1EB3 <CR>
1EB5: C2B01E  	        JP NZ,p1EB0             ; 1EB5
1EB8: 13      	        INC DE                  ; 1EB8
1EB9: CD360B  	p1EB9:  CALL p0B36              ; 1EB9
1EBC: C3BE1C  	        JP p1CBE                ; 1EBC
              	
1EBF: 2A463D  	p1EBF:  LD HL,(xw3D46)          ; 1EBF
1EC2: E5      	        PUSH HL                 ; 1EC2
1EC3: CDEA0A  	        CALL p0AEA              ; 1EC3
1EC6: FE23    	        CP 23H                  ; 1EC6
1EC8: C2ED1E  	        JP NZ,p1EED             ; 1EC8
1ECB: CDEA0A  	        CALL p0AEA              ; 1ECB
1ECE: FE23    	        CP 23H                  ; 1ECE
1ED0: C2ED1E  	        JP NZ,p1EED             ; 1ED0
1ED3: 37      	        SCF                     ; 1ED3
1ED4: CDFC0C  	        CALL p0CFC              ; 1ED4
1ED7: CD152D  	        CALL p2D15              ; 1ED7
1EDA: 23      	        INC HL                  ; 1EDA
1EDB: 7E      	        LD A,(HL)               ; 1EDB
1EDC: 47      	        LD B,A                  ; 1EDC
1EDD: E620    	        AND 20H                 ; 1EDD
1EDF: C4B504  	        CALL NZ,p04B5           ; 1EDF
1EE2: 78      	        LD A,B                  ; 1EE2
1EE3: E603    	        AND 03H                 ; 1EE3
1EE5: F680    	        OR 80H                  ; 1EE5
1EE7: 77      	        LD (HL),A               ; 1EE7
1EE8: C1      	        POP BC                  ; 1EE8
1EE9: 2B      	        DEC HL                  ; 1EE9
1EEA: C3211F  	        JP p1F21                ; 1EEA
              	
1EED: E1      	p1EED:  POP HL                  ; 1EED
1EEE: 22463D  	        LD (xw3D46),HL          ; 1EEE
1EF1: CD240C  	        CALL p0C24              ; 1EF1
1EF4: CA741F  	        JP Z,p1F74              ; 1EF4
1EF7: 3AEA3C  	        LD A,(xb3CEA)           ; 1EF7
1EFA: 87      	        ADD A,A                 ; 1EFA
1EFB: CA041F  	        JP Z,p1F04              ; 1EFB
1EFE: CD1505  	        CALL p0515              ; 1EFE
1F01: CAAE1F  	        JP Z,p1FAE              ; 1F01
1F04: 3AEB3C  	p1F04:  LD A,(xb3CEB)           ; 1F04
1F07: B7      	        OR A                    ; 1F07
1F08: CA1D1F  	        JP Z,p1F1D              ; 1F08
1F0B: 37      	        SCF                     ; 1F0B
1F0C: CD930D  	        CALL p0D93              ; 1F0C
1F0F: CD240C  	        CALL p0C24              ; 1F0F
1F12: CA211F  	        JP Z,p1F21              ; 1F12
1F15: AF      	        XOR A                   ; 1F15
1F16: 2A1D40  	        LD HL,(xw401D)          ; 1F16
1F19: 77      	        LD (HL),A               ; 1F19
1F1A: C3211F  	        JP p1F21                ; 1F1A
              	
1F1D: 37      	p1F1D:  SCF                     ; 1F1D
1F1E: CDFC0C  	        CALL p0CFC              ; 1F1E
1F21: E6A3    	p1F21:  AND 0A3H                ; 1F21
1F23: 47      	        LD B,A                  ; 1F23
1F24: E680    	        AND 80H                 ; 1F24
1F26: 78      	        LD A,B                  ; 1F26
1F27: CA321F  	        JP Z,p1F32              ; 1F27
1F2A: 32BE3E  	        LD (xb3EBE),A           ; 1F2A
1F2D: 0680    	        LD B,80H                ; 1F2D
1F2F: 22BF3E  	        LD (xw3EBF),HL          ; 1F2F
1F32: E610    	p1F32:  AND 10H                 ; 1F32
1F34: C4A904  	        CALL NZ,p04A9           ; 1F34
1F37: 3AEA3C  	        LD A,(xb3CEA)           ; 1F37
1F3A: 87      	        ADD A,A                 ; 1F3A
1F3B: 3E00    	        LD A,00H                ; 1F3B
1F3D: C2431F  	        JP NZ,p1F43             ; 1F3D
1F40: 7E      	        LD A,(HL)               ; 1F40
1F41: E640    	        AND 40H                 ; 1F41
1F43: B7      	p1F43:  OR A                    ; 1F43
1F44: 78      	        LD A,B                  ; 1F44
1F45: 23      	        INC HL                  ; 1F45
1F46: 23      	        INC HL                  ; 1F46
1F47: 5E      	        LD E,(HL)               ; 1F47
1F48: 23      	        INC HL                  ; 1F48
1F49: 56      	        LD D,(HL)               ; 1F49
1F4A: C1      	        POP BC                  ; 1F4A
1F4B: 4F      	        LD C,A                  ; 1F4B
1F4C: CA511F  	        JP Z,p1F51              ; 1F4C
1F4F: 1E00    	        LD E,00H                ; 1F4F
1F51: E603    	p1F51:  AND 03H                 ; 1F51
1F53: FE03    	        CP 03H                  ; 1F53
1F55: C2621F  	        JP NZ,p1F62             ; 1F55
1F58: D5      	        PUSH DE                 ; 1F58
1F59: 23      	        INC HL                  ; 1F59
1F5A: 5E      	        LD E,(HL)               ; 1F5A
1F5B: 23      	        INC HL                  ; 1F5B
1F5C: 56      	        LD D,(HL)               ; 1F5C
1F5D: EB      	        EX DE,HL                ; 1F5D
1F5E: 22DE3D  	        LD (xw3DDE),HL          ; 1F5E
1F61: D1      	        POP DE                  ; 1F61
1F62: 79      	p1F62:  LD A,C                  ; 1F62
1F63: E620    	        AND 20H                 ; 1F63
1F65: 79      	        LD A,C                  ; 1F65
1F66: C2BE1C  	        JP NZ,p1CBE             ; 1F66
1F69: E680    	        AND 80H                 ; 1F69
1F6B: CCD904  	        CALL Z,p04D9            ; 1F6B
1F6E: 110000  	        LD DE,0000H             ; 1F6E
1F71: C3BE1C  	        JP p1CBE                ; 1F71
              	
1F74: E5      	p1F74:  PUSH HL                 ; 1F74
1F75: F5      	        PUSH AF                 ; 1F75
1F76: 37      	        SCF                     ; 1F76
1F77: CD930D  	        CALL p0D93              ; 1F77
1F7A: F1      	        POP AF                  ; 1F7A
1F7B: E1      	        POP HL                  ; 1F7B
1F7C: 223F3D  	        LD (xw3D3F),HL          ; 1F7C
1F7F: 7E      	        LD A,(HL)               ; 1F7F
1F80: E67F    	        AND 7FH                 ; 1F80
1F82: FE42    	        CP 42H                  ; 1F82
1F84: DAA81F  	        JP C,p1FA8              ; 1F84
1F87: 7E      	        LD A,(HL)               ; 1F87
1F88: E638    	        AND 38H                 ; 1F88
1F8A: F5      	        PUSH AF                 ; 1F8A
1F8B: 3AE73C  	        LD A,(xb3CE7)           ; 1F8B
1F8E: B7      	        OR A                    ; 1F8E
1F8F: C4C104  	        CALL NZ,p04C1           ; 1F8F
1F92: F1      	        POP AF                  ; 1F92
1F93: 32E73C  	        LD (xb3CE7),A           ; 1F93
1F96: 23      	        INC HL                  ; 1F96
1F97: 23      	        INC HL                  ; 1F97
1F98: 7E      	        LD A,(HL)               ; 1F98
1F99: 32E83C  	        LD (xb3CE8),A           ; 1F99
1F9C: CD6520  	        CALL p2065              ; 1F9C
1F9F: CC7A20  	        CALL Z,p207A            ; 1F9F
1FA2: 2B      	        DEC HL                  ; 1FA2
1FA3: 7E      	        LD A,(HL)               ; 1FA3
1FA4: 2B      	        DEC HL                  ; 1FA4
1FA5: C3211F  	        JP p1F21                ; 1FA5
              	
1FA8: 23      	p1FA8:  INC HL                  ; 1FA8
1FA9: 7E      	        LD A,(HL)               ; 1FA9
1FAA: 2B      	        DEC HL                  ; 1FAA
1FAB: C3211F  	        JP p1F21                ; 1FAB
              	
1FAE: B7      	p1FAE:  OR A                    ; 1FAE
1FAF: FA041F  	        JP M,p1F04              ; 1FAF
1FB2: 23      	        INC HL                  ; 1FB2
1FB3: 5E      	        LD E,(HL)               ; 1FB3
1FB4: E678    	        AND 78H                 ; 1FB4
1FB6: 1F      	        RRA                     ; 1FB6
1FB7: 1F      	        RRA                     ; 1FB7
1FB8: 1F      	        RRA                     ; 1FB8
1FB9: 4F      	        LD C,A                  ; 1FB9
1FBA: 1600    	        LD D,00H                ; 1FBA
1FBC: 42      	        LD B,D                  ; 1FBC
1FBD: 21DA1F  	        LD HL,x1FDA             ; 1FBD
1FC0: 09      	        ADD HL,BC               ; 1FC0
1FC1: 7E      	        LD A,(HL)               ; 1FC1
1FC2: B7      	        OR A                    ; 1FC2
1FC3: CAD41F  	        JP Z,p1FD4              ; 1FC3
1FC6: FE1D    	        CP 1DH                  ; 1FC6
1FC8: C2CE1F  	        JP NZ,p1FCE             ; 1FC8
1FCB: 32C73E  	        LD (xb3EC7),A           ; 1FCB
1FCE: C1      	p1FCE:  POP BC                  ; 1FCE
1FCF: 0E20    	        LD C,20H                ; 1FCF
1FD1: C3C01C  	        JP p1CC0                ; 1FD1
              	
1FD4: C1      	p1FD4:  POP BC                  ; 1FD4
1FD5: 0E20    	        LD C,20H                ; 1FD5
1FD7: C3BE1C  	        JP p1CBE                ; 1FD7
              	;=====================================
1FDA: 001B1A18	x1FDA:  DB 00H,1BH,1AH,18H
1FDE: 1900001D	        DB 19H,00H,00H,1DH
1FE2: 191A    	        DB 19H,1AH
              	;=====================================
1FE4: 3AEA3D  	p1FE4:  LD A,(xb3DEA)           ; 1FE4
1FE7: FE58    	        CP 58H                  ; 1FE7
1FE9: C20020  	        JP NZ,p2000             ; 1FE9
1FEC: CD230B  	        CALL p0B23              ; 1FEC
1FEF: FE27    	        CP 27H                  ; 1FEF
1FF1: C2BF1E  	        JP NZ,p1EBF             ; 1FF1
1FF4: CDEA0A  	        CALL p0AEA              ; 1FF4
1FF7: CDD51D  	        CALL p1DD5              ; 1FF7
1FFA: FE27    	        CP 27H                  ; 1FFA
1FFC: C1      	        POP BC                  ; 1FFC
1FFD: C36E1D  	        JP p1D6E                ; 1FFD
              	
2000: FE24    	p2000:  CP 24H                  ; 2000
2002: C2BF1E  	        JP NZ,p1EBF             ; 2002
2005: CD6A1B  	        CALL p1B6A              ; 2005
2008: EB      	        EX DE,HL                ; 2008
2009: C620    	        ADD A,20H               ; 2009
200B: C1      	        POP BC                  ; 200B
200C: 4F      	        LD C,A                  ; 200C
200D: C3BE1C  	        JP p1CBE                ; 200D
              	
2010: 584F5220	x2010:  DB "XOR AND NOT MOD "
2014: 414E4420	
2018: 4E4F5420	
201C: 4D4F4420	
2020: 53484C20	        DB "SHL SHR OR  EQ  "
2024: 53485220	
2028: 4F522020	
202C: 45512020	
2030: 4E452020	        DB "NE  LT  LE  GT  "
2034: 4C542020	
2038: 4C452020	
203C: 47542020	
2040: 47452020	        DB "GE  LOW HIGHNUL "
2044: 4C4F5720	
2048: 48494748	
204C: 4E554C20	
2050: 54595045	        DB "TYPE"
              	
2054: 1EFF    	x2054:  DB 1EH,0FFH             ; 2054
2056: 16151413	        DB 16H,15H,14H,13H      ; 2056
205A: 1211100F	        DB 12H,11H,10H,0FH      ; 205A
205E: 040E0D0C	        DB 04H,0EH,0DH,0CH      ; 205E 
2062: 070605  	        DB 07H,06H,05H          ; 2063      
              	
2065: 3AE73C  	p2065:  LD A,(xb3CE7)           ; 2065
2068: FE20    	        CP ' '                  ; 2068
206A: C0      	        RET NZ                  ; 206A
206B: 3AE83C  	        LD A,(xb3CE8)           ; 206B
206E: FE06    	        CP 06H                  ; 206E ^F
2070: C0      	        RET NZ                  ; 2070
2071: 3AE63C  	        LD A,(xb3CE6)           ; 2071
2074: FE41    	        CP 'A'                  ; 2074
2076: C8      	        RET Z                   ; 2076
2077: FE61    	        CP 'a'                  ; 2077
2079: C9      	        RET                     ; 2079
              	
207A: CD230B  	p207A:  CALL p0B23              ; 207A
207D: FE27    	        CP 27H                  ; 207D
207F: CCEA0A  	        CALL Z,p0AEA            ; 207F
2082: C9      	        RET                     ; 2082
              	
2083: AF      	p2083:  XOR A                   ; 2083
2084: 47      	        LD B,A                  ; 2084
2085: 0E20    	        LD C,20H                ; 2085
2087: 6F      	        LD L,A                  ; 2087
2088: 67      	        LD H,A                  ; 2088
2089: 32C73E  	        LD (xb3EC7),A           ; 2089
208C: 32BD3E  	        LD (xb3EBD),A           ; 208C
208F: 32E23D  	        LD (xb3DE2),A           ; 208F
2092: 32EB3C  	        LD (xb3CEB),A           ; 2092
2095: 32D43E  	        LD (xb3ED4),A           ; 2095
2098: 32D53E  	        LD (xf3ED5),A           ; 2098
209B: 32D33E  	        LD (xb3ED3),A           ; 209B
209E: 32E73C  	        LD (xb3CE7),A           ; 209E
20A1: 32E83C  	        LD (xb3CE8),A           ; 20A1
20A4: 39      	        ADD HL,SP               ; 20A4
20A5: 22C83E  	        LD (xw3EC8),HL          ; 20A5
20A8: EB      	        EX DE,HL                ; 20A8
20A9: 2A2940  	        LD HL,(xw4029)          ; 20A9
20AC: CD8D0D  	        CALL p0D8D              ; 20AC
20AF: D21434  	        JP NC,p3414             ; 20AF
20B2: C5      	        PUSH BC                 ; 20B2
20B3: CD5C1C  	p20B3:  CALL p1C5C              ; 20B3
20B6: FA1B21  	        JP M,p211B              ; 20B6
20B9: CA5D21  	        JP Z,p215D              ; 20B9
20BC: FE03    	        CP 03H                  ; 20BC
20BE: FA7E21  	        JP M,p217E              ; 20BE
20C1: CAF221  	        JP Z,p21F2              ; 20C1
20C4: FE18    	        CP 18H                  ; 20C4
20C6: DACE20  	        JP C,p20CE              ; 20C6
20C9: FE1E    	        CP 1EH                  ; 20C9
20CB: DC6621  	        CALL C,p2166            ; 20CB
20CE: 4F      	p20CE:  LD C,A                  ; 20CE
20CF: 32C63E  	        LD (xb3EC6),A           ; 20CF
20D2: CD8321  	        CALL p2183              ; 20D2
20D5: 3D      	        DEC A                   ; 20D5
20D6: B8      	        CP B                    ; 20D6
20D7: 79      	        LD A,C                  ; 20D7
20D8: D20C22  	        JP NC,p220C             ; 20D8
20DB: FE08    	        CP 08H                  ; 20DB
20DD: CA0422  	        JP Z,p2204              ; 20DD
20E0: FE09    	        CP 09H                  ; 20E0
20E2: CA0422  	        JP Z,p2204              ; 20E2
20E5: CD3F22  	p20E5:  CALL p223F              ; 20E5
20E8: 79      	        LD A,C                  ; 20E8
20E9: 32573F  	        LD (xb3F57),A           ; 20E9
20EC: CD8E21  	        CALL p218E              ; 20EC
20EF: FE02    	        CP 02H                  ; 20EF
20F1: CA3C21  	        JP Z,p213C              ; 20F1
20F4: B7      	        OR A                    ; 20F4
20F5: C20721  	        JP NZ,p2107             ; 20F5
20F8: 3AC63E  	        LD A,(xb3EC6)           ; 20F8
20FB: FE03    	        CP 03H                  ; 20FB
20FD: C23C21  	        JP NZ,p213C             ; 20FD
2100: CCC104  	        CALL Z,p04C1            ; 2100
2103: C5      	        PUSH BC                 ; 2103
2104: C33C21  	        JP p213C                ; 2104
              	
2107: C5      	p2107:  PUSH BC                 ; 2107
2108: CD8321  	        CALL p2183              ; 2108
210B: F5      	        PUSH AF                 ; 210B
210C: 3A573F  	        LD A,(xb3F57)           ; 210C
210F: 4F      	        LD C,A                  ; 210F
2110: F1      	        POP AF                  ; 2110
2111: CD6621  	        CALL p2166              ; 2111
2114: 47      	        LD B,A                  ; 2114
2115: 3AC63E  	        LD A,(xb3EC6)           ; 2115
2118: C3CE20  	        JP p20CE                ; 2118
              	
211B: F5      	p211B:  PUSH AF                 ; 211B
211C: CD360B  	        CALL p0B36              ; 211C
211F: CDEA0A  	        CALL p0AEA              ; 211F
2122: FE2C    	        CP 2CH                  ; 2122
2124: C23821  	        JP NZ,p2138             ; 2124
2127: 3AC73E  	        LD A,(xb3EC7)           ; 2127
212A: B7      	        OR A                    ; 212A
212B: CA3821  	        JP Z,p2138              ; 212B
212E: F1      	        POP AF                  ; 212E
212F: AF      	        XOR A                   ; 212F
2130: 32C73E  	        LD (xb3EC7),A           ; 2130
2133: 3E1C    	        LD A,1CH                ; 2133
2135: C3CE20  	        JP p20CE                ; 2135
              	
2138: F1      	p2138:  POP AF                  ; 2138
2139: C39F21  	        JP p219F                ; 2139
              	
213C: 3A573F  	p213C:  LD A,(xb3F57)           ; 213C
213F: 4F      	        LD C,A                  ; 213F
2140: 3AC63E  	        LD A,(xb3EC6)           ; 2140
2143: FE03    	        CP 03H                  ; 2143
2145: CA4F21  	        JP Z,p214F              ; 2145
2148: C5      	        PUSH BC                 ; 2148
2149: CD6621  	        CALL p2166              ; 2149
214C: C30C22  	        JP p220C                ; 214C
              	
214F: C1      	p214F:  POP BC                  ; 214F
2150: C5      	        PUSH BC                 ; 2150
2151: 78      	        LD A,B                  ; 2151
2152: CD8321  	        CALL p2183              ; 2152
2155: 47      	        LD B,A                  ; 2155
2156: 3A573F  	        LD A,(xb3F57)           ; 2156
2159: 4F      	        LD C,A                  ; 2159
215A: C36021  	        JP p2160                ; 215A
              	
215D: CDC422  	p215D:  CALL p22C4              ; 215D
2160: CD6621  	p2160:  CALL p2166              ; 2160
2163: C3B320  	        JP p20B3                ; 2163
              	
2166: E1      	p2166:  POP HL                  ; 2166
2167: D5      	        PUSH DE                 ; 2167
2168: 5F      	        LD E,A                  ; 2168
2169: 79      	        LD A,C                  ; 2169
216A: E603    	        AND 03H                 ; 216A
216C: FE03    	        CP 03H                  ; 216C
216E: 7B      	        LD A,E                  ; 216E
216F: C27921  	        JP NZ,p2179             ; 216F
2172: EB      	        EX DE,HL                ; 2172
2173: 2ADE3D  	        LD HL,(xw3DDE)          ; 2173
2176: E3      	        EX (SP),HL              ; 2176
2177: E5      	        PUSH HL                 ; 2177
2178: EB      	        EX DE,HL                ; 2178
2179: 1601    	p2179:  LD D,01H                ; 2179
217B: 59      	        LD E,C                  ; 217B
217C: D5      	        PUSH DE                 ; 217C
217D: E9      	p217D:  JP (HL)                 ; 217D
              	
217E: 47      	p217E:  LD B,A                  ; 217E
217F: C5      	        PUSH BC                 ; 217F
2180: C3B320  	        JP p20B3                ; 2180
              	
2183: D5      	p2183:  PUSH DE                 ; 2183
2184: 21FB22  	        LD HL,x22FB             ; 2184 data table
2187: 5F      	        LD E,A                  ; 2187
2188: 1600    	        LD D,00H                ; 2188
218A: 19      	        ADD HL,DE               ; 218A
218B: 7E      	        LD A,(HL)               ; 218B
218C: D1      	        POP DE                  ; 218C
218D: C9      	        RET                     ; 218D
              	
218E: E1      	p218E:  POP HL                  ; 218E
218F: C1      	        POP BC                  ; 218F
2190: 78      	        LD A,B                  ; 2190
2191: FE01    	        CP 01H                  ; 2191
2193: C29E21  	        JP NZ,p219E             ; 2193
2196: CDC104  	        CALL p04C1              ; 2196
2199: C5      	        PUSH BC                 ; 2199
219A: AF      	        XOR A                   ; 219A
219B: 47      	        LD B,A                  ; 219B
219C: FE01    	        CP 01H                  ; 219C
219E: E9      	p219E:  JP (HL)                 ; 219E
219F: E1      	p219F:  POP HL                  ; 219F
21A0: 7C      	        LD A,H                  ; 21A0
21A1: FE01    	        CP 01H                  ; 21A1
21A3: 9F      	        SBC A,A                 ; 21A3
21A4: 32C23E  	        LD (xb3EC2),A           ; 21A4
21A7: E5      	        PUSH HL                 ; 21A7
21A8: CD3F22  	p21A8:  CALL p223F              ; 21A8
21AB: 79      	        LD A,C                  ; 21AB
21AC: 32573F  	        LD (xb3F57),A           ; 21AC
21AF: CD8E21  	        CALL p218E              ; 21AF
21B2: FACF21  	        JP M,p21CF              ; 21B2
21B5: FE02    	        CP 02H                  ; 21B5
21B7: CA4625  	        JP Z,p2546              ; 21B7
21BA: C5      	        PUSH BC                 ; 21BA
21BB: 3A573F  	        LD A,(xb3F57)           ; 21BB
21BE: 4F      	        LD C,A                  ; 21BE
21BF: CD6621  	        CALL p2166              ; 21BF
21C2: C3A821  	        JP p21A8                ; 21C2
              	
21C5: 110000  	p21C5:  LD DE,0000H             ; 21C5
21C8: CD400B  	        CALL p0B40              ; 21C8
21CB: AF      	        XOR A                   ; 21CB
21CC: 32573F  	        LD (xb3F57),A           ; 21CC
21CF: 3A573F  	p21CF:  LD A,(xb3F57)           ; 21CF
21D2: 47      	        LD B,A                  ; 21D2
21D3: 32C13E  	        LD (xb3EC1),A           ; 21D3
21D6: E603    	        AND 03H                 ; 21D6
21D8: 4F      	        LD C,A                  ; 21D8
21D9: CADE21  	        JP Z,p21DE              ; 21D9
21DC: 0E20    	        LD C,20H                ; 21DC
21DE: 78      	p21DE:  LD A,B                  ; 21DE
21DF: E680    	        AND 80H                 ; 21DF
21E1: B1      	        OR C                    ; 21E1
21E2: 21D43E  	        LD HL,xb3ED4            ; 21E2
21E5: B6      	        OR (HL)                 ; 21E5
21E6: 77      	        LD (HL),A               ; 21E6
21E7: 2A463D  	        LD HL,(xw3D46)          ; 21E7
21EA: 2B      	        DEC HL                  ; 21EA
21EB: 4E      	        LD C,(HL)               ; 21EB
21EC: 7B      	        LD A,E                  ; 21EC
21ED: 2AC83E  	        LD HL,(xw3EC8)          ; 21ED
21F0: F9      	        LD SP,HL                ; 21F0
21F1: C9      	        RET                     ; 21F1
              	
21F2: 32C63E  	p21F2:  LD (xb3EC6),A           ; 21F2
21F5: D1      	        POP DE                  ; 21F5
21F6: 7A      	        LD A,D                  ; 21F6
21F7: FE02    	        CP 02H                  ; 21F7
21F9: CCC104  	        CALL Z,p04C1            ; 21F9
21FC: B7      	        OR A                    ; 21FC
21FD: CCC104  	        CALL Z,p04C1            ; 21FD
2200: D5      	        PUSH DE                 ; 2200
2201: C3E520  	        JP p20E5                ; 2201
              	
2204: E3      	p2204:  EX (SP),HL              ; 2204
2205: 7C      	        LD A,H                  ; 2205
2206: E3      	        EX (SP),HL              ; 2206
2207: 3D      	        DEC A                   ; 2207
2208: CAE520  	        JP Z,p20E5              ; 2208
220B: 79      	        LD A,C                  ; 220B
220C: C1      	p220C:  POP BC                  ; 220C
220D: 57      	        LD D,A                  ; 220D
220E: C5      	        PUSH BC                 ; 220E
220F: 78      	        LD A,B                  ; 220F
2210: 3D      	        DEC A                   ; 2210
2211: 7A      	        LD A,D                  ; 2211
2212: CA3622  	        JP Z,p2236              ; 2212
2215: 7A      	        LD A,D                  ; 2215
2216: FE07    	        CP 07H                  ; 2216
2218: CA3622  	        JP Z,p2236              ; 2218
221B: FE08    	        CP 08H                  ; 221B
221D: CAB320  	        JP Z,p20B3              ; 221D
2220: FE15    	        CP 15H                  ; 2220
2222: CA3622  	        JP Z,p2236              ; 2222
2225: FE16    	        CP 16H                  ; 2225
2227: CA3622  	        JP Z,p2236              ; 2227
222A: FE1E    	        CP 1EH                  ; 222A
222C: CA3622  	        JP Z,p2236              ; 222C
222F: FE09    	        CP 09H                  ; 222F
2231: C4C104  	        CALL NZ,p04C1           ; 2231
2234: 3E17    	        LD A,17H                ; 2234
2236: 47      	p2236:  LD B,A                  ; 2236
2237: C5      	        PUSH BC                 ; 2237
2238: CD8321  	        CALL p2183              ; 2238
223B: 47      	        LD B,A                  ; 223B
223C: C3B320  	        JP p20B3                ; 223C
              	
223F: E1      	p223F:  POP HL                  ; 223F
2240: 22593F  	        LD (xw3F59),HL          ; 2240
2243: D1      	        POP DE                  ; 2243
2244: 7A      	        LD A,D                  ; 2244
2245: B7      	        OR A                    ; 2245
2246: D5      	p2246:  PUSH DE                 ; 2246
2247: C25222  	        JP NZ,p2252             ; 2247
224A: 110000  	        LD DE,0000H             ; 224A
224D: D5      	        PUSH DE                 ; 224D
224E: 112001  	        LD DE,0120H             ; 224E
2251: D5      	        PUSH DE                 ; 2251
2252: CDAA22  	p2252:  CALL p22AA              ; 2252
2255: 22E03D  	        LD (xw3DE0),HL          ; 2255
2258: EB      	        EX DE,HL                ; 2258
2259: 22CA3E  	        LD (xw3ECA),HL          ; 2259
225C: EB      	        EX DE,HL                ; 225C
225D: 79      	        LD A,C                  ; 225D
225E: 32573F  	        LD (xb3F57),A           ; 225E
2261: CD8E21  	        CALL p218E              ; 2261
2264: FAA122  	        JP M,p22A1              ; 2264
2267: D602    	        SUB 02H                 ; 2267
2269: CAA122  	        JP Z,p22A1              ; 2269
226C: 32583F  	        LD (xb3F58),A           ; 226C
226F: FE05    	        CP 05H                  ; 226F
2271: CA8B22  	        JP Z,p228B              ; 2271
2274: FE14    	        CP 14H                  ; 2274
2276: CA8B22  	        JP Z,p228B              ; 2276
2279: FE13    	        CP 13H                  ; 2279
227B: CA8B22  	        JP Z,p228B              ; 227B
227E: FE15    	        CP 15H                  ; 227E
2280: CA8B22  	        JP Z,p228B              ; 2280
2283: FE1C    	        CP 1CH                  ; 2283
2285: CA8B22  	        JP Z,p228B              ; 2285
2288: CDAA22  	        CALL p22AA              ; 2288
228B: 3A583F  	p228B:  LD A,(xb3F58)           ; 228B
228E: 2A593F  	        LD HL,(xw3F59)          ; 228E
2291: E5      	        PUSH HL                 ; 2291
2292: 211623  	        LD HL,x2316             ; 2292 dispatch table
2295: 87      	        ADD A,A                 ; 2295
2296: 85      	        ADD A,L                 ; 2296
2297: 6F      	        LD L,A                  ; 2297
2298: 3E00    	        LD A,00H                ; 2298
229A: 8C      	        ADC A,H                 ; 229A
229B: 67      	        LD H,A                  ; 229B
229C: 7E      	        LD A,(HL)               ; 229C
229D: 23      	        INC HL                  ; 229D
229E: 66      	        LD H,(HL)               ; 229E
229F: 6F      	        LD L,A                  ; 229F
22A0: E9      	        JP (HL)                 ; 22A0
              	
22A1: C5      	p22A1:  PUSH BC                 ; 22A1
22A2: 3A573F  	        LD A,(xb3F57)           ; 22A2
22A5: 4F      	        LD C,A                  ; 22A5
22A6: 2A593F  	        LD HL,(xw3F59)          ; 22A6
22A9: E9      	        JP (HL)                 ; 22A9
              	
22AA: E1      	p22AA:  POP HL                  ; 22AA
22AB: C1      	        POP BC                  ; 22AB
22AC: 05      	        DEC B                   ; 22AC
22AD: C4C104  	        CALL NZ,p04C1           ; 22AD
22B0: CAB622  	        JP Z,p22B6              ; 22B0
22B3: 04      	        INC B                   ; 22B3
22B4: C5      	        PUSH BC                 ; 22B4
22B5: E9      	        JP (HL)                 ; 22B5
              	
22B6: D1      	p22B6:  POP DE                  ; 22B6
22B7: 79      	        LD A,C                  ; 22B7
22B8: E603    	        AND 03H                 ; 22B8
22BA: FE03    	        CP 03H                  ; 22BA
22BC: C27D21  	        JP NZ,p217D             ; 22BC
22BF: E3      	        EX (SP),HL              ; 22BF
22C0: 22DE3D  	        LD (xw3DDE),HL          ; 22C0
22C3: C9      	        RET                     ; 22C3
              	
22C4: F5      	p22C4:  PUSH AF                 ; 22C4
22C5: D5      	        PUSH DE                 ; 22C5
22C6: E5      	        PUSH HL                 ; 22C6
22C7: 79      	        LD A,C                  ; 22C7
22C8: 07      	        RLCA                    ; 22C8
22C9: E607    	        AND 07H                 ; 22C9
22CB: F680    	        OR 80H                  ; 22CB
22CD: CDCC25  	        CALL p25CC              ; 22CD
22D0: E607    	        AND 07H                 ; 22D0
22D2: FE06    	        CP 06H                  ; 22D2
22D4: C2E322  	        JP NZ,p22E3             ; 22D4
22D7: D5      	        PUSH DE                 ; 22D7
22D8: 2ADE3D  	        LD HL,(xw3DDE)          ; 22D8
22DB: EB      	        EX DE,HL                ; 22DB
22DC: CDF322  	        CALL p22F3              ; 22DC
22DF: D1      	        POP DE                  ; 22DF
22E0: C3EC22  	        JP p22EC                ; 22E0
              	
22E3: FE01    	p22E3:  CP 01H                  ; 22E3
22E5: C2EC22  	        JP NZ,p22EC             ; 22E5
22E8: 2ABF3E  	        LD HL,(xw3EBF)          ; 22E8
22EB: EB      	        EX DE,HL                ; 22EB
22EC: CDF322  	p22EC:  CALL p22F3              ; 22EC
22EF: E1      	        POP HL                  ; 22EF
22F0: D1      	        POP DE                  ; 22F0
22F1: F1      	        POP AF                  ; 22F1
22F2: C9      	        RET                     ; 22F2
              	
22F3: 7B      	p22F3:  LD A,E                  ; 22F3
22F4: CDCC25  	        CALL p25CC              ; 22F4
22F7: 7A      	        LD A,D                  ; 22F7
22F8: C3CC25  	        JP p25CC                ; 22F8
              	;=====================================
              	; DATA
22FB: 01010101	x22FB:  DB 01H,01H,01H,01H      ; 22FB
22FF: 04040506	        DB 04H,04H,05H,06H      ; 22FF
2303: 08080909	        DB 08H,08H,09H,09H      ; 2303
2307: 09090907	        DB 09H,09H,09H,07H      ; 2307
230B: 07070707	        DB 07H,07H,07H,07H      ; 230B
230F: 070A0A0A	        DB 07H,0AH,0AH,0AH      ; 230F
2313: 02020202	        DB 02H,02H,02H,02H      ; 2313
2317: 03020A  	        DB 03H,02H,0AH          ; 2317
              	
2316:         	x2316:  EQU $-4
231A: 5023    	X231A:  DW p2350                ; 231A
231C: 5A23    	        DW p235A                ; 231C
231E: 6423    	        DW p2364                ; 231E
2320: 6E23    	        DW p236E                ; 2320
2322: CF23    	        DW p23CF                ; 2322
2324: FE23    	        DW p23FE                ; 2324
2326: 4E24    	        DW p244E                ; 2326
2328: 9E24    	        DW p249E                ; 2328
232A: 1725    	        DW p2517                ; 232A
232C: 9D23    	        DW p239D                ; 232C
232E: AE23    	        DW p23AE                ; 232E
2330: 5125    	        DW p2551                ; 2330
2332: 5C25    	        DW p255C                ; 2332
2334: 6825    	        DW p2568                ; 2334
2336: 7525    	        DW p2575                ; 2336
2338: 7B25    	        DW p257B                ; 2338
233A: 8425    	        DW p2584                ; 233A
233C: B625    	        DW p25B6                ; 233C
233E: A725    	        DW p25A7                ; 234E
2340: 8523    	        DW p2385                ; 2340
2342: F425    	        DW p25F4                ; 2342
2344: 0026    	        DW p2600                ; 2344
2346: 0F26    	        DW p260F                ; 2346
2348: 1E26    	        DW p261E                ; 2348
234A: 2D26    	        DW p262D                ; 234A
234C: 4326    	        DW p2643                ; 234C
234E: 6326    	        DW p2663                ; 234E
              	;=====================================
2350: CD8424  	p2350:  CALL p2484              ; 2350
2353: 7A      	        LD A,D                  ; 2353
2354: B4      	        OR H                    ; 2354
2355: 57      	        LD D,A                  ; 2355
2356: 7B      	        LD A,E                  ; 2356
2357: B5      	        OR L                    ; 2357
2358: 5F      	        LD E,A                  ; 2358
2359: C9      	        RET                     ; 2359
              	
235A: CD8424  	p235A:  CALL p2484              ; 235A
235D: 7A      	        LD A,D                  ; 235D
235E: AC      	        XOR H                   ; 235E
235F: 57      	        LD D,A                  ; 235F
2360: 7B      	        LD A,E                  ; 2360
2361: AD      	        XOR L                   ; 2361
2362: 5F      	        LD E,A                  ; 2362
2363: C9      	        RET                     ; 2363
              	
2364: CD8424  	p2364:  CALL p2484              ; 2364
2367: 7A      	        LD A,D                  ; 2367
2368: A4      	        AND H                   ; 2368
2369: 57      	        LD D,A                  ; 2369
236A: 7B      	        LD A,E                  ; 236A
236B: A5      	        AND L                   ; 236B
236C: 5F      	        LD E,A                  ; 236C
236D: C9      	        RET                     ; 236D
              	
236E: 2ACA3E  	p236E:  LD HL,(xw3ECA)          ; 236E
2371: 7C      	        LD A,H                  ; 2371
2372: 2F      	        CPL                     ; 2372
2373: 57      	        LD D,A                  ; 2373
2374: 7D      	        LD A,L                  ; 2374
2375: 2F      	        CPL                     ; 2375
2376: 5F      	        LD E,A                  ; 2376
2377: 3A573F  	        LD A,(xb3F57)           ; 2377
237A: 4F      	        LD C,A                  ; 237A
237B: E683    	        AND 83H                 ; 237B
237D: 3E05    	        LD A,05H                ; 237D
237F: C2C225  	        JP NZ,p25C2             ; 237F
2382: C3CC25  	        JP p25CC                ; 2382
              	
2385: 2ACA3E  	p2385:  LD HL,(xw3ECA)          ; 2385
2388: 7C      	        LD A,H                  ; 2388
2389: 2F      	        CPL                     ; 2389
238A: 57      	        LD D,A                  ; 238A
238B: 7D      	        LD A,L                  ; 238B
238C: 2F      	        CPL                     ; 238C
238D: 5F      	        LD E,A                  ; 238D
238E: 13      	        INC DE                  ; 238E
238F: 3A573F  	        LD A,(xb3F57)           ; 238F
2392: 4F      	        LD C,A                  ; 2392
2393: E683    	        AND 83H                 ; 2393
2395: 3E06    	        LD A,06H                ; 2395
2397: C2C225  	        JP NZ,p25C2             ; 2397
239A: C3CC25  	        JP p25CC                ; 239A
              	
239D: CD8424  	p239D:  CALL p2484              ; 239D
23A0: EB      	        EX DE,HL                ; 23A0
23A1: 13      	        INC DE                  ; 23A1
23A2: 1B      	p23A2:  DEC DE                  ; 23A2 time wasting loop
23A3: 7A      	        LD A,D                  ; 23A3
23A4: B3      	        OR E                    ; 23A4
23A5: CAAC23  	        JP Z,p23AC              ; 23A5
23A8: 29      	        ADD HL,HL               ; 23A8
23A9: C3A223  	        JP p23A2                ; 23A9
              	
23AC: EB      	p23AC:  EX DE,HL                ; 23AC
23AD: C9      	        RET                     ; 23AD
              	
23AE: CD8424  	p23AE:  CALL p2484              ; 23AE
23B1: 23      	        INC HL                  ; 23B1
23B2: 2B      	p23B2:  DEC HL                  ; 23B2
23B3: 7D      	        LD A,L                  ; 23B3
23B4: B4      	        OR H                    ; 23B4
23B5: C8      	        RET Z                   ; 23B5
23B6: 7A      	        LD A,D                  ; 23B6
23B7: 1F      	        RRA                     ; 23B7
23B8: 57      	        LD D,A                  ; 23B8
23B9: 7B      	        LD A,E                  ; 23B9
23BA: 1F      	        RRA                     ; 23BA
23BB: 5F      	        LD E,A                  ; 23BB
23BC: C3B223  	        JP p23B2                ; 23BC
              	
23BF: 2ACA3E  	        LD HL,(xw3ECA)          ; 23BF
23C2: 3A573F  	        LD A,(xb3F57)           ; 23C2
23C5: E680    	        AND 80H                 ; 23C5
23C7: C8      	        RET Z                   ; 23C7
23C8: 79      	        LD A,C                  ; 23C8
23C9: E680    	        AND 80H                 ; 23C9
23CB: FCAF04  	        CALL M,p04AF            ; 23CB
23CE: C9      	        RET                     ; 23CE
              	
23CF: CDE023  	p23CF:  CALL p23E0              ; 23CF
23D2: 3A573F  	        LD A,(xb3F57)           ; 23D2
23D5: B1      	        OR C                    ; 23D5
23D6: 4F      	        LD C,A                  ; 23D6
23D7: E683    	        AND 83H                 ; 23D7
23D9: FE80    	        CP 80H                  ; 23D9
23DB: C0      	        RET NZ                  ; 23DB
23DC: 32BD3E  	        LD (xb3EBD),A           ; 23DC
23DF: C9      	        RET                     ; 23DF
              	
23E0: 3A573F  	p23E0:  LD A,(xb3F57)           ; 23E0
23E3: FE20    	        CP 20H                  ; 23E3
23E5: CAEE23  	        JP Z,p23EE              ; 23E5
23E8: 2AE03D  	        LD HL,(xw3DE0)          ; 23E8
23EB: 22DE3D  	        LD (xw3DDE),HL          ; 23EB
23EE: 2ACA3E  	p23EE:  LD HL,(xw3ECA)          ; 23EE
23F1: 19      	        ADD HL,DE               ; 23F1
23F2: EB      	        EX DE,HL                ; 23F2
23F3: CD9424  	        CALL p2494              ; 23F3
23F6: 3E08    	        LD A,08H                ; 23F6
23F8: C2C225  	        JP NZ,p25C2             ; 23F8
23FB: C3CC25  	        JP p25CC                ; 23FB
              	
23FE: 2ACA3E  	p23FE:  LD HL,(xw3ECA)          ; 23FE
2401: CD4724  	        CALL p2447              ; 2401
2404: 3A573F  	        LD A,(xb3F57)           ; 2404
2407: E683    	        AND 83H                 ; 2407
2409: FA2524  	        JP M,p2425              ; 2409
240C: CA2524  	        JP Z,p2425              ; 240C
240F: 79      	        LD A,C                  ; 240F
2410: E683    	        AND 83H                 ; 2410
2412: FA2524  	        JP M,p2425              ; 2412
2415: CA2424  	        JP Z,p2424              ; 2415
2418: 3A573F  	        LD A,(xb3F57)           ; 2418
241B: B9      	        CP C                    ; 241B
241C: C22524  	        JP NZ,p2425             ; 241C
241F: 0E20    	        LD C,20H                ; 241F
2421: C33F24  	        JP p243F                ; 2421
              	
2424: 3D      	p2424:  DEC A                   ; 2424
2425: F5      	p2425:  PUSH AF                 ; 2425
2426: 3A573F  	        LD A,(xb3F57)           ; 2426
2429: E683    	        AND 83H                 ; 2429
242B: C23924  	        JP NZ,p2439             ; 242B
242E: 79      	        LD A,C                  ; 242E
242F: E683    	        AND 83H                 ; 242F
2431: FE80    	        CP 80H                  ; 2431
2433: C23924  	        JP NZ,p2439             ; 2433
2436: 32BD3E  	        LD (xb3EBD),A           ; 2436
2439: 3A573F  	p2439:  LD A,(xb3F57)           ; 2439
243C: B1      	        OR C                    ; 243C
243D: 4F      	        LD C,A                  ; 243D
243E: F1      	        POP AF                  ; 243E
243F: 3E07    	p243F:  LD A,07H                ; 243F
2441: C2C225  	        JP NZ,p25C2             ; 2441
2444: C3CC25  	        JP p25CC                ; 2444
              	
2447: 7B      	p2447:  LD A,E                  ; 2447
2448: 95      	        SUB L                   ; 2448
2449: 5F      	        LD E,A                  ; 2449
244A: 7A      	        LD A,D                  ; 244A
244B: 9C      	        SBC A,H                 ; 244B
244C: 57      	        LD D,A                  ; 244C
244D: C9      	        RET                     ; 244D
              	
244E: 2ACA3E  	p244E:  LD HL,(xw3ECA)          ; 244E
2451: CD6924  	        CALL p2469              ; 2451
2454: 3A573F  	        LD A,(xb3F57)           ; 2454
2457: B1      	        OR C                    ; 2457
2458: 4F      	        LD C,A                  ; 2458
2459: E683    	        AND 83H                 ; 2459
245B: 3E09    	        LD A,09H                ; 245B
245D: C2C225  	        JP NZ,p25C2             ; 245D
2460: C3CC25  	        JP p25CC                ; 2460
              	
2463: CD6924  	p2463:  CALL p2469              ; 2463
2466: 0E20    	        LD C,20H                ; 2466
2468: C9      	        RET                     ; 2468
              	
2469: 44      	p2469:  LD B,H                  ; 2469
246A: 4D      	        LD C,L                  ; 246A
246B: 210000  	        LD HL,0000H             ; 246B
246E: 3E11    	        LD A,11H                ; 246E
2470: 3D      	p2470:  DEC A                   ; 2470
2471: CA8224  	        JP Z,p2482              ; 2471
2474: 29      	        ADD HL,HL               ; 2474
2475: E5      	        PUSH HL                 ; 2475
2476: C5      	        PUSH BC                 ; 2476
2477: E1      	        POP HL                  ; 2477
2478: 29      	        ADD HL,HL               ; 2478
2479: E3      	        EX (SP),HL              ; 2479
247A: C1      	        POP BC                  ; 247A
247B: D27024  	        JP NC,p2470             ; 247B
247E: 19      	        ADD HL,DE               ; 247E
247F: C37024  	        JP p2470                ; 247F
              	
2482: EB      	p2482:  EX DE,HL                ; 2482
2483: C9      	        RET                     ; 2483
              	
2484: 3A573F  	p2484:  LD A,(xb3F57)           ; 2484
2487: B9      	        CP C                    ; 2487
2488: C4D304  	        CALL NZ,p04D3           ; 2488
248B: FE20    	        CP 20H                  ; 248B
248D: C4D304  	        CALL NZ,p04D3           ; 248D
2490: 2ACA3E  	        LD HL,(xw3ECA)          ; 2490
2493: C9      	        RET                     ; 2493
              	
2494: 3A573F  	p2494:  LD A,(xb3F57)           ; 2494
2497: E683    	        AND 83H                 ; 2497
2499: C8      	        RET Z                   ; 2499
249A: 79      	        LD A,C                  ; 249A
249B: E683    	        AND 83H                 ; 249B
249D: C9      	        RET                     ; 249D
              	
249E: 2ACA3E  	p249E:  LD HL,(xw3ECA)          ; 249E
24A1: CDB324  	        CALL p24B3              ; 24A1
24A4: 3A573F  	        LD A,(xb3F57)           ; 24A4
24A7: B1      	        OR C                    ; 24A7
24A8: 4F      	        LD C,A                  ; 24A8
24A9: E683    	        AND 83H                 ; 24A9
24AB: 3E0A    	        LD A,0AH                ; 24AB
24AD: C2C225  	        JP NZ,p25C2             ; 24AD
24B0: C3CC25  	        JP p25CC                ; 24B0
              	
24B3: C5      	p24B3:  PUSH BC                 ; 24B3
24B4: EB      	        EX DE,HL                ; 24B4
24B5: 7A      	        LD A,D                  ; 24B5
24B6: B3      	        OR E                    ; 24B6
24B7: CCC104  	        CALL Z,p04C1            ; 24B7
24BA: 7A      	        LD A,D                  ; 24BA
24BB: B7      	        OR A                    ; 24BB
24BC: 42      	        LD B,D                  ; 24BC
24BD: FC0F25  	        CALL M,p250F            ; 24BD
24C0: 7C      	        LD A,H                  ; 24C0
24C1: A8      	        XOR B                   ; 24C1
24C2: 47      	        LD B,A                  ; 24C2
24C3: 7C      	        LD A,H                  ; 24C3
24C4: B5      	        OR L                    ; 24C4
24C5: CAD824  	        JP Z,p24D8              ; 24C5
24C8: 7C      	        LD A,H                  ; 24C8
24C9: B7      	        OR A                    ; 24C9
24CA: EB      	        EX DE,HL                ; 24CA
24CB: FC0F25  	        CALL M,p250F            ; 24CB
24CE: C5      	        PUSH BC                 ; 24CE
24CF: CDDB24  	        CALL p24DB              ; 24CF
24D2: F1      	        POP AF                  ; 24D2
24D3: B7      	        OR A                    ; 24D3
24D4: FC0F25  	        CALL M,p250F            ; 24D4
24D7: EB      	        EX DE,HL                ; 24D7
24D8: EB      	p24D8:  EX DE,HL                ; 24D8
24D9: C1      	        POP BC                  ; 24D9
24DA: C9      	        RET                     ; 24DA
              	
24DB: 7C      	p24DB:  LD A,H                  ; 24DB
24DC: 2F      	        CPL                     ; 24DC
24DD: 47      	        LD B,A                  ; 24DD
24DE: 7D      	        LD A,L                  ; 24DE
24DF: 2F      	        CPL                     ; 24DF
24E0: 4F      	        LD C,A                  ; 24E0
24E1: 03      	        INC BC                  ; 24E1
24E2: 210000  	        LD HL,0000H             ; 24E2
24E5: 3E11    	        LD A,11H                ; 24E5
24E7: F5      	        PUSH AF                 ; 24E7
24E8: B7      	        OR A                    ; 24E8
24E9: C3F624  	        JP p24F6                ; 24E9
              	
24EC: F5      	p24EC:  PUSH AF                 ; 24EC
24ED: E5      	        PUSH HL                 ; 24ED
24EE: 09      	        ADD HL,BC               ; 24EE
24EF: D2F524  	        JP NC,p24F5             ; 24EF
24F2: F1      	        POP AF                  ; 24F2
24F3: 37      	        SCF                     ; 24F3
24F4: 3E      	        DB 03EH                 ; 24F4 (LD A,0E1H)
24F5: E1      	p24F5:  POP HL                  ; 24F5
24F6: 7B      	p24F6:  LD A,E                  ; 24F6
24F7: 17      	        RLA                     ; 24F7
24F8: 5F      	        LD E,A                  ; 24F8
24F9: 7A      	        LD A,D                  ; 24F9
24FA: 17      	        RLA                     ; 24FA
24FB: 57      	        LD D,A                  ; 24FB
24FC: 7D      	        LD A,L                  ; 24FC
24FD: 17      	        RLA                     ; 24FD
24FE: 6F      	        LD L,A                  ; 24FE
24FF: 7C      	        LD A,H                  ; 24FF
2500: 17      	        RLA                     ; 2500
2501: 67      	        LD H,A                  ; 2501
2502: F1      	        POP AF                  ; 2502
2503: 3D      	        DEC A                   ; 2503
2504: C2EC24  	        JP NZ,p24EC             ; 2504
2507: 7C      	        LD A,H                  ; 2507
2508: B7      	        OR A                    ; 2508
2509: 1F      	        RRA                     ; 2509
250A: 67      	        LD H,A                  ; 250A
250B: 7D      	        LD A,L                  ; 250B
250C: 1F      	        RRA                     ; 250C
250D: 6F      	        LD L,A                  ; 250D
250E: C9      	        RET                     ; 250E
              	
250F: AF      	p250F:  XOR A                   ; 250F
2510: 4F      	        LD C,A                  ; 2510
2511: 93      	        SUB E                   ; 2511
2512: 5F      	        LD E,A                  ; 2512
2513: 79      	        LD A,C                  ; 2513
2514: 9A      	        SBC A,D                 ; 2514
2515: 57      	        LD D,A                  ; 2515
2516: C9      	        RET                     ; 2516
              	
2517: 2ACA3E  	p2517:  LD HL,(xw3ECA)          ; 2517
251A: C5      	        PUSH BC                 ; 251A
251B: EB      	        EX DE,HL                ; 251B
251C: 7A      	        LD A,D                  ; 251C
251D: B3      	        OR E                    ; 251D
251E: CA3525  	        JP Z,p2535              ; 251E
2521: 7C      	        LD A,H                  ; 2521
2522: B5      	        OR L                    ; 2522
2523: CA3525  	        JP Z,p2535              ; 2523
2526: 7C      	        LD A,H                  ; 2526
2527: AA      	        XOR D                   ; 2527
2528: F5      	        PUSH AF                 ; 2528
2529: D5      	        PUSH DE                 ; 2529
252A: EB      	        EX DE,HL                ; 252A
252B: CDB324  	        CALL p24B3              ; 252B
252E: EB      	        EX DE,HL                ; 252E
252F: E1      	        POP HL                  ; 252F
2530: F1      	        POP AF                  ; 2530
2531: FC0F25  	        CALL M,p250F            ; 2531
2534: EB      	        EX DE,HL                ; 2534
              	
2535: EB      	p2535:  EX DE,HL                ; 2535
2536: C1      	        POP BC                  ; 2536
2537: 3A573F  	        LD A,(xb3F57)           ; 2537
253A: B1      	        OR C                    ; 253A
253B: 4F      	        LD C,A                  ; 253B
253C: E683    	        AND 83H                 ; 253C
253E: 3E0B    	        LD A,0BH                ; 253E
2540: C2C225  	        JP NZ,p25C2             ; 2540
2543: C3CC25  	        JP p25CC                ; 2543
              	
2546: 3E4F    	p2546:  LD A,4FH                ; 2546
2548: 11C521  	        LD DE,p21C5             ; 2548 spoofed return address
254B: D5      	        PUSH DE                 ; 254B
254C: C5      	        PUSH BC                 ; 254C
254D: 47      	        LD B,A                  ; 254D
254E: C3E804  	        JP p04E8                ; 254E
              	
2551: CD9925  	p2551:  CALL p2599              ; 2551
2554: CD8D0D  	        CALL p0D8D              ; 2554
2557: D601    	        SUB 01H                 ; 2557
2559: C36F25  	        JP p256F                ; 2559
              	
255C: CD9925  	p255C:  CALL p2599              ; 255C
255F: CD8D0D  	        CALL p0D8D              ; 255F
2562: D601    	        SUB 01H                 ; 2562
2564: 3F      	        CCF                     ; 2564
2565: C36F25  	        JP p256F                ; 2565
              	
2568: CD9925  	p2568:  CALL p2599              ; 2568
256B: EB      	        EX DE,HL                ; 256B
256C: CD8D0D  	        CALL p0D8D              ; 256C
256F: 9F      	p256F:  SBC A,A                 ; 256F
2570: 57      	        LD D,A                  ; 2570
2571: 5F      	        LD E,A                  ; 2571
2572: 0E20    	        LD C,20H                ; 2572
2574: C9      	        RET                     ; 2574
              	
2575: CD9925  	p2575:  CALL p2599              ; 2575
2578: C38825  	        JP p2588                ; 2578
              	
257B: CD9925  	p257B:  CALL p2599              ; 257B
257E: CD8D0D  	        CALL p0D8D              ; 257E
2581: C36F25  	        JP p256F                ; 2581
              	
2584: CD9925  	p2584:  CALL p2599              ; 2584
2587: EB      	        EX DE,HL                ; 2587
2588: 7B      	p2588:  LD A,E                  ; 2588
2589: 95      	        SUB L                   ; 2589
258A: 5F      	        LD E,A                  ; 258A
258B: 7A      	        LD A,D                  ; 258B
258C: 9C      	        SBC A,H                 ; 258C
258D: DA6F25  	        JP C,p256F              ; 258D
2590: B3      	        OR E                    ; 2590
2591: 37      	        SCF                     ; 2591
2592: CA6F25  	        JP Z,p256F              ; 2592
2595: 3F      	        CCF                     ; 2595
2596: C36F25  	        JP p256F                ; 2596
              	
2599: 3A573F  	p2599:  LD A,(xb3F57)           ; 2599
259C: B9      	        CP C                    ; 259C
259D: C4D304  	        CALL NZ,p04D3           ; 259D
25A0: CD4C26  	        CALL p264C              ; 25A0
25A3: 2ACA3E  	        LD HL,(xw3ECA)          ; 25A3
25A6: C9      	        RET                     ; 25A6
              	
25A7: 2ACA3E  	p25A7:  LD HL,(xw3ECA)          ; 25A7
25AA: 5C      	        LD E,H                  ; 25AA
25AB: AF      	        XOR A                   ; 25AB
25AC: 57      	        LD D,A                  ; 25AC
25AD: 3A573F  	        LD A,(xb3F57)           ; 25AD
25B0: 4F      	        LD C,A                  ; 25B0
25B1: 3E03    	        LD A,03H                ; 25B1
25B3: C3C225  	        JP p25C2                ; 25B3
              	
25B6: 2ACA3E  	p25B6:  LD HL,(xw3ECA)          ; 25B6
25B9: 5D      	        LD E,L                  ; 25B9
25BA: AF      	        XOR A                   ; 25BA
25BB: 57      	        LD D,A                  ; 25BB
25BC: 3A573F  	        LD A,(xb3F57)           ; 25BC
25BF: 4F      	        LD C,A                  ; 25BF
25C0: 3E04    	        LD A,04H                ; 25C0
25C2: F5      	p25C2:  PUSH AF                 ; 25C2
25C3: 3AD43E  	        LD A,(xb3ED4)           ; 25C3
25C6: F640    	        OR 40H                  ; 25C6
25C8: 32D43E  	        LD (xb3ED4),A           ; 25C8
25CB: F1      	        POP AF                  ; 25CB
25CC: E5      	p25CC:  PUSH HL                 ; 25CC
25CD: F5      	        PUSH AF                 ; 25CD
25CE: 21D53E  	        LD HL,xf3ED5            ; 25CE buffer
25D1: 34      	        INC (HL)                ; 25D1
25D2: 7E      	        LD A,(HL)               ; 25D2
25D3: E63F    	        AND 3FH                 ; 25D3
25D5: CAE225  	        JP Z,p25E2              ; 25D5
25D8: 85      	        ADD A,L                 ; 25D8
25D9: 6F      	        LD L,A                  ; 25D9
25DA: D2DE25  	        JP NC,p25DE             ; 25DA
25DD: 24      	        INC H                   ; 25DD
25DE: F1      	p25DE:  POP AF                  ; 25DE
25DF: 77      	        LD (HL),A               ; 25DF
25E0: E1      	        POP HL                  ; 25E0
25E1: C9      	        RET                     ; 25E1
              	
25E2: 35      	p25E2:  DEC (HL)                ; 25E2
25E3: 79      	        LD A,C                  ; 25E3
25E4: E683    	        AND 83H                 ; 25E4
25E6: CAF125  	        JP Z,p25F1              ; 25E6
              	
25E9: 3AD43E  	        LD A,(xb3ED4)           ; 25E9
25EC: F610    	        OR 10H                  ; 25EC
25EE: 32D43E  	        LD (xb3ED4),A           ; 25EE
25F1: F1      	p25F1:  POP AF                  ; 25F1
25F2: E1      	        POP HL                  ; 25F2
25F3: C9      	        RET                     ; 25F3
              	
25F4: CD8424  	p25F4:  CALL p2484              ; 25F4
25F7: 7D      	        LD A,L                  ; 25F7
25F8: CD520F  	        CALL p0F52              ; 25F8
25FB: E607    	        AND 07H                 ; 25FB
25FD: 83      	        ADD A,E                 ; 25FD
25FE: 5F      	        LD E,A                  ; 25FE
25FF: C9      	        RET                     ; 25FF
              	
2600: CD8424  	p2600:  CALL p2484              ; 2600
2603: 7D      	        LD A,L                  ; 2603
2604: CD520F  	        CALL p0F52              ; 2604
2607: E607    	        AND 07H                 ; 2607
2609: 17      	        RLA                     ; 2609
260A: 17      	        RLA                     ; 260A
260B: 17      	        RLA                     ; 260B
260C: 83      	        ADD A,E                 ; 260C
260D: 5F      	        LD E,A                  ; 260D
260E: C9      	        RET                     ; 260E
              	
260F: CD8424  	p260F:  CALL p2484              ; 260F
2612: 7D      	        LD A,L                  ; 2612
2613: CD400F  	        CALL p0F40              ; 2613
2616: E606    	        AND 06H                 ; 2616
2618: 17      	        RLA                     ; 2618
2619: 17      	        RLA                     ; 2619
261A: 17      	        RLA                     ; 261A
261B: 83      	        ADD A,E                 ; 261B
261C: 5F      	        LD E,A                  ; 261C
261D: C9      	        RET                     ; 261D
              	
261E: CD8424  	p261E:  CALL p2484              ; 261E
2621: 7D      	        LD A,L                  ; 2621
2622: CD360F  	        CALL p0F36              ; 2622
2625: E602    	        AND 02H                 ; 2625
2627: 17      	        RLA                     ; 2627
2628: 17      	        RLA                     ; 2628
2629: 17      	        RLA                     ; 2629
262A: 83      	        ADD A,E                 ; 262A
262B: 5F      	        LD E,A                  ; 262B
262C: C9      	        RET                     ; 262C
              	
262D: CD8424  	p262D:  CALL p2484              ; 262D
2630: 7D      	        LD A,L                  ; 2630
2631: CD520F  	        CALL p0F52              ; 2631
2634: E607    	        AND 07H                 ; 2634
2636: 6F      	        LD L,A                  ; 2636
2637: 7B      	        LD A,E                  ; 2637
2638: CD520F  	        CALL p0F52              ; 2638
263B: E607    	        AND 07H                 ; 263B
263D: 17      	        RLA                     ; 263D
263E: 17      	        RLA                     ; 263E
263F: 17      	        RLA                     ; 263F
2640: 85      	        ADD A,L                 ; 2640
2641: 5F      	        LD E,A                  ; 2641
2642: C9      	        RET                     ; 2642
              	
2643: CD8424  	p2643:  CALL p2484              ; 2643
2646: 7D      	        LD A,L                  ; 2646
2647: E63F    	        AND 3FH                 ; 2647
2649: 83      	        ADD A,E                 ; 2649
264A: 5F      	        LD E,A                  ; 264A
264B: C9      	        RET                     ; 264B
              	
264C: E603    	p264C:  AND 03H                 ; 264C
264E: FE03    	        CP 03H                  ; 264E
2650: C0      	        RET NZ                  ; 2650
2651: E5      	        PUSH HL                 ; 2651
2652: D5      	        PUSH DE                 ; 2652
2653: 2ADE3D  	        LD HL,(xw3DDE)          ; 2653
2656: EB      	        EX DE,HL                ; 2656
2657: 2AE03D  	        LD HL,(xw3DE0)          ; 2657
265A: CD8D0D  	        CALL p0D8D              ; 265A
265D: C4D304  	        CALL NZ,p04D3           ; 265D
2660: D1      	        POP DE                  ; 2660
2661: E1      	        POP HL                  ; 2661
2662: C9      	        RET                     ; 2662
              	
2663: 3A573F  	p2663:  LD A,(xb3F57)           ; 2663
2666: 5F      	        LD E,A                  ; 2666
2667: 1600    	        LD D,00H                ; 2667
2669: 0E20    	        LD C,20H                ; 2669
266B: 3A113E  	        LD A,(xb3E11)           ; 266B
266E: FE20    	        CP 20H                  ; 266E
2670: C8      	        RET Z                   ; 2670
2671: FE4F    	        CP 4FH                  ; 2671
2673: C27826  	        JP NZ,p2678             ; 2673
2676: 1E00    	        LD E,00H                ; 2676
2678: 3E20    	p2678:  LD A,20H                ; 2678
267A: 32113E  	        LD (xb3E11),A           ; 267A
267D: C9      	        RET                     ; 267D
              	
267E: CDD42C  	p267E:  CALL p2CD4              ; 267E
2681: CD8320  	        CALL p2083              ; 2681
2684: EB      	        EX DE,HL                ; 2684
2685: 78      	        LD A,B                  ; 2685
2686: E620    	        AND 20H                 ; 2686
2688: CADF04  	        JP Z,p04DF              ; 2688
268B: AF      	        XOR A                   ; 268B
268C: 32E83D  	        LD (xb3DE8),A           ; 268C
268F: 78      	        LD A,B                  ; 268F
2690: E603    	        AND 03H                 ; 2690
2692: 47      	        LD B,A                  ; 2692
2693: CAB126  	        JP Z,p26B1              ; 2693
2696: 3AD13D  	        LD A,(xb3DD1)           ; 2696
2699: B8      	        CP B                    ; 2699
269A: C2D304  	        JP NZ,p04D3             ; 269A
269D: FE03    	        CP 03H                  ; 269D
269F: C2B126  	        JP NZ,p26B1             ; 269F
26A2: E5      	        PUSH HL                 ; 26A2
26A3: 2ADA3D  	        LD HL,(xw3DDA)          ; 26A3
26A6: EB      	        EX DE,HL                ; 26A6
26A7: 2ADE3D  	        LD HL,(xw3DDE)          ; 26A7
26AA: CD8D0D  	        CALL p0D8D              ; 26AA
26AD: C2D304  	        JP NZ,p04D3             ; 26AD
26B0: E1      	        POP HL                  ; 26B0
26B1: 3AD13D  	p26B1:  LD A,(xb3DD1)           ; 26B1
26B4: 47      	        LD B,A                  ; 26B4
26B5: EB      	p26B5:  EX DE,HL                ; 26B5
26B6: 2ADA3D  	        LD HL,(xw3DDA)          ; 26B6
26B9: 22DE3D  	        LD (xw3DDE),HL          ; 26B9
26BC: 3AEC3C  	        LD A,(xb3CEC)           ; 26BC
26BF: B7      	        OR A                    ; 26BF
26C0: C4831B  	        CALL NZ,p1B83           ; 26C0
26C3: EB      	        EX DE,HL                ; 26C3
26C4: 22D23D  	        LD (xw3DD2),HL          ; 26C4
26C7: EB      	        EX DE,HL                ; 26C7
26C8: 0E0B    	        LD C,0BH                ; 26C8
26CA: 3AE83D  	        LD A,(xb3DE8)           ; 26CA
26CD: B7      	        OR A                    ; 26CD
26CE: C2DF26  	        JP NZ,p26DF             ; 26CE
26D1: 3AEC3C  	        LD A,(xb3CEC)           ; 26D1
26D4: B7      	        OR A                    ; 26D4
26D5: C4A91B  	        CALL NZ,p1BA9           ; 26D5
26D8: 3A5C3F  	        LD A,(xb3F5C)           ; 26D8
26DB: B7      	        OR A                    ; 26DB
26DC: CC3227  	        CALL Z,p2732            ; 26DC
26DF: 3A5C3F  	p26DF:  LD A,(xb3F5C)           ; 26DF
26E2: B7      	        OR A                    ; 26E2
26E3: C8      	        RET Z                   ; 26E3
26E4: AF      	        XOR A                   ; 26E4
26E5: 325C3F  	        LD (xb3F5C),A           ; 26E5
26E8: CD550B  	        CALL p0B55              ; 26E8
26EB: CACD04  	        JP Z,p04CD              ; 26EB
26EE: C9      	        RET                     ; 26EE
              	
26EF: CD3227  	p26EF:  CALL p2732              ; 26EF
26F2: CD311B  	        CALL p1B31              ; 26F2
26F5: 3E00    	        LD A,00H                ; 26F5
26F7: 47      	        LD B,A                  ; 26F7
26F8: 32D13D  	        LD (xb3DD1),A           ; 26F8
26FB: 3C      	        INC A                   ; 26FB
26FC: 325C3F  	        LD (xb3F5C),A           ; 26FC
26FF: 32E83D  	        LD (xb3DE8),A           ; 26FF
2702: 2AD43D  	        LD HL,(xw3DD4)          ; 2702
2705: C3B526  	        JP p26B5                ; 2705
              	
2708: CD3227  	p2708:  CALL p2732              ; 2708
270B: CD311B  	        CALL p1B31              ; 270B
270E: 3E01    	        LD A,01H                ; 270E
2710: 325C3F  	        LD (xb3F5C),A           ; 2710
2713: 47      	        LD B,A                  ; 2713
2714: 32D13D  	        LD (xb3DD1),A           ; 2714
2717: 2AD63D  	        LD HL,(xw3DD6)          ; 2717
271A: C3B526  	        JP p26B5                ; 271A
              	
271D: CD3227  	p271D:  CALL p2732              ; 271D
2720: CD311B  	        CALL p1B31              ; 2720
2723: 3E02    	        LD A,02H                ; 2723
2725: 325C3F  	        LD (xb3F5C),A           ; 2725
2728: 47      	        LD B,A                  ; 2728
2729: 32D13D  	        LD (xb3DD1),A           ; 2729
272C: 2AD83D  	        LD HL,(xw3DD8)          ; 272C
272F: C3B526  	        JP p26B5                ; 272F
              	
2732: 3A5C3F  	p2732:  LD A,(xb3F5C)           ; 2732
2735: B7      	        OR A                    ; 2735
2736: C4D42C  	x2736:  CALL NZ,p2CD4           ; 2736
2739: 3AD13D  	        LD A,(xb3DD1)           ; 2739
273C: 01D43D  	        LD BC,xw3DD4            ; 273C
273F: E603    	        AND 03H                 ; 273F
2741: FE03    	        CP 03H                  ; 2741
2743: CA6027  	        JP Z,p2760              ; 2743
2746: 87      	        ADD A,A                 ; 2746
2747: 6F      	        LD L,A                  ; 2747
2748: 2600    	        LD H,00H                ; 2748
274A: 09      	        ADD HL,BC               ; 274A
274B: E5      	p274B:  PUSH HL                 ; 274B
274C: 5E      	        LD E,(HL)               ; 274C
274D: 23      	        INC HL                  ; 274D
274E: 56      	        LD D,(HL)               ; 274E
274F: 2AD23D  	        LD HL,(xw3DD2)          ; 274F
2752: CD8D0D  	        CALL p0D8D              ; 2752
2755: D1      	        POP DE                  ; 2755
2756: D8      	        RET C                   ; 2756
2757: EB      	        EX DE,HL                ; 2757
2758: 73      	        LD (HL),E               ; 2758
2759: 23      	        INC HL                  ; 2759
275A: 72      	        LD (HL),D               ; 275A
275B: AF      	        XOR A                   ; 275B
275C: 32E83D  	        LD (xb3DE8),A           ; 275C
275F: C9      	        RET                     ; 275F
              	
2760: 2ADA3D  	p2760:  LD HL,(xw3DDA)          ; 2760
2763: 23      	        INC HL                  ; 2763
2764: 23      	        INC HL                  ; 2764
2765: C34B27  	        JP p274B                ; 2765
              	
2768: F5      	p2768:  PUSH AF                 ; 2768
2769: 3AEC3C  	        LD A,(xb3CEC)           ; 2769
276C: B7      	        OR A                    ; 276C
276D: CA8727  	        JP Z,p2787              ; 276D
2770: 3AE83D  	        LD A,(xb3DE8)           ; 2770
2773: B7      	        OR A                    ; 2773
2774: CA8727  	        JP Z,p2787              ; 2774
2777: C5      	        PUSH BC                 ; 2777
2778: D5      	        PUSH DE                 ; 2778
2779: E5      	        PUSH HL                 ; 2779
277A: 2AD43D  	        LD HL,(xw3DD4)          ; 277A
277D: EB      	        EX DE,HL                ; 277D
277E: 010B00  	        LD BC,000BH             ; 277E
2781: CDA91B  	        CALL p1BA9              ; 2781
2784: E1      	        POP HL                  ; 2784
2785: D1      	        POP DE                  ; 2785
2786: C1      	        POP BC                  ; 2786
2787: AF      	p2787:  XOR A                   ; 2787
2788: 32E83D  	        LD (xb3DE8),A           ; 2788
278B: F1      	        POP AF                  ; 278B
278C: C9      	        RET                     ; 278C
              	
278D: CD311B  	p278D:  CALL p1B31              ; 278D
2790: CDC80B  	        CALL p0BC8              ; 2790
2793: CD360B  	        CALL p0B36              ; 2793
2796: FE22    	        CP 22H                  ; 2796
2798: CAA027  	        JP Z,p27A0              ; 2798
279B: FE27    	        CP 27H                  ; 279B
279D: C21C28  	        JP NZ,p281C             ; 279D
27A0: 47      	p27A0:  LD B,A                  ; 27A0
27A1: CD290B  	        CALL p0B29              ; 27A1
27A4: CD290B  	        CALL p0B29              ; 27A4
27A7: 2A463D  	        LD HL,(xw3D46)          ; 27A7
27AA: 2B      	        DEC HL                  ; 27AA
27AB: 2B      	        DEC HL                  ; 27AB
27AC: E5      	        PUSH HL                 ; 27AC
27AD: B8      	        CP B                    ; 27AD
27AE: 0E00    	        LD C,00H                ; 27AE
27B0: CAC027  	        JP Z,p27C0              ; 27B0
27B3: 0C      	p27B3:  INC C                   ; 27B3
27B4: CD290B  	        CALL p0B29              ; 27B4
27B7: FE0D    	        CP 0DH                  ; 27B7
27B9: CAC727  	        JP Z,p27C7              ; 27B9
27BC: B8      	        CP B                    ; 27BC
27BD: C2B327  	        JP NZ,p27B3             ; 27BD
27C0: CDEA0A  	p27C0:  CALL p0AEA              ; 27C0
27C3: B8      	        CP B                    ; 27C3
27C4: CAB327  	        JP Z,p27B3              ; 27C4
27C7: CD360B  	p27C7:  CALL p0B36              ; 27C7
27CA: CDC80B  	        CALL p0BC8              ; 27CA
27CD: FE2C    	        CP 2CH                  ; 27CD
27CF: CADD27  	        JP Z,p27DD              ; 27CF
27D2: FE3B    	        CP 3BH                  ; 27D2
27D4: CADD27  	        JP Z,p27DD              ; 27D4
27D7: B8      	        CP B                    ; 27D7
27D8: CADD27  	        JP Z,p27DD              ; 27D8
27DB: FE0D    	        CP 0DH                  ; 27DB
27DD: E1      	p27DD:  POP HL                  ; 27DD
27DE: 22463D  	        LD (xw3D46),HL          ; 27DE
27E1: C21C28  	        JP NZ,p281C             ; 27E1
27E4: 79      	        LD A,C                  ; 27E4
27E5: FE02    	        CP 02H                  ; 27E5
27E7: DA1C28  	        JP C,p281C              ; 27E7
27EA: CD230B  	        CALL p0B23              ; 27EA
27ED: 47      	        LD B,A                  ; 27ED
27EE: CD290B  	        CALL p0B29              ; 27EE
27F1: CD290B  	        CALL p0B29              ; 27F1
27F4: C3FF27  	        JP p27FF                ; 27F4
              	
27F7: C5      	p27F7:  PUSH BC                 ; 27F7
27F8: CD4C16  	        CALL p164C              ; 27F8
27FB: C1      	        POP BC                  ; 27FB
27FC: CD290B  	        CALL p0B29              ; 27FC
27FF: FE0D    	p27FF:  CP 0DH                  ; 27FF
2801: C8      	        RET Z                   ; 2801
2802: B8      	        CP B                    ; 2802
2803: C2F727  	        JP NZ,p27F7             ; 2803
2806: CD230B  	        CALL p0B23              ; 2806
2809: B8      	        CP B                    ; 2809
280A: CA1628  	        JP Z,p2816              ; 280A
280D: CDEA0A  	        CALL p0AEA              ; 280D
2810: FE2C    	        CP 2CH                  ; 2810
2812: CA8D27  	        JP Z,p278D              ; 2812
2815: C9      	        RET                     ; 2815
              	
2816: CD4C16  	p2816:  CALL p164C              ; 2816
2819: C38D27  	        JP p278D                ; 2819
              	
281C: CD5A0F  	p281C:  CALL p0F5A              ; 281C
281F: F5      	        PUSH AF                 ; 281F
2820: 3AE23D  	        LD A,(xb3DE2)           ; 2820
2823: B7      	        OR A                    ; 2823
2824: FAC718  	        JP M,p18C7              ; 2824
2827: F1      	        POP AF                  ; 2827
2828: CDD916  	p2828:  CALL p16D9              ; 2828
282B: 79      	        LD A,C                  ; 282B
282C: FE2C    	        CP 2CH                  ; 282C
282E: CA8D27  	        JP Z,p278D              ; 282E
2831: C9      	        RET                     ; 2831
              	
2832: CD8320  	p2832:  CALL p2083              ; 2832
2835: F5      	        PUSH AF                 ; 2835
2836: 78      	        LD A,B                  ; 2836
2837: E683    	        AND 83H                 ; 2837
2839: C4D304  	        CALL NZ,p04D3           ; 2839
283C: F1      	        POP AF                  ; 283C
283D: C9      	        RET                     ; 283D
              	
283E: CD311B  	p283E:  CALL p1B31              ; 283E
2841: CDC80B  	p2841:  CALL p0BC8              ; 2841
2844: FE22    	        CP 22H                  ; 2844
2846: CA4E28  	        JP Z,p284E              ; 2846
2849: FE27    	        CP 27H                  ; 2849
284B: C49D04  	        CALL NZ,p049D           ; 284B
284E: 4F      	p284E:  LD C,A                  ; 284E
284F: AF      	        XOR A                   ; 284F
2850: F5      	p2850:  PUSH AF                 ; 2850
2851: CD290B  	        CALL p0B29              ; 2851
2854: FE0D    	        CP 0DH                  ; 2854
2856: CAC718  	        JP Z,p18C7              ; 2856
2859: B9      	        CP C                    ; 2859
285A: C26428  	        JP NZ,p2864             ; 285A
285D: CDEA0A  	        CALL p0AEA              ; 285D
2860: B9      	        CP C                    ; 2860
2861: C26F28  	        JP NZ,p286F             ; 2861
2864: 47      	p2864:  LD B,A                  ; 2864
2865: F1      	        POP AF                  ; 2865
2866: C5      	        PUSH BC                 ; 2866
2867: B7      	        OR A                    ; 2867
2868: C44C16  	        CALL NZ,p164C           ; 2868
286B: F1      	        POP AF                  ; 286B
286C: C35028  	        JP p2850                ; 286C
              	
286F: C1      	p286F:  POP BC                  ; 286F
2870: F5      	        PUSH AF                 ; 2870
2871: 78      	        LD A,B                  ; 2871
2872: 87      	        ADD A,A                 ; 2872
2873: 78      	        LD A,B                  ; 2873
2874: CA7C28  	        JP Z,p287C              ; 2874
2877: F680    	        OR 80H                  ; 2877
2879: CD4C16  	        CALL p164C              ; 2879
287C: F1      	p287C:  POP AF                  ; 287C
287D: FE2C    	        CP 2CH                  ; 287D
287F: CA4128  	        JP Z,p2841              ; 287F
2882: C9      	        RET                     ; 2882
              	
2883: CD311B  	p2883:  CALL p1B31              ; 2883
2886: CDC428  	        CALL p28C4              ; 2886
2889: CD6827  	        CALL p2768              ; 2889
288C: 79      	        LD A,C                  ; 288C
288D: FE2C    	        CP 2CH                  ; 288D
288F: C29B28  	        JP NZ,p289B             ; 288F
2892: D5      	        PUSH DE                 ; 2892
2893: CD5A0F  	        CALL p0F5A              ; 2893
2896: 43      	        LD B,E                  ; 2896
2897: D1      	        POP DE                  ; 2897
2898: C3A428  	        JP p28A4                ; 2898
              	
289B: 3A9140  	p289B:  LD A,(xb4091)           ; 289B
289E: B7      	        OR A                    ; 289E
289F: CAB928  	        JP Z,p28B9              ; 289F
28A2: 0600    	        LD B,00H                ; 28A2
28A4: 7A      	p28A4:  LD A,D                  ; 28A4
28A5: B3      	        OR E                    ; 28A5
28A6: C8      	        RET Z                   ; 28A6
28A7: 1B      	        DEC DE                  ; 28A7
28A8: 2AD23D  	        LD HL,(xw3DD2)          ; 28A8
28AB: 23      	        INC HL                  ; 28AB
28AC: 22D23D  	        LD (xw3DD2),HL          ; 28AC
28AF: 3AEC3C  	        LD A,(xb3CEC)           ; 28AF
28B2: B7      	        OR A                    ; 28B2
28B3: C4271C  	        CALL NZ,p1C27           ; 28B3
28B6: C3A428  	        JP p28A4                ; 28B6
              	
28B9: 2AD23D  	p28B9:  LD HL,(xw3DD2)          ; 28B9
28BC: 19      	        ADD HL,DE               ; 28BC
28BD: 3AD13D  	        LD A,(xb3DD1)           ; 28BD
28C0: 47      	        LD B,A                  ; 28C0
28C1: C3B526  	        JP p26B5                ; 28C1
              	
28C4: CD3228  	p28C4:  CALL p2832              ; 28C4
28C7: 3AEC3C  	        LD A,(xb3CEC)           ; 28C7
28CA: B7      	        OR A                    ; 28CA
28CB: C0      	        RET NZ                  ; 28CB
28CC: 3A113E  	        LD A,(xb3E11)           ; 28CC
28CF: FE55    	        CP 55H                  ; 28CF
28D1: C0      	        RET NZ                  ; 28D1
28D2: 3C      	        INC A                   ; 28D2
28D3: 32113E  	        LD (xb3E11),A           ; 28D3
28D6: C9      	        RET                     ; 28D6
              	
28D7: CD311B  	p28D7:  CALL p1B31              ; 28D7
28DA: CD6827  	        CALL p2768              ; 28DA
28DD: CD8320  	        CALL p2083              ; 28DD
28E0: CDD517  	        CALL p17D5              ; 28E0
28E3: 79      	        LD A,C                  ; 28E3
28E4: FE2C    	        CP 2CH                  ; 28E4
28E6: CAD728  	        JP Z,p28D7              ; 28E6
28E9: C9      	        RET                     ; 28E9
              	
28EA: 3AF33C  	p28EA:  LD A,(xb3CF3)           ; 28EA
28ED: 3D      	        DEC A                   ; 28ED
28EE: FA1229  	        JP M,p2912              ; 28EE
28F1: 47      	        LD B,A                  ; 28F1
28F2: 32F33C  	        LD (xb3CF3),A           ; 28F2
28F5: 3AF43C  	        LD A,(xb3CF4)           ; 28F5
28F8: 3D      	        DEC A                   ; 28F8
28F9: B8      	        CP B                    ; 28F9
28FA: C20029  	        JP NZ,p2900             ; 28FA
28FD: 32F43C  	        LD (xb3CF4),A           ; 28FD
2900: 3AF43C  	p2900:  LD A,(xb3CF4)           ; 2900
2903: 90      	        SUB B                   ; 2903
2904: 9F      	        SBC A,A                 ; 2904
2905: 3C      	        INC A                   ; 2905
2906: 32283D  	        LD (xb3D28),A           ; 2906
2909: CD3F29  	        CALL p293F              ; 2909
290C: 32F53C  	        LD (xb3CF5),A           ; 290C
290F: C3400B  	        JP p0B40                ; 290F
              	
2912: CDA304  	p2912:  CALL p04A3              ; 2912
2915: C9      	        RET                     ; 2915
              	
2916: 3AF53C  	p2916:  LD A,(xb3CF5)           ; 2916
2919: B7      	        OR A                    ; 2919
291A: C4A304  	        CALL NZ,p04A3           ; 291A
291D: 3AF33C  	        LD A,(xb3CF3)           ; 291D
2920: B7      	        OR A                    ; 2920
2921: CCA304  	        CALL Z,p04A3            ; 2921
2924: 21F43C  	        LD HL,xb3CF4            ; 2924
2927: 96      	        SUB (HL)                ; 2927
2928: CA3B29  	        JP Z,p293B              ; 2928
292B: 3D      	        DEC A                   ; 292B
292C: C2400B  	        JP NZ,p0B40             ; 292C
292F: 34      	        INC (HL)                ; 292F
2930: 3D      	        DEC A                   ; 2930
2931: 32283D  	p2931:  LD (xb3D28),A           ; 2931
2934: 3C      	        INC A                   ; 2934
2935: 32F53C  	        LD (xb3CF5),A           ; 2935
2938: C3400B  	        JP p0B40                ; 2938
              	
293B: 35      	p293B:  DEC (HL)                ; 293B
293C: C33129  	        JP p2931                ; 293C
              	
293F: 3AF33C  	p293F:  LD A,(xb3CF3)           ; 293F
2942: 5F      	        LD E,A                  ; 2942
2943: FE32    	        CP 32H                  ; 2943
2945: 3E00    	        LD A,00H                ; 2945
2947: D0      	        RET NC                  ; 2947
2948: 57      	        LD D,A                  ; 2948
2949: 21F63C  	        LD HL,xf3CF6            ; 2949 start of buffer
294C: 19      	        ADD HL,DE               ; 294C
294D: 37      	        SCF                     ; 294D
294E: 7E      	        LD A,(HL)               ; 294E
294F: C9      	        RET                     ; 294F
              	
2950: F5      	p2950:  PUSH AF                 ; 2950
2951: CD3F29  	        CALL p293F              ; 2951
2954: 11F53C  	        LD DE,xb3CF5            ; 2954
2957: D25C29  	        JP NC,p295C             ; 2957
295A: 1A      	        LD A,(DE)               ; 295A
295B: 77      	        LD (HL),A               ; 295B
295C: AF      	p295C:  XOR A                   ; 295C
295D: 12      	        LD (DE),A               ; 295D
295E: 21F33C  	        LD HL,xb3CF3            ; 295E
2961: 34      	        INC (HL)                ; 2961
2962: 3A283D  	        LD A,(xb3D28)            ; 2962
2965: B7      	        OR A                    ; 2965
2966: CAC718  	        JP Z,p18C7              ; 2966
2969: F1      	        POP AF                  ; 2969
296A: 32283D  	        LD (xb3D28),A           ; 296A
296D: 21F43C  	        LD HL,xb3CF4            ; 296D
2970: B7      	        OR A                    ; 2970
2971: CA7629  	        JP Z,p2976              ; 2971
2974: 34      	        INC (HL)                ; 2974
2975: C9      	        RET                     ; 2975
              	
2976: 3AF33C  	p2976:  LD A,(xb3CF3)           ; 2976
2979: 3D      	        DEC A                   ; 2979
297A: 96      	        SUB (HL)                ; 297A
297B: 32293D  	        LD (xb3D29),A           ; 297B
297E: C9      	        RET                     ; 297E
              	
297F: CDD129  	p297F:  CALL p29D1              ; 297F
2982: 7A      	        LD A,D                  ; 2982
2983: B3      	        OR E                    ; 2983
2984: C35029  	        JP p2950                ; 2984
              	
2987: CDD129  	p2987:  CALL p29D1              ; 2987
298A: 7A      	        LD A,D                  ; 298A
298B: B3      	        OR E                    ; 298B
298C: 2F      	        CPL                     ; 298C
298D: CA5029  	        JP Z,p2950              ; 298D
2990: AF      	        XOR A                   ; 2990
2991: C35029  	        JP p2950                ; 2991
              	
2994: 3AEC3C  	p2994:  LD A,(xb3CEC)           ; 2994
2997: CD400B  	        CALL p0B40              ; 2997
299A: 3D      	        DEC A                   ; 299A
299B: C35029  	        JP p2950                ; 299B
              	
299E: 3AEC3C  	p299E:  LD A,(xb3CEC)           ; 299E
29A1: CD400B  	        CALL p0B40              ; 29A1
29A4: B7      	        OR A                    ; 29A4
29A5: C35029  	        JP p2950                ; 29A5
              	
29A8: F6      	p29A8:  DB 0F6H                 ; 29A8 (OR 37H)
29A9: 37      	p29A9:  SCF                     ; 29A9
29AA: F5      	        PUSH AF                 ; 29AA save carry flag
29AB: 3A283D  	        LD A,(xb3D28)           ; 29AB
29AE: B7      	        OR A                    ; 29AE
29AF: CAD829  	        JP Z,p29D8              ; 29AF
29B2: CD550B  	        CALL p0B55              ; 29B2
29B5: CD240C  	        CALL p0C24              ; 29B5
29B8: C2C029  	        JP NZ,p29C0             ; 29B8
29BB: E6A0    	        AND 0A0H                 ; 29BB
29BD: C2CB29  	        JP NZ,p29CB             ; 29BD
29C0: CD0E0C  	p29C0:  CALL p0C0E              ; 29C0
29C3: CACB29  	        JP Z,p29CB              ; 29C3
29C6: F1      	p29C6:  POP AF                  ; 29C6
29C7: 9F      	        SBC A,A                 ; 29C7
29C8: C35029  	        JP p2950                ; 29C8
              	
29CB: F1      	p29CB:  POP AF                  ; 29CB
29CC: 3F      	        CCF                     ; 29CC
29CD: 9F      	        SBC A,A                 ; 29CD
29CE: C35029  	        JP p2950                ; 29CE
              	
29D1: 3A283D  	p29D1:  LD A,(xb3D28)           ; 29D1
29D4: B7      	        OR A                    ; 29D4
29D5: C2C428  	        JP NZ,p28C4             ; 29D5
29D8: C1      	p29D8:  POP BC                  ; 29D8
29D9: AF      	        XOR A                   ; 29D9
29DA: 218B0D  	        LD HL,xs0D8B            ; 29DA 0AH, 00H
29DD: 22463D  	        LD (xw3D46),HL          ; 29DD
29E0: C35029  	        JP p2950                ; 29E0
              	
29E3: F6      	p29E3:  DB 0F6H                 ; 29E3 (OR 37H)
29E4: 37      	p29E4:  SCF                     ; 29E4
29E5: F5      	        PUSH AF                 ; 29E5
29E6: CD322A  	        CALL p2A32              ; 29E6
29E9: C2D829  	        JP NZ,p29D8             ; 29E9
29EC: 22463D  	        LD (xw3D46),HL          ; 29EC
29EF: 78      	        LD A,B                  ; 29EF
29F0: B1      	        OR C                    ; 29F0
29F1: CACB29  	        JP Z,p29CB              ; 29F1
29F4: C3C629  	        JP p29C6                ; 29F4
              	
29F7: F6      	p29F7:  DB 0F6H                 ; 29F7 (OR 37H)
29F8: 37      	p29F8:  SCF                     ; 29F8
29F9: F5      	        PUSH AF                 ; 29F9
29FA: CD322A  	        CALL p2A32              ; 29FA
29FD: C2D829  	        JP NZ,p29D8             ; 29FD
2A00: D5      	        PUSH DE                 ; 2A00
2A01: C5      	        PUSH BC                 ; 2A01
2A02: 7E      	        LD A,(HL)               ; 2A02
2A03: FE2C    	        CP 2CH                  ; 2A03
2A05: C22A2A  	        JP NZ,p2A2A             ; 2A05
2A08: 23      	        INC HL                  ; 2A08
2A09: 22463D  	        LD (xw3D46),HL          ; 2A09
2A0C: CD322A  	        CALL p2A32              ; 2A0C
2A0F: C22D2A  	        JP NZ,p2A2D             ; 2A0F
2A12: 22463D  	        LD (xw3D46),HL          ; 2A12
2A15: 79      	        LD A,C                  ; 2A15
2A16: C1      	        POP BC                  ; 2A16
2A17: E1      	        POP HL                  ; 2A17
2A18: B9      	        CP C                    ; 2A18
2A19: C2C629  	        JP NZ,p29C6             ; 2A19
2A1C: 1A      	p2A1C:  LD A,(DE)               ; 2A1C
2A1D: BE      	        CP (HL)                 ; 2A1D
2A1E: C2C629  	        JP NZ,p29C6             ; 2A1E
2A21: 13      	x2A21:  INC DE                  ; 2A21
2A22: 23      	        INC HL                  ; 2A22
2A23: 0D      	        DEC C                   ; 2A23
2A24: C21C2A  	        JP NZ,p2A1C             ; 2A24
2A27: C3CB29  	        JP p29CB                ; 2A27
              	
2A2A: CDC104  	p2A2A:  CALL p04C1              ; 2A2A
2A2D: E1      	p2A2D:  POP HL                  ; 2A2D
2A2E: E1      	        POP HL                  ; 2A2E
2A2F: C3D829  	        JP p29D8                ; 2A2F
              	
2A32: CDC80B  	p2A32:  CALL p0BC8              ; 2A32
2A35: FE3C    	        CP 3CH                  ; 2A35
2A37: C49D04  	        CALL NZ,p049D           ; 2A37
2A3A: CD230B  	p2A3A:  CALL p0B23              ; 2A3A
2A3D: B7      	        OR A                    ; 2A3D
2A3E: C2522A  	        JP NZ,p2A52             ; 2A3E
2A41: CDEA0A  	        CALL p0AEA              ; 2A41
2A44: CD230B  	        CALL p0B23              ; 2A44
2A47: FE26    	        CP 26H                  ; 2A47
2A49: C2522A  	        JP NZ,p2A52             ; 2A49
2A4C: CDEA0A  	        CALL p0AEA              ; 2A4C
2A4F: C33A2A  	        JP p2A3A                ; 2A4F
              	
2A52: 2A463D  	p2A52:  LD HL,(xw3D46)          ; 2A52
2A55: 2B      	        DEC HL                  ; 2A55
2A56: 110000  	        LD DE,0000H             ; 2A56
2A59: 23      	p2A59:  INC HL                  ; 2A59
2A5A: 7E      	        LD A,(HL)               ; 2A5A
2A5B: FE3E    	        CP 3EH                  ; 2A5B
2A5D: C2622A  	        JP NZ,p2A62             ; 2A5D
2A60: 54      	        LD D,H                  ; 2A60
2A61: 5D      	        LD E,L                  ; 2A61
2A62: FE2C    	p2A62:  CP 2CH                  ; 2A62
2A64: C26C2A  	        JP NZ,p2A6C             ; 2A64
2A67: 7A      	        LD A,D                  ; 2A67
2A68: B3      	        OR E                    ; 2A68
2A69: C2722A  	        JP NZ,p2A72             ; 2A69
2A6C: FE0D    	p2A6C:  CP 0DH                  ; 2A6C
2A6E: C2592A  	        JP NZ,p2A59             ; 2A6E
2A71: 23      	        INC HL                  ; 2A71
2A72: E5      	p2A72:  PUSH HL                 ; 2A72
2A73: 2A463D  	        LD HL,(xw3D46)          ; 2A73
2A76: 7A      	        LD A,D                  ; 2A76
2A77: B3      	        OR E                    ; 2A77
2A78: CC9D04  	        CALL Z,p049D            ; 2A78
2A7B: EB      	        EX DE,HL                ; 2A7B
2A7C: 7D      	        LD A,L                  ; 2A7C
2A7D: 93      	        SUB E                   ; 2A7D
2A7E: 4F      	        LD C,A                  ; 2A7E
2A7F: 7C      	        LD A,H                  ; 2A7F
2A80: 9A      	        SBC A,D                 ; 2A80
2A81: 47      	        LD B,A                  ; 2A81
2A82: E1      	        POP HL                  ; 2A82
2A83: 3A113E  	        LD A,(xb3E11)           ; 2A83
2A86: FE20    	        CP 20H                  ; 2A86
2A88: C9      	        RET                     ; 2A88
              	
2A89: CD550B  	p2A89:  CALL p0B55              ; 2A89
2A8C: 4F      	        LD C,A                  ; 2A8C
2A8D: C5      	        PUSH BC                 ; 2A8D
2A8E: C49D04  	        CALL NZ,p049D           ; 2A8E
2A91: 37      	        SCF                     ; 2A91
2A92: CDFC0C  	        CALL p0CFC              ; 2A92
2A95: CD152D  	        CALL p2D15              ; 2A95
2A98: 23      	        INC HL                  ; 2A98
2A99: 7E      	        LD A,(HL)               ; 2A99
2A9A: F640    	        OR 40H                  ; 2A9A
2A9C: 77      	        LD (HL),A               ; 2A9C
2A9D: C1      	        POP BC                  ; 2A9D
2A9E: E620    	        AND 20H                 ; 2A9E
2AA0: CCD904  	        CALL Z,p04D9            ; 2AA0
2AA3: 7E      	        LD A,(HL)               ; 2AA3
2AA4: E680    	        AND 80H                 ; 2AA4
2AA6: C4B504  	        CALL NZ,p04B5           ; 2AA6
2AA9: 1F      	        RRA                     ; 2AA9
2AAA: 1F      	        RRA                     ; 2AAA
2AAB: 1F      	        RRA                     ; 2AAB
2AAC: B6      	        OR (HL)                 ; 2AAC
2AAD: 77      	        LD (HL),A               ; 2AAD
2AAE: 79      	        LD A,C                  ; 2AAE
2AAF: FE2C    	        CP 2CH                  ; 2AAF
2AB1: CA892A  	        JP Z,p2A89              ; 2AB1
2AB4: C9      	        RET                     ; 2AB4
              	
2AB5: 11313E  	p2AB5:  LD DE,xf3E31            ; 2AB5 buffer start
2AB8: 01004F  	        LD BC,4F00H             ; 2AB8
2ABB: C3C52A  	        JP p2AC5                ; 2ABB
              	
2ABE: 0E00    	p2ABE:  LD C,00H                ; 2ABE
2AC0: 11813E  	p2AC0:  LD DE,xf3E81            ; 2AC0 buffer start
2AC3: 063B    	        LD B,3BH                ; 2AC3
2AC5: CDC80B  	p2AC5:  CALL p0BC8              ; 2AC5
2AC8: 2A463D  	        LD HL,(xw3D46)          ; 2AC8
2ACB: 2B      	        DEC HL                  ; 2ACB
2ACC: 7E      	p2ACC:  LD A,(HL)               ; 2ACC
2ACD: 23      	        INC HL                  ; 2ACD
2ACE: FE0D    	        CP 0DH                  ; 2ACE
2AD0: CAE22A  	        JP Z,p2AE2              ; 2AD0
2AD3: B9      	        CP C                    ; 2AD3
2AD4: CAE22A  	        JP Z,p2AE2              ; 2AD4
2AD7: 04      	        INC B                   ; 2AD7
2AD8: 05      	        DEC B                   ; 2AD8
2AD9: CACC2A  	        JP Z,p2ACC              ; 2AD9
2ADC: 12      	        LD (DE),A               ; 2ADC
2ADD: 13      	        INC DE                  ; 2ADD
2ADE: 05      	        DEC B                   ; 2ADE
2ADF: C3CC2A  	        JP p2ACC                ; 2ADF
              	
2AE2: AF      	p2AE2:  XOR A                   ; 2AE2
2AE3: 12      	        LD (DE),A               ; 2AE3
2AE4: 23      	        INC HL                  ; 2AE4
2AE5: 22463D  	        LD (xw3D46),HL          ; 2AE5
2AE8: C9      	        RET                     ; 2AE8
              	
2AE9: CDC80B  	p2AE9:  CALL p0BC8              ; 2AE9
2AEC: FE28    	        CP 28H                  ; 2AEC
2AEE: C29D04  	        JP NZ,p049D             ; 2AEE
2AF1: CD290B  	        CALL p0B29              ; 2AF1
2AF4: FE27    	        CP 27H                  ; 2AF4
2AF6: C29D04  	        JP NZ,p049D             ; 2AF6
2AF9: 4F      	        LD C,A                  ; 2AF9
2AFA: CDC02A  	        CALL p2AC0              ; 2AFA
2AFD: CD360B  	        CALL p0B36              ; 2AFD
2B00: CD290B  	        CALL p0B29              ; 2B00
2B03: FE29    	        CP 29H                  ; 2B03
2B05: C49D04  	        CALL NZ,p049D           ; 2B05
2B08: C3400B  	        JP p0B40                ; 2B08
              	
2B0B: 3E01    	p2B0B:  LD A,01H                ; 2B0B
2B0D: 322F3D  	        LD (xb3D2F),A           ; 2B0D
2B10: C3592B  	        JP p2B59                ; 2B10
              	
2B13: AF      	p2B13:  XOR A                   ; 2B13
2B14: 322F3D  	        LD (xb3D2F),A           ; 2B14
2B17: C3592B  	        JP p2B59                ; 2B17
              	
2B1A: AF      	p2B1A:  XOR A                   ; 2B1A
2B1B: 322D3D  	        LD (xb3D2D),A           ; 2B1B
2B1E: C3592B  	        JP p2B59                ; 2B1E
              	
2B21: CD550B  	p2B21:  CALL p0B55              ; 2B21
2B24: C2472B  	        JP NZ,p2B47             ; 2B24
2B27: 0C      	        INC C                   ; 2B27
2B28: 0D      	        DEC C                   ; 2B28
2B29: CA472B  	        JP Z,p2B47              ; 2B29
2B2C: F5      	p2B2C:  PUSH AF                 ; 2B2C
2B2D: CD0E0C  	        CALL p0C0E              ; 2B2D
2B30: C4240C  	        CALL NZ,p0C24           ; 2B30
2B33: C23A2B  	        JP NZ,p2B3A             ; 2B33
2B36: 7E      	        LD A,(HL)               ; 2B36
2B37: F640    	        OR 40H                  ; 2B37
2B39: 77      	        LD (HL),A               ; 2B39
2B3A: F1      	p2B3A:  POP AF                  ; 2B3A
2B3B: FE2C    	        CP 2CH                  ; 2B3B
2B3D: C0      	        RET NZ                  ; 2B3D
2B3E: CD550B  	        CALL p0B55              ; 2B3E
2B41: C2C104  	        JP NZ,p04C1             ; 2B41
2B44: C32C2B  	        JP p2B2C                ; 2B44
              	
2B47: 3E01    	p2B47:  LD A,01H                ; 2B47
2B49: 322D3D  	        LD (xb3D2D),A           ; 2B49
2B4C: C9      	        RET                     ; 2B4C
              	
2B4D: 3EFF    	p2B4D:  LD A,0FFH               ; 2B4D
2B4F: 322E3D  	        LD (xb3D2E),A           ; 2B4F
2B52: C3592B  	        JP p2B59                ; 2B52
              	
2B55: AF      	p2B55:  XOR A                   ; 2B55
2B56: 322E3D  	        LD (xb3D2E),A           ; 2B56
2B59: C3400B  	p2B59:  JP p0B40                ; 2B59
              	
2B5C: 3E01    	p2B5C:  LD A,01H                ; 2B5C
2B5E: 322E3D  	        LD (xb3D2E),A           ; 2B5E
2B61: C3592B  	        JP p2B59                ; 2B61
              	
2B64: AF      	p2B64:  XOR A                   ; 2B64
2B65: C37D2B  	        JP p2B7D                ; 2B65
              	
2B68: 3EFF    	p2B68:  LD A,0FFH               ; 2B68
2B6A: C37D2B  	        JP p2B7D                ; 2B6A
              	
2B6D: 3A8D40  	p2B6D:  LD A,(xb408D)           ; 2B6D
2B70: 2F      	        CPL                     ; 2B70
2B71: 6F      	        LD L,A                  ; 2B71
2B72: 3AEC3C  	        LD A,(xb3CEC)           ; 2B72
2B75: B7      	        OR A                    ; 2B75
2B76: CA592B  	        JP Z,p2B59              ; 2B76
2B79: 7D      	        LD A,L                  ; 2B79
2B7A: 328D40  	        LD (xb408D),A           ; 2B7A
2B7D: 322A3D  	p2B7D:  LD (xb3D2A),A           ; 2B7D
2B80: C3592B  	        JP p2B59                ; 2B80
              	
2B83: 3E01    	p2B83:  LD A,01H                ; 2B83
2B85: 32EA3C  	        LD (xb3CEA),A           ; 2B85
2B88: C3592B  	        JP p2B59                ; 2B88
              	
2B8B: AF      	p2B8B:  XOR A                   ; 2B8B
2B8C: 32EA3C  	        LD (xb3CEA),A           ; 2B8C
2B8F: C3592B  	        JP p2B59                ; 2B8F
              	
2B92: 3EFF    	p2B92:  LD A,0FFH               ; 2B92
2B94: 32F23C  	        LD (xb3CF2),A           ; 2B94
2B97: CDC428  	        CALL p28C4              ; 2B97
2B9A: AF      	        XOR A                   ; 2B9A
2B9B: 32F23C  	        LD (xb3CF2),A           ; 2B9B
2B9E: 7A      	        LD A,D                  ; 2B9E
2B9F: B7      	        OR A                    ; 2B9F
2BA0: C29D04  	        JP NZ,p049D             ; 2BA0
2BA3: 3A113E  	        LD A,(xb3E11)           ; 2BA3
2BA6: FE20    	        CP 20H                  ; 2BA6
2BA8: C0      	        RET NZ                  ; 2BA8
2BA9: 7B      	        LD A,E                  ; 2BA9
2BAA: 3D      	        DEC A                   ; 2BAA
2BAB: F8      	        RET M                   ; 2BAB
2BAC: CA9D04  	        JP Z,p049D              ; 2BAC
2BAF: FE10    	        CP 10H                  ; 2BAF
2BB1: D29D04  	        JP NC,p049D             ; 2BB1
2BB4: 3C      	        INC A                   ; 2BB4
2BB5: 32F13C  	        LD (xb3CF1),A           ; 2BB5
2BB8: AF      	        XOR A                   ; 2BB8
2BB9: 67      	        LD H,A                  ; 2BB9
2BBA: 6B      	        LD L,E                  ; 2BBA
2BBB: C3341B  	        JP p1B34                ; 2BBB
              	
2BBE: CDC428  	p2BBE:  CALL p28C4              ; 2BBE
2BC1: 7A      	        LD A,D                  ; 2BC1
2BC2: B7      	        OR A                    ; 2BC2
2BC3: C29D04  	        JP NZ,p049D             ; 2BC3
2BC6: 3AEC3C  	        LD A,(xb3CEC)           ; 2BC6
2BC9: B7      	        OR A                    ; 2BC9
2BCA: C8      	        RET Z                   ; 2BCA
2BCB: 7B      	        LD A,E                  ; 2BCB
2BCC: B7      	        OR A                    ; 2BCC
2BCD: CAE12B  	        JP Z,p2BE1              ; 2BCD
2BD0: FE0A    	        CP 0AH                  ; 2BD0
2BD2: DC9D04  	        CALL C,p049D            ; 2BD2
2BD5: 3A113E  	        LD A,(xb3E11)           ; 2BD5
2BD8: FE20    	        CP 20H                  ; 2BD8
2BDA: C2E12B  	        JP NZ,p2BE1             ; 2BDA
2BDD: 7B      	        LD A,E                  ; 2BDD
2BDE: 32323D  	        LD (xb3D32),A           ; 2BDE
2BE1: CD2B19  	p2BE1:  CALL p192B              ; 2BE1
2BE4: CD3F04  	        CALL p043F              ; 2BE4
2BE7: C3701A  	        JP p1A70                ; 2BE7
              	
2BEA: CD550B  	p2BEA:  CALL p0B55              ; 2BEA
2BED: C29D04  	        JP NZ,p049D             ; 2BED
2BF0: F5      	        PUSH AF                 ; 2BF0
2BF1: 3AE93D  	        LD A,(xb3DE9)           ; 2BF1
2BF4: FE08    	        CP 08H                  ; 2BF4
2BF6: DAFE2B  	        JP C,p2BFE              ; 2BF6
2BF9: CDCD04  	        CALL p04CD              ; 2BF9
2BFC: 3E07    	        LD A,07H                ; 2BFC
2BFE: 21E33D  	p2BFE:  LD HL,xb3DE3            ; 2BFE
2C01: 77      	        LD (HL),A               ; 2C01
2C02: 23      	        INC HL                  ; 2C02
2C03: 223F3D  	        LD (xw3D3F),HL          ; 2C03
2C06: 3AEC3C  	        LD A,(xb3CEC)           ; 2C06
2C09: B7      	        OR A                    ; 2C09
2C0A: 0E03    	        LD C,03H                ; 2C0A
2C0C: C4A91B  	        CALL NZ,p1BA9           ; 2C0C
2C0F: F1      	        POP AF                  ; 2C0F
2C10: FE2C    	        CP 2CH                  ; 2C10
2C12: CAEA2B  	        JP Z,p2BEA              ; 2C12
2C15: C9      	        RET                     ; 2C15
              	
2C16: 3A2C3D  	p2C16:  LD A,(xb3D2C)           ; 2C16
2C19: B7      	        OR A                    ; 2C19
2C1A: C2C104  	        JP NZ,p04C1             ; 2C1A
2C1D: CDC80B  	        CALL p0BC8              ; 2C1D
2C20: 2A463D  	        LD HL,(xw3D46)          ; 2C20
2C23: 2B      	        DEC HL                  ; 2C23
2C24: CD714E  	        CALL p4E71              ; 2C24
2C27: B7      	        OR A                    ; 2C27
2C28: CA312C  	        JP Z,p2C31              ; 2C28
2C2B: CD344F  	        CALL p4F34              ; 2C2B
2C2E: C3DF04  	        JP p04DF                ; 2C2E
              	
2C31: 3D      	p2C31:  DEC A                   ; 2C31
2C32: 322C3D  	        LD (xb3D2C),A           ; 2C32
2C35: 2A463D  	p2C35:  LD HL,(xw3D46)          ; 2C35
2C38: 7E      	        LD A,(HL)               ; 2C38
2C39: 23      	        INC HL                  ; 2C39
2C3A: 22463D  	        LD (xw3D46),HL          ; 2C3A
2C3D: FE21    	        CP 21H                  ; 2C3D
2C3F: D2352C  	        JP NC,p2C35             ; 2C3F
2C42: C9      	        RET                     ; 2C42
              	
2C43: CDC80B  	p2C43:  CALL p0BC8              ; 2C43
2C46: FE28    	        CP 28H                  ; 2C46
2C48: C29D04  	        JP NZ,p049D             ; 2C48
2C4B: CD290B  	        CALL p0B29              ; 2C4B
2C4E: FE27    	        CP 27H                  ; 2C4E
2C50: C29D04  	        JP NZ,p049D             ; 2C50
2C53: CD550B  	        CALL p0B55              ; 2C53
2C56: C29D04  	        JP NZ,p049D             ; 2C56
2C59: FE27    	        CP 27H                  ; 2C59
2C5B: C29D04  	        JP NZ,p049D             ; 2C5B
2C5E: CD290B  	        CALL p0B29              ; 2C5E
2C61: FE29    	        CP 29H                  ; 2C61
2C63: C29D04  	        JP NZ,p049D             ; 2C63
2C66: CD400B  	        CALL p0B40              ; 2C66
2C69: 3AEC3C  	        LD A,(xb3CEC)           ; 2C69
2C6C: B7      	        OR A                    ; 2C6C
2C6D: C0      	        RET NZ                  ; 2C6D
2C6E: 3AE93D  	        LD A,(xb3DE9)           ; 2C6E
2C71: FE06    	        CP 06H                  ; 2C71
2C73: DA782C  	        JP C,p2C78              ; 2C73
2C76: 3E06    	        LD A,06H                ; 2C76
2C78: 11EA3D  	p2C78:  LD DE,xb3DEA            ; 2C78
2C7B: 215D3F  	        LD HL,xf3F5D            ; 2C7B
2C7E: 47      	        LD B,A                  ; 2C7E
2C7F: 7E      	        LD A,(HL)               ; 2C7F
2C80: B7      	        OR A                    ; 2C80
2C81: C2B504  	        JP NZ,p04B5             ; 2C81
2C84: 1A      	p2C84:  LD A,(DE)               ; 2C84
2C85: 77      	        LD (HL),A               ; 2C85
2C86: 23      	        INC HL                  ; 2C86
2C87: 13      	        INC DE                  ; 2C87
2C88: 05      	        DEC B                   ; 2C88
2C89: C2842C  	        JP NZ,p2C84             ; 2C89
2C8C: 70      	        LD (HL),B               ; 2C8C
2C8D: C9      	        RET                     ; 2C8D
              	
2C8E: CDD42C  	p2C8E:  CALL p2CD4              ; 2C8E
2C91: CDC80B  	        CALL p0BC8              ; 2C91
2C94: FE2F    	        CP 2FH                  ; 2C94
2C96: C29D04  	        JP NZ,p049D             ; 2C96
2C99: CD550B  	        CALL p0B55              ; 2C99
2C9C: C4CC2C  	        CALL NZ,p2CCC           ; 2C9C
2C9F: FE2F    	        CP 2FH                  ; 2C9F
2CA1: C29D04  	        JP NZ,p049D             ; 2CA1
2CA4: CD400B  	        CALL p0B40              ; 2CA4
2CA7: CDFC0C  	        CALL p0CFC              ; 2CA7
2CAA: 23      	        INC HL                  ; 2CAA
2CAB: 7E      	        LD A,(HL)               ; 2CAB
2CAC: E6D0    	        AND 0D0H                ; 2CAC
2CAE: C2B504  	        JP NZ,p04B5             ; 2CAE
2CB1: E5      	        PUSH HL                 ; 2CB1
2CB2: 7E      	        LD A,(HL)               ; 2CB2
2CB3: F624    	        OR 24H                  ; 2CB3
2CB5: 77      	        LD (HL),A               ; 2CB5
2CB6: CD3227  	        CALL p2732              ; 2CB6
2CB9: E1      	        POP HL                  ; 2CB9
2CBA: 2B      	        DEC HL                  ; 2CBA
2CBB: 22DA3D  	        LD (xw3DDA),HL          ; 2CBB
2CBE: 3E03    	        LD A,03H                ; 2CBE
2CC0: 32D13D  	        LD (xb3DD1),A           ; 2CC0
2CC3: 210000  	        LD HL,0000H             ; 2CC3
2CC6: 22D23D  	        LD (xw3DD2),HL          ; 2CC6
2CC9: C3B126  	        JP p26B1                ; 2CC9
              	
2CCC: F5      	p2CCC:  PUSH AF                 ; 2CCC
2CCD: 3E01    	        LD A,01H                ; 2CCD
2CCF: 32E93D  	        LD (xb3DE9),A           ; 2CCF
2CD2: F1      	        POP AF                  ; 2CD2
2CD3: C9      	        RET                     ; 2CD3
              	
2CD4: 3AE43D  	p2CD4:  LD A,(xb3DE4)           ; 2CD4
2CD7: B7      	        OR A                    ; 2CD7
2CD8: C8      	        RET Z                   ; 2CD8
2CD9: C1      	        POP BC                  ; 2CD9
2CDA: C3C704  	        JP p04C7                ; 2CDA
              	
2CDD: 118000  	p2CDD:  LD DE,0080H             ; 2CDD
2CE0: CD550B  	p2CE0:  CALL p0B55              ; 2CE0
2CE3: C2062D  	        JP NZ,p2D06             ; 2CE3
2CE6: F5      	        PUSH AF                 ; 2CE6
2CE7: B7      	        OR A                    ; 2CE7
2CE8: D5      	        PUSH DE                 ; 2CE8
2CE9: CDFC0C  	        CALL p0CFC              ; 2CE9
2CEC: CD152D  	        CALL p2D15              ; 2CEC
2CEF: D1      	        POP DE                  ; 2CEF
2CF0: 7E      	        LD A,(HL)               ; 2CF0
2CF1: B2      	        OR D                    ; 2CF1
2CF2: 77      	        LD (HL),A               ; 2CF2
2CF3: 23      	        INC HL                  ; 2CF3
2CF4: 7E      	        LD A,(HL)               ; 2CF4
2CF5: E664    	        AND 64H                 ; 2CF5
2CF7: C20C2D  	        JP NZ,p2D0C             ; 2CF7
2CFA: 7E      	        LD A,(HL)               ; 2CFA
2CFB: E603    	        AND 03H                 ; 2CFB
2CFD: B3      	        OR E                    ; 2CFD
2CFE: 77      	        LD (HL),A               ; 2CFE
2CFF: F1      	p2CFF:  POP AF                  ; 2CFF
2D00: FE2C    	p2D00:  CP 2CH                  ; 2D00
2D02: CAE02C  	        JP Z,p2CE0              ; 2D02
2D05: C9      	        RET                     ; 2D05
              	
2D06: CD9D04  	p2D06:  CALL p049D              ; 2D06
2D09: C3002D  	        JP p2D00                ; 2D09
              	
2D0C: F610    	p2D0C:  OR 10H                  ; 2D0C
2D0E: 77      	        LD (HL),A               ; 2D0E
2D0F: CDB504  	        CALL p04B5              ; 2D0F
2D12: C3FF2C  	        JP p2CFF                ; 2D12
              	
2D15: 7E      	p2D15:  LD A,(HL)               ; 2D15
2D16: E67F    	        AND 7FH                 ; 2D16
2D18: FE42    	        CP 42H                  ; 2D18
2D1A: D8      	        RET C                   ; 2D1A
2D1B: AF      	        XOR A                   ; 2D1B
2D1C: 77      	        LD (HL),A               ; 2D1C
2D1D: E5      	        PUSH HL                 ; 2D1D
2D1E: AF      	        XOR A                   ; 2D1E
2D1F: 23      	        INC HL                  ; 2D1F
2D20: 77      	        LD (HL),A               ; 2D20
2D21: 23      	        INC HL                  ; 2D21
2D22: 77      	        LD (HL),A               ; 2D22
2D23: 23      	        INC HL                  ; 2D23
2D24: 77      	        LD (HL),A               ; 2D24
2D25: E1      	        POP HL                  ; 2D25
2D26: C9      	        RET                     ; 2D26
              	
2D27: CD550B  	p2D27:  CALL p0B55              ; 2D27
2D2A: CD1505  	        CALL p0515              ; 2D2A
2D2D: 7E      	        LD A,(HL)               ; 2D2D
2D2E: 87      	        ADD A,A                 ; 2D2E
2D2F: D4C104  	        CALL NC,p04C1           ; 2D2F
2D32: 23      	        INC HL                  ; 2D32
2D33: 7E      	        LD A,(HL)               ; 2D33
2D34: FE10    	        CP 10H                  ; 2D34
2D36: CA3E2D  	        JP Z,p2D3E              ; 2D36
2D39: FE0F    	        CP 0FH                  ; 2D39
2D3B: C4C104  	        CALL NZ,p04C1           ; 2D3B
2D3E: 118004  	p2D3E:  LD DE,0480H             ; 2D3E
2D41: C3E02C  	        JP p2CE0                ; 2D41
              	
2D44: 22433D  	p2D44:  LD (xw3D43),HL          ; 2D44
2D47: CD6D2D  	        CALL p2D6D              ; 2D47
2D4A: 3A113E  	        LD A,(xb3E11)           ; 2D4A
2D4D: 32313D  	        LD (xb3D31),A           ; 2D4D
2D50: FE55    	        CP 55H                  ; 2D50
2D52: C8      	        RET Z                   ; 2D52
2D53: 78      	        LD A,B                  ; 2D53
2D54: E680    	        AND 80H                 ; 2D54
2D56: C2AF04  	        JP NZ,p04AF             ; 2D56
2D59: 78      	        LD A,B                  ; 2D59
2D5A: F620    	        OR 20H                  ; 2D5A
2D5C: 32303D  	        LD (xb3D30),A           ; 2D5C
2D5F: 2A433D  	        LD HL,(xw3D43)          ; 2D5F
2D62: 223F3D  	        LD (xw3D3F),HL          ; 2D62
2D65: CDDB0D  	        CALL p0DDB              ; 2D65
2D68: EB      	        EX DE,HL                ; 2D68
2D69: 78      	        LD A,B                  ; 2D69
2D6A: C3341B  	        JP p1B34                ; 2D6A
              	
2D6D: CD8320  	p2D6D:  CALL p2083              ; 2D6D
2D70: 3AC23E  	        LD A,(xb3EC2)           ; 2D70
2D73: B7      	        OR A                    ; 2D73
2D74: C8      	        RET Z                   ; 2D74
2D75: C3CD04  	        JP p04CD                ; 2D75
              	
2D78: 22433D  	p2D78:  LD (xw3D43),HL          ; 2D78
2D7B: 7E      	        LD A,(HL)               ; 2D7B
2D7C: F680    	        OR 80H                  ; 2D7C
2D7E: 77      	        LD (HL),A               ; 2D7E
2D7F: 7C      	        LD A,H                  ; 2D7F
2D80: 32313D  	        LD (xb3D31),A           ; 2D80
2D83: CD6D2D  	        CALL p2D6D              ; 2D83
2D86: 78      	        LD A,B                  ; 2D86
2D87: E680    	        AND 80H                 ; 2D87
2D89: C2AF04  	        JP NZ,p04AF             ; 2D89
2D8C: 2A433D  	        LD HL,(xw3D43)          ; 2D8C
2D8F: CD152D  	        CALL p2D15              ; 2D8F
2D92: 23      	        INC HL                  ; 2D92
2D93: 7E      	        LD A,(HL)               ; 2D93
2D94: E694    	        AND 94H                 ; 2D94
2D96: C2B504  	        JP NZ,p04B5             ; 2D96
2D99: 7E      	        LD A,(HL)               ; 2D99
2D9A: E640    	        AND 40H                 ; 2D9A
2D9C: B0      	        OR B                    ; 2D9C
2D9D: F620    	        OR 20H                  ; 2D9D
2D9F: 77      	        LD (HL),A               ; 2D9F
2DA0: 23      	        INC HL                  ; 2DA0
2DA1: 73      	        LD (HL),E               ; 2DA1
2DA2: 23      	        INC HL                  ; 2DA2
2DA3: 72      	        LD (HL),D               ; 2DA3
2DA4: 23      	        INC HL                  ; 2DA4
2DA5: D5      	        PUSH DE                 ; 2DA5
2DA6: EB      	        EX DE,HL                ; 2DA6
2DA7: 2ADE3D  	        LD HL,(xw3DDE)          ; 2DA7
2DAA: EB      	        EX DE,HL                ; 2DAA
2DAB: 73      	        LD (HL),E               ; 2DAB
2DAC: 23      	        INC HL                  ; 2DAC
2DAD: 72      	        LD (HL),D               ; 2DAD
2DAE: E1      	        POP HL                  ; 2DAE
2DAF: C3341B  	        JP p1B34                ; 2DAF
              	
2DB2: F5      	p2DB2:  PUSH AF                 ; 2DB2
2DB3: CDB84B  	        CALL p4BB8              ; 2DB3
2DB6: 3AFA3F  	        LD A,(xb3FFA)           ; 2DB6
2DB9: B7      	        OR A                    ; 2DB9
2DBA: C4772F  	        CALL NZ,p2F77           ; 2DBA
2DBD: 3AF33C  	        LD A,(xb3CF3)           ; 2DBD
2DC0: B7      	        OR A                    ; 2DC0
2DC1: C4A82F  	        CALL NZ,p2FA8           ; 2DC1
2DC4: F1      	        POP AF                  ; 2DC4
2DC5: 21EC3C  	        LD HL,xb3CEC            ; 2DC5 address
2DC8: 34      	        INC (HL)                ; 2DC8
2DC9: 7E      	        LD A,(HL)               ; 2DC9
2DCA: 3D      	        DEC A                   ; 2DCA
2DCB: C25A2E  	        JP NZ,p2E5A             ; 2DCB
2DCE: 215D3F  	        LD HL,xf3F5D            ; 2DCE address
2DD1: 7E      	        LD A,(HL)               ; 2DD1
2DD2: B7      	        OR A                    ; 2DD2
2DD3: C2E22D  	        JP NZ,p2DE2             ; 2DD3
2DD6: 21313E  	        LD HL,xf3E31            ; 2DD6 buffer start
2DD9: 7E      	        LD A,(HL)               ; 2DD9
2DDA: B7      	        OR A                    ; 2DDA
2DDB: C2E22D  	        JP NZ,p2DE2             ; 2DDB
2DDE: 21D540  	        LD HL,xf40D5            ; 2DDE FCB address
2DE1: 23      	        INC HL                  ; 2DE1
2DE2: 010600  	p2DE2:  LD BC,0006H             ; 2DE2
2DE5: 115D3F  	        LD DE,xf3F5D            ; 2DE5 address
2DE8: 7E      	p2DE8:  LD A,(HL)               ; 2DE8
2DE9: 23      	        INC HL                  ; 2DE9
2DEA: FE20    	        CP 20H                  ; 2DEA
2DEC: CA042E  	        JP Z,p2E04              ; 2DEC
2DEF: FE09    	        CP 09H                  ; 2DEF
2DF1: CA042E  	        JP Z,p2E04              ; 2DF1
2DF4: B7      	        OR A                    ; 2DF4
2DF5: CA042E  	        JP Z,p2E04              ; 2DF5
2DF8: FE0D    	        CP 0DH                  ; 2DF8
2DFA: CA042E  	        JP Z,p2E04              ; 2DFA
2DFD: 12      	        LD (DE),A               ; 2DFD
2DFE: 13      	        INC DE                  ; 2DFE
2DFF: 04      	        INC B                   ; 2DFF
2E00: 0D      	        DEC C                   ; 2E00
2E01: C2E82D  	        JP NZ,p2DE8             ; 2E01
2E04: 21563F  	p2E04:  LD HL,xb3F56            ; 2E04
2E07: 70      	        LD (HL),B               ; 2E07
2E08: 23      	        INC HL                  ; 2E08
2E09: 223F3D  	        LD (xw3D3F),HL          ; 2E09
2E0C: 0E02    	        LD C,02H                ; 2E0C
2E0E: CDA91B  	        CALL p1BA9              ; 2E0E
2E11: CD3227  	        CALL p2732              ; 2E11
2E14: 21354F  	        LD HL,x4F35             ; 2E14
2E17: 221B40  	        LD (xw401B),HL          ; 2E17
2E1A: CDC40C  	p2E1A:  CALL p0CC4              ; 2E1A
2E1D: DA412E  	        JP C,p2E41              ; 2E1D
2E20: 223F3D  	        LD (xw3D3F),HL          ; 2E20
2E23: 7E      	        LD A,(HL)               ; 2E23
2E24: E67F    	        AND 7FH                 ; 2E24
2E26: 77      	        LD (HL),A               ; 2E26
2E27: 23      	        INC HL                  ; 2E27
2E28: 7E      	        LD A,(HL)               ; 2E28
2E29: E640    	        AND 40H                 ; 2E29
2E2B: C26B2F  	        JP NZ,p2F6B             ; 2E2B
2E2E: 7E      	        LD A,(HL)               ; 2E2E
2E2F: E604    	        AND 04H                 ; 2E2F
2E31: CA1A2E  	        JP Z,p2E1A              ; 2E31
2E34: 23      	        INC HL                  ; 2E34
2E35: 5E      	        LD E,(HL)               ; 2E35
2E36: 23      	        INC HL                  ; 2E36
2E37: 56      	        LD D,(HL)               ; 2E37
2E38: 010500  	        LD BC,0005H             ; 2E38
2E3B: CDA91B  	        CALL p1BA9              ; 2E3B
2E3E: C31A2E  	        JP p2E1A                ; 2E3E
              	
2E41: 2AD83D  	p2E41:  LD HL,(xw3DD8)          ; 2E41
2E44: EB      	        EX DE,HL                ; 2E44
2E45: 010A00  	        LD BC,000AH             ; 2E45
2E48: CDA91B  	        CALL p1BA9              ; 2E48
2E4B: 010D01  	        LD BC,010DH             ; 2E4B
2E4E: 2AD63D  	        LD HL,(xw3DD6)          ; 2E4E
2E51: EB      	        EX DE,HL                ; 2E51
2E52: 7B      	        LD A,E                  ; 2E52
2E53: B2      	        OR D                    ; 2E53
2E54: C4A91B  	        CALL NZ,p1BA9           ; 2E54
2E57: C36E01  	        JP p016E                ; 2E57
              	
2E5A: 2A463D  	p2E5A:  LD HL,(xw3D46)          ; 2E5A
2E5D: F5      	        PUSH AF                 ; 2E5D
2E5E: D48320  	        CALL NC,p2083           ; 2E5E
2E61: D5      	        PUSH DE                 ; 2E61
2E62: C5      	        PUSH BC                 ; 2E62
2E63: CD2B19  	        CALL p192B              ; 2E63
2E66: 21FFFF  	        LD HL,0FFFFH            ; 2E66
2E69: 22343D  	        LD (xw3D34),HL          ; 2E69
2E6C: 22363D  	        LD (xw3D36),HL          ; 2E6C
2E6F: 7D      	        LD A,L                  ; 2E6F
2E70: 322F3D  	        LD (xb3D2F),A           ; 2E70
2E73: CD701A  	        CALL p1A70              ; 2E73
2E76: 21F42F  	        LD HL,x2FF4             ; 2E76 Macros message
2E79: CDD51A  	        CALL p1AD5              ; 2E79
2E7C: 21333D  	        LD HL,xb3D33            ; 2E7C
2E7F: 34      	        INC (HL)                ; 2E7F
2E80: 34      	        INC (HL)                ; 2E80
2E81: 21723F  	        LD HL,xf3F72            ; 2E81 start of buffer
2E84: 3E05    	        LD A,05H                ; 2E84
2E86: CD973B  	        CALL p3B97              ; 2E86
2E89: CD5A1A  	        CALL p1A5A              ; 2E89
2E8C: 3A333D  	        LD A,(xb3D33)           ; 2E8C
2E8F: FE38    	        CP 38H                  ; 2E8F
2E91: D4701A  	        CALL NC,p1A70           ; 2E91
2E94: 21333D  	        LD HL,xb3D33            ; 2E94
2E97: 34      	        INC (HL)                ; 2E97
2E98: 34      	        INC (HL)                ; 2E98
2E99: 21E92F  	        LD HL,x2FE9             ; 2E99 Symbols message
2E9C: CDD51A  	        CALL p1AD5              ; 2E9C
2E9F: 21B43F  	        LD HL,xf3FB4            ; 2E9F start of buffer
2EA2: 3E03    	        LD A,03H                ; 2EA2
2EA4: CD973B  	        CALL p3B97              ; 2EA4
2EA7: CD5A1A  	        CALL p1A5A              ; 2EA7
2EAA: CDB42F  	        CALL p2FB4              ; 2EAA
2EAD: 2AED3C  	        LD HL,(xw3CED)          ; 2EAD
2EB0: 7C      	        LD A,H                  ; 2EB0
2EB1: B5      	        OR L                    ; 2EB1
2EB2: CACB2E  	        JP Z,p2ECB              ; 2EB2
2EB5: E5      	        PUSH HL                 ; 2EB5
2EB6: CDDF1A  	        CALL p1ADF              ; 2EB6
2EB9: E1      	        POP HL                  ; 2EB9
2EBA: 3AB440  	        LD A,(xf40B4)           ; 2EBA
2EBD: 3C      	        INC A                   ; 2EBD
2EBE: 325B3F  	        LD (xb3F5B),A           ; 2EBE
2EC1: C4DF1A  	        CALL NZ,p1ADF           ; 2EC1
2EC4: AF      	        XOR A                   ; 2EC4
2EC5: 325B3F  	        LD (xb3F5B),A           ; 2EC5
2EC8: C3D12E  	        JP p2ED1                ; 2EC8
              	
2ECB: 214C2F  	p2ECB:  LD HL,x2F4C             ; 2ECB 'No' message
2ECE: CDD02F  	        CALL p2FD0              ; 2ECE
2ED1: 214F2F  	p2ED1:  LD HL,x2F4F             ; 2ED1 'Fatal errors' message
2ED4: CDD02F  	        CALL p2FD0              ; 2ED4
2ED7: 2AEF3C  	        LD HL,(xw3CEF)          ; 2ED7
2EDA: 7C      	        LD A,H                  ; 2EDA
2EDB: B5      	        OR L                    ; 2EDB
2EDC: CA062F  	        JP Z,p2F06              ; 2EDC
2EDF: 3E2C    	        LD A,2CH                ; 2EDF
2EE1: CD764C  	        CALL p4C76              ; 2EE1
2EE4: 3AB440  	        LD A,(xf40B4)           ; 2EE4
2EE7: 3C      	        INC A                   ; 2EE7
2EE8: 3E2C    	        LD A,2CH                ; 2EE8
2EEA: C4EE4A  	        CALL NZ,p4AEE           ; 2EEA
2EED: E5      	        PUSH HL                 ; 2EED
2EEE: CDDF1A  	        CALL p1ADF              ; 2EEE
2EF1: E1      	        POP HL                  ; 2EF1
2EF2: 3AB440  	        LD A,(xf40B4)           ; 2EF2
2EF5: 3C      	        INC A                   ; 2EF5
2EF6: 325B3F  	        LD (xb3F5B),A           ; 2EF6
2EF9: C4DF1A  	        CALL NZ,p1ADF           ; 2EF9
2EFC: AF      	        XOR A                   ; 2EFC
2EFD: 325B3F  	        LD (xb3F5B),A           ; 2EFD
2F00: 215F2F  	        LD HL,x2F5F             ; 2F00 'Warnings' message
2F03: CDD02F  	        CALL p2FD0              ; 2F03
2F06: CDB42F  	p2F06:  CALL p2FB4              ; 2F06
2F09: C1      	        POP BC                  ; 2F09
2F0A: D1      	        POP DE                  ; 2F0A
2F0B: F1      	        POP AF                  ; 2F0B
2F0C: D2142F  	        JP NC,p2F14             ; 2F0C
2F0F: 0600    	        LD B,00H                ; 2F0F
2F11: 110000  	        LD DE,0000H             ; 2F11
2F14: CD831B  	p2F14:  CALL p1B83              ; 2F14
2F17: 0E0E    	        LD C,0EH                ; 2F17
2F19: CDA91B  	        CALL p1BA9              ; 2F19
2F1C: 2AC33E  	p2F1C:  LD HL,(xb3EC3)          ; 2F1C
2F1F: 7C      	        LD A,H                  ; 2F1F
2F20: FEF8    	        CP 0F8H                 ; 2F20
2F22: CA2C2F  	        JP Z,p2F2C              ; 2F22
2F25: AF      	        XOR A                   ; 2F25
2F26: CD461C  	        CALL p1C46              ; 2F26
2F29: C31C2F  	        JP p2F1C                ; 2F29
              	
2F2C: 010F00  	p2F2C:  LD BC,000FH             ; 2F2C
2F2F: CDA91B  	        CALL p1BA9              ; 2F2F
2F32: 0600    	        LD B,00H                ; 2F32
2F34: CD2B1C  	        CALL p1C2B              ; 2F34
2F37: 3A8C40  	        LD A,(xb408C)           ; 2F37
2F3A: B7      	        OR A                    ; 2F3A
2F3B: CA432F  	        JP Z,p2F43              ; 2F3B
2F3E: 3E80    	        LD A,80H                ; 2F3E
2F40: CD764C  	        CALL p4C76              ; 2F40
2F43: CDDB4B  	p2F43:  CALL p4BDB              ; 2F43
2F46: CD1B4C  	        CALL p4C1B              ; 2F46
2F49: C30001  	        JP p0100                ; 2F49
              	;=====================================
2F4C: 4E6F00  	x2F4C:  DB "No",0
2F4F: 20466174	x2F4F:  DB " Fatal error(s)",0
2F53: 616C2065	
2F57: 72726F72	
2F5B: 28732900	
2F5F: 20576172	x2F5F:  DB " Warning(s)",0
2F63: 6E696E67	
2F67: 28732900	
              	;=====================================
2F6B: 0E00    	p2F6B:  LD C,00H                ; 2F6B
2F6D: 3AD13D  	        LD A,(xb3DD1)           ; 2F6D
2F70: 47      	        LD B,A                  ; 2F70
2F71: CDA91B  	        CALL p1BA9              ; 2F71
2F74: C31A2E  	        JP p2E1A                ; 2F74
              	
2F77: CDCD2F  	p2F77:  CALL p2FCD              ; 2F77
2F7A: 21862F  	        LD HL,x2F86             ; 2F7A
2F7D: CDD02F  	        CALL p2FD0              ; 2F7D
2F80: CD291B  	        CALL p1B29              ; 2F80
2F83: C3B42F  	        JP p2FB4                ; 2F83
              	;=====================================
2F86: 52455054	x2F86:  DB "REPT/IRP/IRPC/MACRO",0
2F8A: 2F495250	
2F8E: 2F495250	
2F92: 432F4D41	
2F96: 43524F00	
2F9A: 556E7465	x2F9A:  DB "Unterminated ",0
2F9E: 726D696E	
2FA2: 61746564	
2FA6: 2000    	
              	;=====================================
2FA8: CDCD2F  	p2FA8:  CALL p2FCD              ; 2FA8
2FAB: 21DD2F  	        LD HL,x2FDD             ; 2FAB 'Conditional' message
2FAE: CDD02F  	        CALL p2FD0              ; 2FAE
2FB1: CD291B  	        CALL p1B29              ; 2FB1
2FB4: 3E0D    	p2FB4:  LD A,0DH                ; 2FB4 CR
2FB6: CD5A1A  	        CALL p1A5A              ; 2FB6
2FB9: 3E0A    	        LD A,0AH                ; 2FB9 LF
2FBB: CD5A1A  	        CALL p1A5A              ; 2FBB
2FBE: 3AB440  	        LD A,(xf40B4)           ; 2FBE
2FC1: 3C      	        INC A                   ; 2FC1
2FC2: C8      	        RET Z                   ; 2FC2
2FC3: 3E0D    	        LD A,0DH                ; 2FC3 CR
2FC5: CDEE4A  	        CALL p4AEE              ; 2FC5
2FC8: 3E0A    	        LD A,0AH                ; 2FC8 LF
2FCA: C3EE4A  	        JP p4AEE                ; 2FCA
              	
2FCD: 219A2F  	p2FCD:  LD HL,x2F9A             ; 2FCD 'Unterminated' message
2FD0: E5      	p2FD0:  PUSH HL                 ; 2FD0
2FD1: CDD51A  	        CALL p1AD5              ; 2FD1
2FD4: E1      	        POP HL                  ; 2FD4
2FD5: 3AB440  	        LD A,(xf40B4)           ; 2FD5
2FD8: 3C      	        INC A                   ; 2FD8
2FD9: C8      	        RET Z                   ; 2FD9
2FDA: C3CC46  	        JP p46CC                ; 2FDA
              	
2FDD: 436F6E64	x2FDD:  DB "Conditional",0
2FE1: 6974696F	
2FE5: 6E616C00	
2FE9: 53796D62	x2FE9:  DB "Symbols:",0DH,0AH,00H
2FED: 6F6C733A	
2FF1: 0D0A00  	
2FF4: 4D616372	x2FF4:  DB "Macros:",0DH,0AH,00H
2FF8: 6F733A0D	
2FFC: 0A00    	
              	
2FFE: 21E2FF  	p2FFE:  LD HL,0FFE2H            ; 2FFE
3001: 39      	        ADD HL,SP               ; 3001
3002: EB      	        EX DE,HL                ; 3002
3003: 2A2940  	        LD HL,(xw4029)          ; 3003
3006: CD8D0D  	        CALL p0D8D              ; 3006
3009: D21434  	        JP NC,p3414             ; 3009
300C: 3AFA3F  	        LD A,(xb3FFA)           ; 300C
300F: B7      	        OR A                    ; 300F
3010: 210000  	        LD HL,0000H             ; 3010
3013: 222340  	        LD (xw4023),HL          ; 3013
3016: 222540  	        LD (xw4025),HL          ; 3016
3019: 2AF83F  	        LD HL,(xw3FF8)          ; 3019
301C: C22330  	        JP NZ,p3023             ; 301C
301F: 2A2940  	        LD HL,(xw4029)          ; 301F
3022: 2B      	        DEC HL                  ; 3022
3023: 3C      	p3023:  INC A                   ; 3023
3024: 32FA3F  	        LD (xb3FFA),A           ; 3024
3027: AF      	        XOR A                   ; 3027
3028: 32FB3F  	        LD (xb3FFB),A           ; 3028
302B: 320540  	        LD (xb4005),A           ; 302B
302E: EB      	p302E:  EX DE,HL                ; 302E
302F: 2A1F40  	        LD HL,(xw401F)          ; 302F
3032: 24      	        INC H                   ; 3032
3033: CD8D0D  	        CALL p0D8D              ; 3033
3036: D23E30  	        JP NC,p303E             ; 3036
3039: EB      	        EX DE,HL                ; 3039
303A: 22F83F  	        LD (xw3FF8),HL          ; 303A
303D: C9      	        RET                     ; 303D
              	
303E: 25      	p303E:  DEC H                   ; 303E
303F: EB      	        EX DE,HL                ; 303F
3040: E5      	        PUSH HL                 ; 3040
3041: CD4F3B  	        CALL p3B4F              ; 3041
3044: E1      	        POP HL                  ; 3044
3045: C32E30  	        JP p302E                ; 3045
              	
3048: CD1505  	p3048:  CALL p0515              ; 3048
304B: C0      	        RET NZ                  ; 304B
304C: 7E      	        LD A,(HL)               ; 304C
304D: B7      	        OR A                    ; 304D
304E: 3C      	        INC A                   ; 304E
304F: F0      	        RET P                   ; 304F
3050: 3D      	        DEC A                   ; 3050
3051: F5      	        PUSH AF                 ; 3051
3052: E610    	        AND 10H                 ; 3052
3054: CA7230  	        JP Z,p3072              ; 3054
3057: 3A0540  	        LD A,(xb4005)           ; 3057
305A: 3C      	        INC A                   ; 305A
305B: 320540  	        LD (xb4005),A           ; 305B
305E: F1      	p305E:  POP AF                  ; 305E
305F: E608    	        AND 08H                 ; 305F
3061: EE08    	        XOR 08H                 ; 3061
3063: C0      	        RET NZ                  ; 3063
3064: 3A0540  	        LD A,(xb4005)           ; 3064
3067: B7      	        OR A                    ; 3067
3068: C8      	        RET Z                   ; 3068
3069: 3A0540  	        LD A,(xb4005)           ; 3069
306C: 3D      	        DEC A                   ; 306C
306D: 320540  	        LD (xb4005),A           ; 306D
3070: 3C      	        INC A                   ; 3070
3071: C9      	        RET                     ; 3071
              	
3072: 23      	p3072:  INC HL                  ; 3072
3073: 7E      	        LD A,(HL)               ; 3073
3074: FE1B    	        CP 1BH                  ; 3074
3076: C25E30  	        JP NZ,p305E             ; 3076
3079: 3A0540  	        LD A,(xb4005)           ; 3079
307C: B7      	        OR A                    ; 307C
307D: C25E30  	        JP NZ,p305E             ; 307D
3080: 3A0F40  	        LD A,(xb400F)           ; 3080
3083: B7      	        OR A                    ; 3083
3084: C25E30  	        JP NZ,p305E             ; 3084
3087: F1      	        POP AF                  ; 3087
3088: 37      	        SCF                     ; 3088
3089: C9      	        RET                     ; 3089
              	
308A: 22F83F  	p308A:  LD (xw3FF8),HL          ; 308A
308D: 3AFA3F  	        LD A,(xb3FFA)           ; 308D
3090: 3D      	        DEC A                   ; 3090
3091: 32FA3F  	        LD (xb3FFA),A           ; 3091
3094: C9      	        RET                     ; 3094
              	
3095: CDEA0A  	p3095:  CALL p0AEA              ; 3095
3098: FE26    	        CP 26H                  ; 3098
309A: C2D130  	        JP NZ,p30D1             ; 309A
309D: 2A463D  	        LD HL,(xw3D46)          ; 309D
30A0: 7E      	        LD A,(HL)               ; 30A0
30A1: FE20    	        CP 20H                  ; 30A1
30A3: CACF30  	        JP Z,p30CF              ; 30A3
30A6: FE09    	        CP 09H                  ; 30A6
30A8: CACF30  	        JP Z,p30CF              ; 30A8
30AB: E5      	        PUSH HL                 ; 30AB
30AC: C5      	        PUSH BC                 ; 30AC
30AD: CD550B  	        CALL p0B55              ; 30AD
30B0: CDDD30  	        CALL p30DD              ; 30B0
30B3: C1      	        POP BC                  ; 30B3
30B4: E1      	        POP HL                  ; 30B4
30B5: 22463D  	        LD (xw3D46),HL          ; 30B5
30B8: C2CF30  	        JP NZ,p30CF             ; 30B8
30BB: 3E26    	        LD A,26H                ; 30BB
30BD: 32FC3F  	        LD (xb3FFC),A           ; 30BD
30C0: C33E31  	        JP p313E                ; 30C0
              	
30C3: FE26    	p30C3:  CP 26H                  ; 30C3
30C5: C2D130  	        JP NZ,p30D1             ; 30C5
30C8: 3AFC3F  	        LD A,(xb3FFC)           ; 30C8
30CB: B7      	        OR A                    ; 30CB
30CC: C2D630  	        JP NZ,p30D6             ; 30CC
30CF: 3E26    	p30CF:  LD A,26H                ; 30CF
30D1: CD3B3A  	p30D1:  CALL p3A3B              ; 30D1
30D4: B7      	        OR A                    ; 30D4
30D5: F8      	        RET M                   ; 30D5
30D6: F5      	p30D6:  PUSH AF                 ; 30D6
30D7: AF      	        XOR A                   ; 30D7
30D8: 32FC3F  	        LD (xb3FFC),A           ; 30D8
30DB: F1      	        POP AF                  ; 30DB
30DC: C9      	        RET                     ; 30DC
              	
30DD: 2A0740  	p30DD:  LD HL,(xw4007)          ; 30DD
30E0: 0600    	        LD B,00H                ; 30E0
30E2: 7E      	p30E2:  LD A,(HL)               ; 30E2
30E3: B7      	        OR A                    ; 30E3
30E4: CA0B31  	        JP Z,p310B              ; 30E4
30E7: 11E93D  	        LD DE,xb3DE9            ; 30E7 address
30EA: 1A      	        LD A,(DE)               ; 30EA
30EB: BE      	        CP (HL)                 ; 30EB
30EC: C20031  	        JP NZ,p3100             ; 30EC
30EF: 4F      	        LD C,A                  ; 30EF
30F0: 2B      	p30F0:  DEC HL                  ; 30F0
30F1: 13      	        INC DE                  ; 30F1
30F2: 1A      	        LD A,(DE)               ; 30F2
30F3: BE      	        CP (HL)                 ; 30F3
30F4: C20031  	        JP NZ,p3100             ; 30F4
30F7: 0D      	        DEC C                   ; 30F7
30F8: C2F030  	        JP NZ,p30F0             ; 30F8
30FB: 78      	        LD A,B                  ; 30FB
30FC: F680    	        OR 80H                  ; 30FC
30FE: BF      	        CP A                    ; 30FE
30FF: C9      	        RET                     ; 30FF
              	
3100: 2B      	p3100:  DEC HL                  ; 3100
3101: 7E      	        LD A,(HL)               ; 3101
3102: FE07    	        CP 07H                  ; 3102
3104: D20031  	        JP NC,p3100             ; 3104
3107: 04      	        INC B                   ; 3107
3108: C3E230  	        JP p30E2                ; 3108
              	
310B: 3A1040  	p310B:  LD A,(xb4010)           ; 310B
310E: B7      	        OR A                    ; 310E
310F: C0      	        RET NZ                  ; 310F
3110: 2A1140  	        LD HL,(xw4011)          ; 3110
3113: 06C0    	        LD B,0C0H               ; 3113
3115: 7E      	p3115:  LD A,(HL)               ; 3115
3116: B7      	        OR A                    ; 3116
3117: CA3C31  	        JP Z,p313C              ; 3117
311A: 11E93D  	        LD DE,xb3DE9            ; 311A address
311D: 1A      	        LD A,(DE)               ; 311D
311E: BE      	        CP (HL)                 ; 311E
311F: C23131  	        JP NZ,p3131             ; 311F
3122: 4F      	        LD C,A                  ; 3122
3123: 2B      	p3123:  DEC HL                  ; 3123
3124: 13      	        INC DE                  ; 3124
3125: 1A      	        LD A,(DE)               ; 3125
3126: BE      	        CP (HL)                 ; 3126
3127: C23131  	        JP NZ,p3131             ; 3127
312A: 0D      	        DEC C                   ; 312A
312B: C22331  	        JP NZ,p3123             ; 312B
312E: AF      	        XOR A                   ; 312E
312F: 78      	        LD A,B                  ; 312F
3130: C9      	        RET                     ; 3130
              	
3131: 2B      	p3131:  DEC HL                  ; 3131
3132: 7E      	        LD A,(HL)               ; 3132
3133: FE07    	        CP 07H                  ; 3133
3135: D23131  	        JP NC,p3131             ; 3135
3138: 04      	        INC B                   ; 3138
3139: C31531  	        JP p3115                ; 3139
              	
313C: 3C      	p313C:  INC A                   ; 313C
313D: C9      	        RET                     ; 313D
              	
313E: 2A463D  	p313E:  LD HL,(xw3D46)          ; 313E
3141: E5      	        PUSH HL                 ; 3141
3142: CD550B  	        CALL p0B55              ; 3142
3145: F5      	        PUSH AF                 ; 3145
3146: CDDD30  	        CALL p30DD              ; 3146
3149: C27731  	        JP NZ,p3177             ; 3149
314C: 47      	        LD B,A                  ; 314C
314D: F1      	        POP AF                  ; 314D
314E: E1      	        POP HL                  ; 314E
314F: F5      	        PUSH AF                 ; 314F
3150: 7E      	p3150:  LD A,(HL)               ; 3150
3151: 23      	        INC HL                  ; 3151
3152: FE20    	        CP 20H                  ; 3152
3154: CA5C31  	        JP Z,p315C              ; 3154
3157: FE09    	        CP 09H                  ; 3157
3159: C26431  	        JP NZ,p3164             ; 3159
315C: E5      	p315C:  PUSH HL                 ; 315C
315D: CDD130  	        CALL p30D1              ; 315D
3160: E1      	        POP HL                  ; 3160
3161: C35031  	        JP p3150                ; 3161
              	
3164: 78      	p3164:  LD A,B                  ; 3164
3165: CDD130  	        CALL p30D1              ; 3165
3168: F1      	        POP AF                  ; 3168
3169: 47      	        LD B,A                  ; 3169
316A: F5      	        PUSH AF                 ; 316A
316B: F1      	p316B:  POP AF                  ; 316B
316C: C2C330  	        JP NZ,p30C3             ; 316C
316F: FE26    	        CP 26H                  ; 316F
3171: C2C330  	        JP NZ,p30C3             ; 3171
3174: C3360B  	        JP p0B36                ; 3174
              	
3177: F1      	p3177:  POP AF                  ; 3177
3178: E1      	        POP HL                  ; 3178
3179: F5      	        PUSH AF                 ; 3179
317A: 22463D  	        LD (xw3D46),HL          ; 317A
317D: CDEA0A  	p317D:  CALL p0AEA              ; 317D
3180: FE20    	        CP 20H                  ; 3180
3182: CA9031  	        JP Z,p3190              ; 3182
3185: FE09    	        CP 09H                  ; 3185
3187: CA9031  	        JP Z,p3190              ; 3187
318A: CD360B  	        CALL p0B36              ; 318A
318D: C39631  	        JP p3196                ; 318D
              	
3190: CDD130  	p3190:  CALL p30D1              ; 3190
3193: C37D31  	        JP p317D                ; 3193
              	
3196: CDB10B  	p3196:  CALL p0BB1              ; 3196
3199: C26B31  	        JP NZ,p316B             ; 3199
319C: C3A531  	        JP p31A5                ; 319C
              	
319F: CDB10B  	p319F:  CALL p0BB1              ; 319F
31A2: FA6B31  	        JP M,p316B              ; 31A2
31A5: CDD130  	p31A5:  CALL p30D1              ; 31A5
31A8: C39F31  	        JP p319F                ; 31A8
              	
31AB: CDEA0A  	p31AB:  CALL p0AEA              ; 31AB
31AE: FE3B    	        CP 3BH                  ; 31AE
31B0: CAC731  	        JP Z,p31C7              ; 31B0
31B3: C3B931  	        JP p31B9                ; 31B3
              	
31B6: CDC63A  	p31B6:  CALL p3AC6              ; 31B6
31B9: CDD130  	p31B9:  CALL p30D1              ; 31B9
31BC: FE0D    	        CP 0DH                  ; 31BC
31BE: CA9E3A  	        JP Z,p3A9E              ; 31BE
31C1: CDEA0A  	        CALL p0AEA              ; 31C1
31C4: C3B931  	        JP p31B9                ; 31C4
              	
31C7: CDC63A  	p31C7:  CALL p3AC6              ; 31C7
31CA: CDC63A  	p31CA:  CALL p3AC6              ; 31CA
31CD: FE20    	        CP 20H                  ; 31CD
31CF: CACA31  	        JP Z,p31CA              ; 31CF
31D2: FE09    	        CP 09H                  ; 31D2
31D4: CACA31  	        JP Z,p31CA              ; 31D4
31D7: B7      	        OR A                    ; 31D7
31D8: CDED3A  	        CALL p3AED              ; 31D8
31DB: 222540  	        LD (xw4025),HL          ; 31DB
31DE: CA9E3A  	        JP Z,p3A9E              ; 31DE
31E1: FE0D    	        CP 0DH                  ; 31E1
31E3: CA9E3A  	        JP Z,p3A9E              ; 31E3
31E6: 3E0D    	        LD A,0DH                ; 31E6
31E8: CD3B3A  	        CALL p3A3B              ; 31E8
31EB: C39E3A  	        JP p3A9E                ; 31EB
              	
31EE: E5      	p31EE:  PUSH HL                 ; 31EE
31EF: F5      	        PUSH AF                 ; 31EF
31F0: 3A1040  	        LD A,(xb4010)           ; 31F0
31F3: B7      	        OR A                    ; 31F3
31F4: CAFF31  	        JP Z,p31FF              ; 31F4
31F7: D5      	        PUSH DE                 ; 31F7
31F8: EB      	        EX DE,HL                ; 31F8
31F9: 2A1D40  	        LD HL,(xw401D)          ; 31F9
31FC: 19      	        ADD HL,DE               ; 31FC
31FD: 34      	        INC (HL)                ; 31FD
31FE: D1      	        POP DE                  ; 31FE
31FF: F1      	p31FF:  POP AF                  ; 31FF
3200: E67F    	        AND 7FH                 ; 3200
3202: F5      	        PUSH AF                 ; 3202
3203: 87      	        ADD A,A                 ; 3203
3204: FA4932  	        JP M,p3249              ; 3204
3207: 2A0B40  	        LD HL,(xw400B)          ; 3207
320A: 7E      	        LD A,(HL)               ; 320A
320B: B7      	        OR A                    ; 320B
320C: CA3832  	        JP Z,p3238              ; 320C
320F: F1      	        POP AF                  ; 320F
3210: C5      	        PUSH BC                 ; 3210
3211: 47      	        LD B,A                  ; 3211
3212: 04      	        INC B                   ; 3212
3213: 2B      	        DEC HL                  ; 3213
3214: 05      	p3214:  DEC B                   ; 3214
3215: CA2332  	        JP Z,p3223              ; 3215
3218: 7E      	        LD A,(HL)               ; 3218
3219: D5      	        PUSH DE                 ; 3219
321A: 2F      	        CPL                     ; 321A
321B: 5F      	        LD E,A                  ; 321B
321C: 16FF    	        LD D,0FFH               ; 321C
321E: 19      	        ADD HL,DE               ; 321E
321F: D1      	        POP DE                  ; 321F
3220: C31432  	        JP p3214                ; 3220
              	
3223: 7E      	p3223:  LD A,(HL)               ; 3223
3224: B7      	        OR A                    ; 3224
3225: CA4632  	        JP Z,p3246              ; 3225
3228: 3D      	        DEC A                   ; 3228
3229: 47      	        LD B,A                  ; 3229
322A: 2B      	p322A:  DEC HL                  ; 322A
322B: 7E      	        LD A,(HL)               ; 322B
322C: 04      	        INC B                   ; 322C
322D: 05      	        DEC B                   ; 322D
322E: CA4632  	        JP Z,p3246              ; 322E
3231: CDD833  	        CALL p33D8              ; 3231
3234: 05      	        DEC B                   ; 3234
3235: C32A32  	        JP p322A                ; 3235
              	
3238: F1      	p3238:  POP AF                  ; 3238
3239: 2B      	        DEC HL                  ; 3239
323A: 3C      	        INC A                   ; 323A
323B: 3D      	p323B:  DEC A                   ; 323B
323C: CA4332  	        JP Z,p3243              ; 323C
323F: 2B      	        DEC HL                  ; 323F
3240: C33B32  	        JP p323B                ; 3240
              	
3243: 7E      	p3243:  LD A,(HL)               ; 3243
3244: E1      	        POP HL                  ; 3244
3245: C9      	        RET                     ; 3245
              	
3246: C1      	p3246:  POP BC                  ; 3246
3247: E1      	        POP HL                  ; 3247
3248: C9      	        RET                     ; 3248
              	
3249: 3E2E    	p3249:  LD A,2EH                ; 3249
324B: CDD833  	        CALL p33D8              ; 324B
324E: CDD833  	        CALL p33D8              ; 324E
3251: F1      	        POP AF                  ; 3251
3252: E63F    	        AND 3FH                 ; 3252
3254: C5      	        PUSH BC                 ; 3254
3255: 2A1840  	        LD HL,(xw4018)          ; 3255
3258: 4F      	        LD C,A                  ; 3258
3259: 0600    	        LD B,00H                ; 3259
325B: 09      	        ADD HL,BC               ; 325B
325C: 44      	        LD B,H                  ; 325C
325D: CD1419  	        CALL p1914              ; 325D
3260: 45      	        LD B,L                  ; 3260
3261: CD1419  	        CALL p1914              ; 3261
3264: C1      	        POP BC                  ; 3264
3265: E1      	        POP HL                  ; 3265
3266: 1B      	        DEC DE                  ; 3266
3267: 1A      	        LD A,(DE)               ; 3267
3268: C9      	        RET                     ; 3268
              	
3269: E5      	p3269:  PUSH HL                 ; 3269
326A: CD550B  	        CALL p0B55              ; 326A
326D: E1      	        POP HL                  ; 326D
326E: C48232  	        CALL NZ,p3282           ; 326E
3271: F5      	        PUSH AF                 ; 3271
3272: 11E93D  	        LD DE,xb3DE9            ; 3272 address
3275: 1A      	        LD A,(DE)               ; 3275
3276: 3C      	        INC A                   ; 3276
3277: 4F      	        LD C,A                  ; 3277
3278: 1A      	p3278:  LD A,(DE)               ; 3278
3279: 77      	        LD (HL),A               ; 3279
327A: 13      	        INC DE                  ; 327A
327B: 2B      	        DEC HL                  ; 327B
327C: 0D      	        DEC C                   ; 327C
327D: C27832  	        JP NZ,p3278             ; 327D
3280: F1      	        POP AF                  ; 3280
3281: C9      	        RET                     ; 3281
              	
3282: FE0D    	p3282:  CP 0DH                  ; 3282
3284: C8      	        RET Z                   ; 3284
3285: FE3B    	        CP 3BH                  ; 3285
3287: C8      	        RET Z                   ; 3287
3288: D1      	        POP DE                  ; 3288
3289: C39D04  	        JP p049D                ; 3289
              	
328C: 0600    	p328C:  LD B,00H                ; 328C
328E: C5      	        PUSH BC                 ; 328E
328F: E5      	        PUSH HL                 ; 328F
3290: 2B      	        DEC HL                  ; 3290
3291: CDC80B  	        CALL p0BC8              ; 3291
3294: FE27    	p3294:  CP "'"                  ; 3294
3296: CA7D33  	        JP Z,p337D              ; 3296
3299: FE22    	        CP '"'                  ; 3299
329B: CA7D33  	        JP Z,p337D              ; 329B
329E: FE3C    	        CP "<"                  ; 329E
32A0: CA9B33  	        JP Z,p339B              ; 32A0
32A3: FE3E    	        CP ">"                  ; 32A3
32A5: CAA633  	        JP Z,p33A6              ; 32A5
32A8: FE25    	        CP "%"                  ; 32A8
32AA: CAD332  	        JP Z,p32D3              ; 32AA
32AD: FE2C    	        CP ","                  ; 32AD
32AF: CAB033  	        JP Z,p33B0              ; 32AF
32B2: FE20    	        CP " "                  ; 32B2
32B4: CAB033  	        JP Z,p33B0              ; 32B4
32B7: FE09    	        CP 09H                  ; 32B7 Tab
32B9: CAB033  	        JP Z,p33B0              ; 32B9
32BC: FE3B    	        CP ';'                  ; 32BC
32BE: CAB033  	        JP Z,p33B0              ; 32BE
32C1: FE21    	        CP "!"                  ; 32C1
32C3: CC290B  	        CALL Z,p0B29            ; 32C3
32C6: FE0D    	        CP 0DH                  ; 32C6
32C8: CACD33  	        JP Z,p33CD              ; 32C8
32CB: 77      	p32CB:  LD (HL),A               ; 32CB
32CC: 2B      	        DEC HL                  ; 32CC
32CD: CDEA0A  	p32CD:  CALL p0AEA              ; 32CD
32D0: C39432  	        JP p3294                ; 32D0
              	
32D3: 227B33  	p32D3:  LD (x337B),HL           ; 32D3
32D6: C5      	        PUSH BC                 ; 32D6
32D7: 017133  	        LD BC,p3371             ; 32D7 code address
32DA: C5      	        PUSH BC                 ; 32DA
32DB: CDC428  	        CALL p28C4              ; 32DB
32DE: EB      	        EX DE,HL                ; 32DE
32DF: 0E00    	        LD C,00H                ; 32DF
32E1: 3A113E  	        LD A,(xb3E11)           ; 32E1
32E4: FE20    	        CP 20H                  ; 32E4
32E6: C23633  	        JP NZ,p3336             ; 32E6
32E9: 3AF13C  	        LD A,(xb3CF1)           ; 32E9
32EC: FE10    	        CP 10H                  ; 32EC
32EE: CA2E33  	        JP Z,p332E              ; 32EE
32F1: FE08    	        CP 08H                  ; 32F1
32F3: CA0E33  	        JP Z,p330E              ; 32F3
32F6: 01F6FF  	        LD BC,0FFF6H            ; 32F6
32F9: 50      	p32F9:  LD D,B                  ; 32F9
32FA: 58      	        LD E,B                  ; 32FA
32FB: 09      	p32FB:  ADD HL,BC               ; 32FB
32FC: 13      	        INC DE                  ; 32FC
32FD: DAFB32  	        JP C,p32FB              ; 32FD
3300: E5      	        PUSH HL                 ; 3300
3301: EB      	        EX DE,HL                ; 3301
3302: 7C      	        LD A,H                  ; 3302
3303: B5      	        OR L                    ; 3303
3304: C4F932  	        CALL NZ,p32F9           ; 3304
3307: 3E3A    	        LD A,3AH                ; 3307
3309: C1      	        POP BC                  ; 3309
330A: 81      	        ADD A,C                 ; 330A
330B: C36633  	        JP p3366                ; 330B
              	
330E: AF      	p330E:  XOR A                   ; 330E
330F: 29      	        ADD HL,HL               ; 330F
3310: CE30    	        ADC A,30H               ; 3310
3312: CD5233  	        CALL p3352              ; 3312
3315: 3E05    	        LD A,05H                ; 3315
3317: F5      	p3317:  PUSH AF                 ; 3317
3318: AF      	        XOR A                   ; 3318
3319: 0603    	        LD B,03H                ; 3319
331B: 29      	p331B:  ADD HL,HL               ; 331B
331C: 8F      	        ADC A,A                 ; 331C
331D: 05      	        DEC B                   ; 331D
331E: C21B33  	        JP NZ,p331B             ; 331E
3321: C630    	        ADD A,30H               ; 3321
3323: CD5233  	        CALL p3352              ; 3323
3326: F1      	        POP AF                  ; 3326
3327: 3D      	        DEC A                   ; 3327
3328: C21733  	        JP NZ,p3317             ; 3328
332B: C33633  	        JP p3336                ; 332B
              	
332E: 44      	p332E:  LD B,H                  ; 332E
332F: CD3E33  	        CALL p333E              ; 332F
3332: 45      	        LD B,L                  ; 3332
3333: CD3E33  	        CALL p333E              ; 3333
3336: 0C      	p3336:  INC C                   ; 3336
3337: 0D      	        DEC C                   ; 3337
3338: C0      	        RET NZ                  ; 3338
3339: 3E30    	        LD A,30H                ; 3339
333B: C36633  	        JP p3366                ; 333B
              	
333E: 78      	p333E:  LD A,B                  ; 333E
333F: 1F      	        RRA                     ; 333F
3340: 1F      	        RRA                     ; 3340
3341: 1F      	        RRA                     ; 3341
3342: 1F      	        RRA                     ; 3342
3343: CD4733  	        CALL p3347              ; 3343
3346: 78      	        LD A,B                  ; 3346
3347: E60F    	p3347:  AND 0FH                 ; 3347
3349: C630    	        ADD A,30H               ; 3349
334B: FE3A    	        CP 3AH                  ; 334B
334D: DA5233  	        JP C,p3352              ; 334D
3350: C607    	        ADD A,07H               ; 3350
3352: 0C      	p3352:  INC C                   ; 3352
3353: 0D      	        DEC C                   ; 3353
3354: C26633  	        JP NZ,p3366             ; 3354
3357: FE30    	        CP 30H                  ; 3357
3359: C8      	        RET Z                   ; 3359
335A: 4F      	        LD C,A                  ; 335A
335B: FE3A    	        CP 3AH                  ; 335B
335D: DA6633  	        JP C,p3366              ; 335D
3360: 3E30    	        LD A,30H                ; 3360
3362: CD6633  	        CALL p3366              ; 3362
3365: 79      	        LD A,C                  ; 3365
3366: E5      	p3366:  PUSH HL                 ; 3366
3367: 2A7B33  	        LD HL,(x337B)           ; 3367
336A: 77      	        LD (HL),A               ; 336A
336B: 2B      	        DEC HL                  ; 336B
336C: 227B33  	        LD (x337B),HL           ; 336C
336F: E1      	        POP HL                  ; 336F
3370: C9      	        RET                     ; 3370
              	
3371: C1      	p3371:  POP BC                  ; 3371
3372: CD360B  	        CALL p0B36              ; 3372
3375: 2A7B33  	        LD HL,(x337B)           ; 3375
3378: C3CD32  	        JP p32CD                ; 3378
              	
337B: 0000    	x337B:  DW 0                    ; 337B
              	
337D: 4F      	p337D:  LD C,A                  ; 337D
337E: 77      	p337E:  LD (HL),A               ; 337E
337F: 2B      	        DEC HL                  ; 337F
3380: CDEA0A  	        CALL p0AEA              ; 3380
3383: B9      	        CP C                    ; 3383
3384: CA8F33  	        JP Z,p338F              ; 3384
3387: FE0D    	        CP 0DH                  ; 3387
3389: CAD233  	        JP Z,p33D2              ; 3389
338C: C37E33  	        JP p337E                ; 338C
              	
338F: 77      	p338F:  LD (HL),A               ; 338F
3390: 2B      	        DEC HL                  ; 3390
3391: CDEA0A  	        CALL p0AEA              ; 3391
3394: B9      	        CP C                    ; 3394
3395: CA7E33  	        JP Z,p337E              ; 3395
3398: C39432  	        JP p3294                ; 3398
              	
339B: 04      	p339B:  INC B                   ; 339B
339C: 05      	        DEC B                   ; 339C
339D: CAA233  	        JP Z,p33A2              ; 339D
33A0: 77      	        LD (HL),A               ; 33A0
33A1: 2B      	        DEC HL                  ; 33A1
33A2: 04      	p33A2:  INC B                   ; 33A2
33A3: C3CD32  	        JP p32CD                ; 33A3
              	
33A6: 05      	p33A6:  DEC B                   ; 33A6
33A7: CACD32  	        JP Z,p32CD              ; 33A7
33AA: FAB533  	        JP M,p33B5              ; 33AA
33AD: C3CB32  	        JP p32CB                ; 33AD
              	
33B0: 04      	p33B0:  INC B                   ; 33B0
33B1: 05      	        DEC B                   ; 33B1
33B2: C2CB32  	        JP NZ,p32CB             ; 33B2
33B5: D1      	p33B5:  POP DE                  ; 33B5
33B6: 7B      	        LD A,E                  ; 33B6
33B7: 95      	        SUB L                   ; 33B7
33B8: 3D      	        DEC A                   ; 33B8
33B9: 12      	        LD (DE),A               ; 33B9
33BA: C1      	        POP BC                  ; 33BA
33BB: EB      	        EX DE,HL                ; 33BB
33BC: 2A463D  	        LD HL,(xw3D46)          ; 33BC
33BF: 2B      	        DEC HL                  ; 33BF
33C0: 7E      	        LD A,(HL)               ; 33C0
33C1: FE20    	        CP 20H                  ; 33C1
33C3: CC360B  	        CALL Z,p0B36            ; 33C3
33C6: FE09    	        CP 09H                  ; 33C6
33C8: CC360B  	        CALL Z,p0B36            ; 33C8
33CB: EB      	        EX DE,HL                ; 33CB
33CC: C9      	        RET                     ; 33CC
              	
33CD: 04      	p33CD:  INC B                   ; 33CD
33CE: 05      	        DEC B                   ; 33CE
33CF: CAB533  	        JP Z,p33B5              ; 33CF
33D2: CDE504  	p33D2:  CALL p04E5              ; 33D2
33D5: C3B533  	        JP p33B5                ; 33D5
              	
33D8: F5      	p33D8:  PUSH AF                 ; 33D8
33D9: E5      	        PUSH HL                 ; 33D9
33DA: 21CA3D  	        LD HL,xf3DCA            ; 33DA address
33DD: CD8D0D  	        CALL p0D8D              ; 33DD
33E0: D2EB33  	        JP NC,p33EB             ; 33E0
33E3: 23      	        INC HL                  ; 33E3
33E4: 360D    	        LD (HL),0DH             ; 33E4
33E6: 2B      	        DEC HL                  ; 33E6
33E7: EB      	        EX DE,HL                ; 33E7
33E8: E1      	        POP HL                  ; 33E8
33E9: F1      	        POP AF                  ; 33E9
33EA: C9      	        RET                     ; 33EA
              	
33EB: E1      	p33EB:  POP HL                  ; 33EB
33EC: F1      	        POP AF                  ; 33EC
33ED: 12      	        LD (DE),A               ; 33ED
33EE: 13      	        INC DE                  ; 33EE
33EF: C9      	        RET                     ; 33EF
              	
33F0: CD3E31  	p33F0:  CALL p313E              ; 33F0
33F3: FE26    	        CP 26H                  ; 33F3
33F5: CAF033  	        JP Z,p33F0              ; 33F5
33F8: FE3A    	        CP 3AH                  ; 33F8
33FA: CA3E31  	        JP Z,p313E              ; 33FA
33FD: FE21    	        CP 21H                  ; 33FD
33FF: D0      	        RET NC                  ; 33FF
3400: FE0D    	        CP 0DH                  ; 3400
3402: C8      	        RET Z                   ; 3402
3403: F5      	        PUSH AF                 ; 3403
3404: CD0E0C  	        CALL p0C0E              ; 3404
3407: CA1034  	        JP Z,p3410              ; 3407
340A: CD1505  	        CALL p0515              ; 340A
340D: CAC718  	        JP Z,p18C7              ; 340D
3410: F1      	p3410:  POP AF                  ; 3410
3411: C33E31  	        JP p313E                ; 3411
              	
3414: 211A34  	p3414:  LD HL,x341A             ; 3414 message
3417: C3720D  	        JP p0D72                ; 3417
              	
341A: 3F537461	x341A:  DB "?Stack overflow, try more P switches"
341E: 636B206F	
3422: 76657266	
3426: 6C6F772C	
342A: 20747279	
342E: 206D6F72	
3432: 65205020	
3436: 73776974	
343A: 63686573	
343E: 0D0A00  	        DB 0DH,0AH,00H
              	
3441: CDC428  	p3441:  CALL p28C4              ; 3441
3444: 3A113E  	        LD A,(xb3E11)           ; 3444
3447: FE20    	        CP 20H                  ; 3447
3449: CA4F34  	        JP Z,p344F              ; 3449
344C: 110000  	        LD DE,0000H             ; 344C
344F: EB      	p344F:  EX DE,HL                ; 344F
3450: 22FD3F  	        LD (xw3FFD),HL          ; 3450
3453: CDFE2F  	        CALL p2FFE              ; 3453
3456: C1      	        POP BC                  ; 3456
3457: D1      	        POP DE                  ; 3457
3458: E1      	        POP HL                  ; 3458
3459: 016334  	        LD BC,p3463             ; 3459 code address
345C: C5      	p345C:  PUSH BC                 ; 345C
345D: D5      	        PUSH DE                 ; 345D
345E: 3E0D    	p345E:  LD A,0DH                ; 345E
3460: C35C04  	        JP p045C                ; 3460
              	
3463: C1      	p3463:  POP BC                  ; 3463
3464: 015E34  	        LD BC,p345E             ; 3464 code address
3467: C5      	        PUSH BC                 ; 3467
3468: CD550B  	        CALL p0B55              ; 3468
346B: FE3A    	        CP 3AH                  ; 346B
346D: CC550B  	        CALL Z,p0B55            ; 346D
3470: CD4830  	        CALL p3048              ; 3470
3473: CA8434  	        JP Z,p3484              ; 3473
3476: 11483D  	        LD DE,xf3D48            ; 3476 address of buffer
3479: 1A      	p3479:  LD A,(DE)               ; 3479
347A: CD3B3A  	        CALL p3A3B              ; 347A
347D: 13      	        INC DE                  ; 347D
347E: FE0D    	        CP 0DH                  ; 347E
3480: C27934  	        JP NZ,p3479             ; 3480
3483: C9      	        RET                     ; 3483
              	
3484: AF      	p3484:  XOR A                   ; 3484
3485: CD3B3A  	p3485:  CALL p3A3B              ; 3485
3488: CD9E3A  	        CALL p3A9E              ; 3488
348B: C1      	        POP BC                  ; 348B
348C: D1      	        POP DE                  ; 348C
348D: E1      	        POP HL                  ; 348D
348E: 21CC02  	        LD HL,p02CC             ; 348E code address
3491: E5      	p3491:  PUSH HL                 ; 3491
3492: D5      	        PUSH DE                 ; 3492
3493: 2A2340  	        LD HL,(xw4023)          ; 3493
3496: E5      	        PUSH HL                 ; 3496
3497: E5      	        PUSH HL                 ; 3497
3498: 2AFD3F  	        LD HL,(xw3FFD)          ; 3498
349B: E5      	        PUSH HL                 ; 349B
349C: 21CC02  	        LD HL,p02CC             ; 349C code address
349F: E5      	        PUSH HL                 ; 349F
34A0: 21A634  	p34A0:  LD HL,p34A6             ; 34A0 code address
34A3: E5      	        PUSH HL                 ; 34A3
34A4: C5      	        PUSH BC                 ; 34A4
34A5: C9      	        RET                     ; 34A5
              	
34A6: CDF934  	p34A6:  CALL p34F9              ; 34A6
34A9: C1      	        POP BC                  ; 34A9
34AA: E1      	p34AA:  POP HL                  ; 34AA
34AB: D1      	p34AB:  POP DE                  ; 34AB
34AC: CD8D0D  	        CALL p0D8D              ; 34AC
34AF: C2D534  	        JP NZ,p34D5             ; 34AF
34B2: 3A0640  	        LD A,(xb4006)           ; 34B2
34B5: B7      	        OR A                    ; 34B5
34B6: C2BE34  	        JP NZ,p34BE             ; 34B6
34B9: 78      	        LD A,B                  ; 34B9
34BA: B1      	        OR C                    ; 34BA
34BB: C2D534  	        JP NZ,p34D5             ; 34BB
34BE: 2AF83F  	p34BE:  LD HL,(xw3FF8)          ; 34BE
34C1: E5      	p34C1:  PUSH HL                 ; 34C1
34C2: CD9439  	        CALL p3994              ; 34C2
34C5: E1      	        POP HL                  ; 34C5
34C6: CD8A30  	p34C6:  CALL p308A              ; 34C6
34C9: AF      	        XOR A                   ; 34C9
34CA: 320640  	        LD (xb4006),A           ; 34CA
34CD: D1      	        POP DE                  ; 34CD
34CE: D5      	        PUSH DE                 ; 34CE
34CF: 2AFF3F  	        LD HL,(xw3FFF)          ; 34CF
34D2: E5      	        PUSH HL                 ; 34D2
34D3: EB      	        EX DE,HL                ; 34D3
34D4: E9      	        JP (HL)                 ; 34D4
              	
34D5: D5      	p34D5:  PUSH DE                 ; 34D5
34D6: CD723A  	        CALL p3A72              ; 34D6
34D9: B7      	        OR A                    ; 34D9
34DA: CA0835  	        JP Z,p3508              ; 34DA
34DD: 11483D  	        LD DE,xf3D48            ; 34DD address of buffer
34E0: CD883A  	p34E0:  CALL p3A88              ; 34E0
34E3: CDD833  	        CALL p33D8              ; 34E3
34E6: FE0D    	        CP 0DH                  ; 34E6
34E8: C2E034  	        JP NZ,p34E0             ; 34E8
34EB: E5      	        PUSH HL                 ; 34EB
34EC: C5      	        PUSH BC                 ; 34EC
34ED: 2A0140  	p34ED:  LD HL,(xw4001)          ; 34ED
34F0: E5      	        PUSH HL                 ; 34F0
34F1: 2A0340  	        LD HL,(xw4003)          ; 34F1
34F4: E5      	        PUSH HL                 ; 34F4
34F5: 2AFF3F  	        LD HL,(xw3FFF)          ; 34F5
34F8: E9      	        JP (HL)                 ; 34F8
34F9: D1      	p34F9:  POP DE                  ; 34F9
34FA: E1      	        POP HL                  ; 34FA
34FB: 22FF3F  	        LD (xw3FFF),HL          ; 34FB
34FE: E1      	        POP HL                  ; 34FE
34FF: 220340  	        LD (xw4003),HL          ; 34FF
3502: E1      	        POP HL                  ; 3502
3503: 220140  	        LD (xw4001),HL          ; 3503
3506: EB      	        EX DE,HL                ; 3506
3507: E9      	        JP (HL)                 ; 3507
              	
3508: 0B      	p3508:  DEC BC                  ; 3508
3509: 62      	        LD H,D                  ; 3509
350A: 6B      	        LD L,E                  ; 350A
350B: C3AB34  	        JP p34AB                ; 350B
              	
350E: 3AFA3F  	p350E:  LD A,(xb3FFA)           ; 350E
3511: B7      	        OR A                    ; 3511
3512: CAE504  	        JP Z,p04E5              ; 3512
3515: 320640  	        LD (xb4006),A           ; 3515
3518: C1      	        POP BC                  ; 3518
3519: E1      	        POP HL                  ; 3519
351A: D1      	        POP DE                  ; 351A
351B: 112B35  	        LD DE,p352B             ; 351B code address
351E: D5      	        PUSH DE                 ; 351E
351F: E5      	        PUSH HL                 ; 351F
3520: C5      	        PUSH BC                 ; 3520
3521: AF      	        XOR A                   ; 3521
3522: 320540  	        LD (xb4005),A           ; 3522
3525: C3400B  	        JP p0B40                ; 3525
              	
3528: C3C104  	p3528:  JP p04C1                ; 3528
              	
352B: 3A0640  	p352B:  LD A,(xb4006)           ; 352B
352E: B7      	        OR A                    ; 352E
352F: CA8A35  	        JP Z,p358A              ; 352F
3532: C1      	        POP BC                  ; 3532
3533: 01DE01  	        LD BC,p01DE             ; 3533 spoofed return address
3536: C5      	        PUSH BC                 ; 3536
3537: CD550B  	        CALL p0B55              ; 3537
353A: FE3A    	        CP 3AH                  ; 353A
353C: CC550B  	        CALL Z,p0B55            ; 353C
353F: CD1505  	        CALL p0515              ; 353F
3542: C0      	        RET NZ                  ; 3542
3543: B7      	        OR A                    ; 3543
3544: F0      	        RET P                   ; 3544
3545: 4F      	        LD C,A                  ; 3545
3546: E608    	        AND 08H                 ; 3546
3548: C25E35  	        JP NZ,p355E             ; 3548
354B: 79      	        LD A,C                  ; 354B
354C: E610    	        AND 10H                 ; 354C
354E: C26635  	        JP NZ,p3566             ; 354E
3551: 79      	        LD A,C                  ; 3551
3552: E620    	        AND 20H                 ; 3552
3554: C26E35  	        JP NZ,p356E             ; 3554
3557: 79      	        LD A,C                  ; 3557
3558: E640    	        AND 40H                 ; 3558
355A: C27B35  	        JP NZ,p357B             ; 355A
355D: C9      	        RET                     ; 355D
              	
355E: 3A0540  	p355E:  LD A,(xb4005)           ; 355E
3561: 3D      	        DEC A                   ; 3561
3562: 320540  	        LD (xb4005),A           ; 3562
3565: C9      	        RET                     ; 3565
              	
3566: 3A0540  	p3566:  LD A,(xb4005)           ; 3566
3569: 3C      	        INC A                   ; 3569
356A: 320540  	        LD (xb4005),A           ; 356A
356D: C9      	        RET                     ; 356D
              	
356E: 3A0540  	p356E:  LD A,(xb4005)           ; 356E
3571: B7      	        OR A                    ; 3571
3572: C0      	        RET NZ                  ; 3572
3573: 3AF33C  	        LD A,(xb3CF3)           ; 3573
3576: B7      	        OR A                    ; 3576
3577: C8      	        RET Z                   ; 3577
3578: C3EA28  	        JP p28EA                ; 3578
              	
357B: 3A0540  	p357B:  LD A,(xb4005)           ; 357B
357E: B7      	        OR A                    ; 357E
357F: C0      	        RET NZ                  ; 357F
3580: 23      	        INC HL                  ; 3580
3581: 7E      	        LD A,(HL)               ; 3581
3582: FE08    	        CP 08H                  ; 3582
3584: C8      	        RET Z                   ; 3584
3585: 3EFF    	        LD A,0FFH               ; 3585
3587: C35029  	        JP p2950                ; 3587
              	
358A: C1      	p358A:  POP BC                  ; 358A
358B: D1      	        POP DE                  ; 358B
358C: E1      	        POP HL                  ; 358C
358D: 21CC02  	        LD HL,p02CC             ; 358D code address
3590: E5      	        PUSH HL                 ; 3590
3591: D5      	        PUSH DE                 ; 3591
3592: C5      	        PUSH BC                 ; 3592
3593: C9      	        RET                     ; 3593
              	
3594: B7      	p3594:  OR A                    ; 3594
3595: F5      	        PUSH AF                 ; 3595
3596: CDFE2F  	        CALL p2FFE              ; 3596
3599: 220740  	        LD (xw4007),HL          ; 3599
359C: CD6932  	        CALL p3269              ; 359C
359F: 4F      	        LD C,A                  ; 359F
35A0: 3A113E  	        LD A,(xb3E11)           ; 35A0
35A3: FE20    	        CP 20H                  ; 35A3
35A5: CAB035  	        JP Z,p35B0              ; 35A5
35A8: 2A0740  	        LD HL,(xw4007)          ; 35A8
35AB: CD8A30  	        CALL p308A              ; 35AB
35AE: F1      	        POP AF                  ; 35AE
35AF: C9      	        RET                     ; 35AF
              	
35B0: 79      	p35B0:  LD A,C                  ; 35B0
35B1: 3600    	        LD (HL),00H             ; 35B1
35B3: 2B      	        DEC HL                  ; 35B3
35B4: FE2C    	        CP 2CH                  ; 35B4
35B6: C49D04  	        CALL NZ,p049D           ; 35B6
35B9: F1      	        POP AF                  ; 35B9
35BA: F5      	        PUSH AF                 ; 35BA
35BB: CAEC35  	        JP Z,p35EC              ; 35BB
35BE: CD290B  	        CALL p0B29              ; 35BE
35C1: FE3C    	        CP 3CH                  ; 35C1
35C3: C49D04  	        CALL NZ,p049D           ; 35C3
35C6: F1      	p35C6:  POP AF                  ; 35C6
35C7: 77      	        LD (HL),A               ; 35C7
35C8: E5      	        PUSH HL                 ; 35C8
35C9: F5      	        PUSH AF                 ; 35C9
35CA: 0E00    	        LD C,00H                ; 35CA
35CC: 2B      	        DEC HL                  ; 35CC
35CD: 3A113E  	        LD A,(xb3E11)           ; 35CD
35D0: FE20    	        CP 20H                  ; 35D0
35D2: C24736  	        JP NZ,p3647             ; 35D2
35D5: F1      	        POP AF                  ; 35D5
35D6: F5      	        PUSH AF                 ; 35D6
35D7: 47      	        LD B,A                  ; 35D7
35D8: CAFA35  	        JP Z,p35FA              ; 35D8
              	
35DB: CD8C32  	p35DB:  CALL p328C              ; 35DB
35DE: 0C      	        INC C                   ; 35DE
35DF: FE0D    	        CP 0DH                  ; 35DF
35E1: CA4436  	        JP Z,p3644              ; 35E1
35E4: FE3E    	        CP 3EH                  ; 35E4
35E6: CA4736  	        JP Z,p3647              ; 35E6
35E9: C3DB35  	        JP p35DB                ; 35E9
              	
35EC: CD230B  	p35EC:  CALL p0B23              ; 35EC
35EF: D63C    	        SUB 3CH                 ; 35EF
35F1: 320E40  	        LD (xb400E),A           ; 35F1
35F4: CCEA0A  	        CALL Z,p0AEA            ; 35F4
35F7: C3C635  	        JP p35C6                ; 35F7
              	
35FA: CDEA0A  	p35FA:  CALL p0AEA              ; 35FA
35FD: FE0D    	        CP 0DH                  ; 35FD
35FF: CA3D36  	        JP Z,p363D              ; 35FF
3602: F5      	        PUSH AF                 ; 3602
3603: 3A0E40  	        LD A,(xb400E)           ; 3603
3606: B7      	        OR A                    ; 3606
3607: CA1F36  	        JP Z,p361F              ; 3607
360A: F1      	        POP AF                  ; 360A
360B: 114736  	        LD DE,p3647             ; 360B spoofed return address
360E: D5      	        PUSH DE                 ; 360E
360F: FE20    	        CP 20H                  ; 360F
3611: C8      	        RET Z                   ; 3611
3612: FE09    	        CP 09H                  ; 3612
3614: C8      	        RET Z                   ; 3614
3615: FE3B    	        CP 3BH                  ; 3615
3617: C8      	        RET Z                   ; 3617
3618: FE2C    	        CP 2CH                  ; 3618
361A: C8      	        RET Z                   ; 361A
361B: D1      	        POP DE                  ; 361B
361C: C33736  	        JP p3637                ; 361C
              	
361F: F1      	p361F:  POP AF                  ; 361F
3620: FE3C    	        CP 3CH                  ; 3620
3622: CA3336  	        JP Z,p3633              ; 3622
3625: FE3E    	        CP 3EH                  ; 3625
3627: C23736  	        JP NZ,p3637             ; 3627
362A: 04      	        INC B                   ; 362A
362B: 05      	        DEC B                   ; 362B
362C: CA4736  	        JP Z,p3647              ; 362C
362F: 05      	        DEC B                   ; 362F
3630: C33736  	        JP p3637                ; 3630
              	
3633: 04      	p3633:  INC B                   ; 3633
3634: C33736  	        JP p3637                ; 3634
              	
3637: 0C      	p3637:  INC C                   ; 3637
3638: 77      	        LD (HL),A               ; 3638
3639: 2B      	        DEC HL                  ; 3639
363A: C3FA35  	        JP p35FA                ; 363A
              	
363D: 3A0E40  	p363D:  LD A,(xb400E)           ; 363D
3640: B7      	        OR A                    ; 3640
3641: C24736  	        JP NZ,p3647             ; 3641
3644: CDCD04  	p3644:  CALL p04CD              ; 3644
3647: 3600    	p3647:  LD (HL),00H             ; 3647
3649: 2B      	        DEC HL                  ; 3649
364A: CD2E30  	        CALL p302E              ; 364A
364D: 78      	        LD A,B                  ; 364D
364E: B7      	        OR A                    ; 364E
364F: C49D04  	        CALL NZ,p049D           ; 364F
3652: F1      	        POP AF                  ; 3652
3653: E1      	        POP HL                  ; 3653
3654: 220940  	        LD (xw4009),HL          ; 3654
3657: 2600    	        LD H,00H                ; 3657
3659: 69      	        LD L,C                  ; 3659
365A: 22FD3F  	        LD (xw3FFD),HL          ; 365A
365D: C1      	        POP BC                  ; 365D
365E: D1      	        POP DE                  ; 365E
365F: E1      	        POP HL                  ; 365F
3660: 016D36  	        LD BC,p366D             ; 3660 code address
3663: C35C34  	        JP p345C                ; 3663
              	
              	; Crimes against humanity. The JP NZ is never executed.
              	
3666: AF      	p3666:  XOR A                   ; 3666
3667: C2      	        DB 0C2H                 ; 3667 (JP NZ,013EH)
3668: 3E01    	p3668:  LD A,01H                ; 3668
366A: C39435  	        JP p3594                ; 366A
              	
366D: C1      	p366D:  POP BC                  ; 366D
366E: 015E34  	        LD BC,p345E             ; 366E code address
3671: C5      	        PUSH BC                 ; 3671
3672: 2A2540  	        LD HL,(xw4025)          ; 3672
3675: 3E01    	        LD A,01H                ; 3675
3677: 321040  	        LD (xb4010),A           ; 3677
367A: E5      	        PUSH HL                 ; 367A
367B: CDF033  	        CALL p33F0              ; 367B
367E: F5      	        PUSH AF                 ; 367E
367F: CD4830  	        CALL p3048              ; 367F
3682: CAB136  	        JP Z,p36B1              ; 3682
3685: F1      	        POP AF                  ; 3685
3686: E1      	        POP HL                  ; 3686
3687: FE0D    	p3687:  CP 0DH                  ; 3687
3689: CAB631  	        JP Z,p31B6              ; 3689
368C: FE3B    	        CP 3BH                  ; 368C
368E: CAAB31  	        JP Z,p31AB              ; 368E
3691: FE27    	        CP 27H                  ; 3691
3693: CAA136  	        JP Z,p36A1              ; 3693
3696: FE22    	        CP 22H                  ; 3696
3698: CAA136  	        JP Z,p36A1              ; 3698
369B: CD3E31  	p369B:  CALL p313E              ; 369B
369E: C38736  	        JP p3687                ; 369E
              	
36A1: 47      	p36A1:  LD B,A                  ; 36A1
36A2: CD9530  	p36A2:  CALL p3095              ; 36A2
36A5: FE0D    	        CP 0DH                  ; 36A5
36A7: CAB631  	        JP Z,p31B6              ; 36A7
36AA: B8      	        CP B                    ; 36AA
36AB: CA9B36  	        JP Z,p369B              ; 36AB
36AE: C3A236  	        JP p36A2                ; 36AE
              	
36B1: F1      	p36B1:  POP AF                  ; 36B1
36B2: E1      	        POP HL                  ; 36B2
36B3: 222540  	        LD (xw4025),HL          ; 36B3
36B6: AF      	        XOR A                   ; 36B6
36B7: CD3B3A  	        CALL p3A3B              ; 36B7
36BA: CD9E3A  	        CALL p3A9E              ; 36BA
36BD: C1      	        POP BC                  ; 36BD
36BE: D1      	        POP DE                  ; 36BE
36BF: E1      	        POP HL                  ; 36BF
36C0: 21CC02  	        LD HL,p02CC             ; 36C0 code address
36C3: E5      	        PUSH HL                 ; 36C3
36C4: D5      	        PUSH DE                 ; 36C4
36C5: 2A2340  	        LD HL,(xw4023)          ; 36C5
36C8: E5      	        PUSH HL                 ; 36C8
36C9: E5      	        PUSH HL                 ; 36C9
36CA: 2A0940  	        LD HL,(xw4009)          ; 36CA
36CD: E5      	        PUSH HL                 ; 36CD
36CE: 2AFD3F  	        LD HL,(xw3FFD)          ; 36CE
36D1: E5      	        PUSH HL                 ; 36D1
36D2: 21CC02  	        LD HL,p02CC             ; 36D2 code address
36D5: E5      	        PUSH HL                 ; 36D5
36D6: 21DC36  	        LD HL,p36DC             ; 36D6 code address
36D9: E5      	        PUSH HL                 ; 36D9
36DA: C5      	        PUSH BC                 ; 36DA
36DB: C9      	        RET                     ; 36DB
              	
36DC: CDF934  	p36DC:  CALL p34F9              ; 36DC
36DF: C1      	        POP BC                  ; 36DF
36E0: E1      	        POP HL                  ; 36E0
36E1: D1      	        POP DE                  ; 36E1
36E2: 3E01    	        LD A,01H                ; 36E2
36E4: 321040  	        LD (xb4010),A           ; 36E4
36E7: 220B40  	        LD (xw400B),HL          ; 36E7
36EA: E1      	        POP HL                  ; 36EA
36EB: CD8D0D  	        CALL p0D8D              ; 36EB
36EE: C20D37  	        JP NZ,p370D             ; 36EE
36F1: 3A0640  	p36F1:  LD A,(xb4006)           ; 36F1
36F4: B7      	        OR A                    ; 36F4
36F5: C2FD36  	        JP NZ,p36FD             ; 36F5
36F8: 78      	        LD A,B                  ; 36F8
36F9: B1      	        OR C                    ; 36F9
36FA: C20D37  	        JP NZ,p370D             ; 36FA
36FD: 2A0B40  	p36FD:  LD HL,(xw400B)          ; 36FD
3700: 23      	        INC HL                  ; 3700
3701: 23      	        INC HL                  ; 3701
3702: 7E      	p3702:  LD A,(HL)               ; 3702
3703: FE08    	        CP 08H                  ; 3703
3705: 23      	        INC HL                  ; 3705
3706: D20237  	        JP NC,p3702             ; 3706
3709: 2B      	        DEC HL                  ; 3709
370A: C3C134  	        JP p34C1                ; 370A
              	
370D: EB      	p370D:  EX DE,HL                ; 370D
370E: D5      	        PUSH DE                 ; 370E
370F: CD723A  	        CALL p3A72              ; 370F
3712: B7      	        OR A                    ; 3712
3713: CA3437  	        JP Z,p3734              ; 3713
3716: 11483D  	        LD DE,xf3D48            ; 3716 address of buffer
3719: CD723A  	p3719:  CALL p3A72              ; 3719
371C: B7      	        OR A                    ; 371C
371D: FCEE31  	        CALL M,p31EE            ; 371D
3720: CDED3A  	        CALL p3AED              ; 3720
3723: CDD833  	        CALL p33D8              ; 3723
3726: FE0D    	        CP 0DH                  ; 3726
3728: C21937  	        JP NZ,p3719             ; 3728
372B: E5      	        PUSH HL                 ; 372B
372C: 2A0B40  	        LD HL,(xw400B)          ; 372C
372F: E5      	        PUSH HL                 ; 372F
3730: C5      	        PUSH BC                 ; 3730
3731: C3ED34  	        JP p34ED                ; 3731
              	
3734: 0B      	p3734:  DEC BC                  ; 3734
3735: 62      	        LD H,D                  ; 3735
3736: 6B      	        LD L,E                  ; 3736
3737: D1      	        POP DE                  ; 3737
3738: C3F136  	        JP p36F1                ; 3738
              	
373B: CDC80B  	p373B:  CALL p0BC8              ; 373B
373E: FE0D    	        CP 0DH                  ; 373E
3740: CA9D04  	        JP Z,p049D              ; 3740
3743: 4F      	        LD C,A                  ; 3743
3744: CDEE4A  	        CALL p4AEE              ; 3744
3747: CD290B  	p3747:  CALL p0B29              ; 3747
374A: FE0D    	        CP 0DH                  ; 374A
374C: CA5637  	        JP Z,p3756              ; 374C
374F: CDEE4A  	        CALL p4AEE              ; 374F
3752: B9      	        CP C                    ; 3752
3753: C24737  	        JP NZ,p3747             ; 3753
3756: 3E0D    	p3756:  LD A,0DH                ; 3756
3758: CDEE4A  	        CALL p4AEE              ; 3758
375B: 3E0A    	        LD A,0AH                ; 375B
375D: CDEE4A  	        CALL p4AEE              ; 375D
3760: 3A113E  	        LD A,(xb3E11)           ; 3760
3763: FE20    	        CP 20H                  ; 3763
3765: C0      	        RET NZ                  ; 3765
3766: C3400B  	        JP p0B40                ; 3766
              	
3769: CDC80B  	p3769:  CALL p0BC8              ; 3769
376C: FE0D    	        CP 0DH                  ; 376C
376E: CA9D04  	        JP Z,p049D              ; 376E
3771: 320D40  	        LD (xb400D),A           ; 3771
3774: 4F      	        LD C,A                  ; 3774
3775: CDEA0A  	p3775:  CALL p0AEA              ; 3775
3778: FE0D    	        CP 0DH                  ; 3778
377A: CA8437  	        JP Z,p3784              ; 377A
377D: B9      	        CP C                    ; 377D
377E: CA400B  	        JP Z,p0B40              ; 377E
3781: C37537  	        JP p3775                ; 3781
              	
3784: E1      	p3784:  POP HL                  ; 3784
3785: D1      	        POP DE                  ; 3785
3786: C1      	        POP BC                  ; 3786
3787: 018D37  	        LD BC,p378D             ; 3787 code address
378A: C35C34  	        JP p345C                ; 378A
              	
378D: C1      	p378D:  POP BC                  ; 378D
378E: 015E34  	        LD BC,p345E             ; 378E code address
3791: C5      	        PUSH BC                 ; 3791
3792: 21483D  	        LD HL,xf3D48            ; 3792 address of buffer
3795: 3A0D40  	        LD A,(xb400D)           ; 3795
3798: 4F      	        LD C,A                  ; 3798
3799: 7E      	p3799:  LD A,(HL)               ; 3799
379A: B9      	        CP C                    ; 379A
379B: CAA537  	        JP Z,p37A5              ; 379B
379E: FE0D    	        CP 0DH                  ; 379E
37A0: C8      	        RET Z                   ; 37A0
37A1: 23      	        INC HL                  ; 37A1
37A2: C39937  	        JP p3799                ; 37A2
              	
37A5: C1      	p37A5:  POP BC                  ; 37A5
37A6: D1      	        POP DE                  ; 37A6
37A7: E1      	        POP HL                  ; 37A7
37A8: 21CC02  	        LD HL,p02CC             ; 37A8 code address
37AB: E5      	        PUSH HL                 ; 37AB
37AC: D5      	        PUSH DE                 ; 37AC
37AD: C5      	        PUSH BC                 ; 37AD
37AE: C9      	        RET                     ; 37AE
              	
37AF: B7      	p37AF:  OR A                    ; 37AF
37B0: CDD40D  	        CALL p0DD4              ; 37B0
37B3: 23      	        INC HL                  ; 37B3
37B4: 22F63F  	        LD (xw3FF6),HL          ; 37B4
37B7: 7E      	        LD A,(HL)               ; 37B7
37B8: F628    	        OR 28H                  ; 37B8
37BA: 77      	        LD (HL),A               ; 37BA
37BB: CDFE2F  	        CALL p2FFE              ; 37BB
37BE: 220740  	        LD (xw4007),HL          ; 37BE
37C1: 0E00    	        LD C,00H                ; 37C1
37C3: C5      	p37C3:  PUSH BC                 ; 37C3
37C4: CD6932  	        CALL p3269              ; 37C4
37C7: C1      	        POP BC                  ; 37C7
37C8: 0C      	        INC C                   ; 37C8
37C9: FE2C    	        CP 2CH                  ; 37C9
37CB: CAC337  	        JP Z,p37C3              ; 37CB
37CE: AF      	        XOR A                   ; 37CE
37CF: 77      	        LD (HL),A               ; 37CF
37D0: 2B      	        DEC HL                  ; 37D0
37D1: 320F40  	        LD (xb400F),A           ; 37D1
37D4: 321540  	        LD (xb4015),A           ; 37D4
37D7: 3C      	        INC A                   ; 37D7
37D8: 77      	        LD (HL),A               ; 37D8
37D9: 2B      	        DEC HL                  ; 37D9
37DA: 221140  	        LD (xw4011),HL          ; 37DA
37DD: 221340  	        LD (xw4013),HL          ; 37DD
37E0: 3600    	        LD (HL),00H             ; 37E0
37E2: 79      	        LD A,C                  ; 37E2
37E3: 321A40  	        LD (xb401A),A           ; 37E3
37E6: CD3B3A  	        CALL p3A3B              ; 37E6
37E9: AF      	        XOR A                   ; 37E9
37EA: CD3B3A  	        CALL p3A3B              ; 37EA
37ED: C1      	        POP BC                  ; 37ED
37EE: D1      	        POP DE                  ; 37EE
37EF: E1      	        POP HL                  ; 37EF
37F0: 21F737  	        LD HL,p37F7             ; 37F0 code address
37F3: E5      	        PUSH HL                 ; 37F3
37F4: D5      	        PUSH DE                 ; 37F4
37F5: C5      	        PUSH BC                 ; 37F5
37F6: C9      	        RET                     ; 37F6
              	
37F7: C1      	p37F7:  POP BC                  ; 37F7
37F8: 015E34  	        LD BC,p345E             ; 37F8 code address
37FB: C5      	        PUSH BC                 ; 37FB
37FC: 2A2540  	        LD HL,(xw4025)          ; 37FC
37FF: E5      	        PUSH HL                 ; 37FF
3800: AF      	        XOR A                   ; 3800
3801: 320F40  	        LD (xb400F),A           ; 3801
3804: 321040  	        LD (xb4010),A           ; 3804
3807: CDF033  	        CALL p33F0              ; 3807
380A: F5      	        PUSH AF                 ; 380A
380B: CD4830  	        CALL p3048              ; 380B
380E: DA1C38  	        JP C,p381C              ; 380E
3811: CA4F38  	        JP Z,p384F              ; 3811
3814: F1      	        POP AF                  ; 3814
3815: 320F40  	        LD (xb400F),A           ; 3815
3818: E1      	        POP HL                  ; 3818
3819: C38736  	        JP p3687                ; 3819
              	
381C: F1      	p381C:  POP AF                  ; 381C
381D: CD550B  	p381D:  CALL p0B55              ; 381D
3820: C49D04  	        CALL NZ,p049D           ; 3820
3823: 2A1340  	        LD HL,(xw4013)          ; 3823
3826: F5      	        PUSH AF                 ; 3826
3827: C23138  	        JP NZ,p3831             ; 3827
382A: 3A1540  	        LD A,(xb4015)           ; 382A
382D: 3C      	        INC A                   ; 382D
382E: 321540  	        LD (xb4015),A           ; 382E
3831: 11E93D  	p3831:  LD DE,xb3DE9            ; 3831 address
3834: 1A      	        LD A,(DE)               ; 3834
3835: 3C      	        INC A                   ; 3835
3836: 4F      	        LD C,A                  ; 3836
3837: 1A      	p3837:  LD A,(DE)               ; 3837
3838: 77      	        LD (HL),A               ; 3838
3839: 2B      	        DEC HL                  ; 3839
383A: 13      	        INC DE                  ; 383A
383B: 0D      	        DEC C                   ; 383B
383C: C23738  	        JP NZ,p3837             ; 383C
383F: 3600    	        LD (HL),00H             ; 383F
3841: 221340  	        LD (xw4013),HL          ; 3841
3844: F1      	        POP AF                  ; 3844
3845: FE2C    	        CP 2CH                  ; 3845
3847: CA1D38  	        JP Z,p381D              ; 3847
384A: E1      	        POP HL                  ; 384A
384B: 222540  	        LD (xw4025),HL          ; 384B
384E: C9      	        RET                     ; 384E
              	
384F: F1      	p384F:  POP AF                  ; 384F
3850: E1      	        POP HL                  ; 3850
3851: AF      	        XOR A                   ; 3851
3852: 222540  	        LD (xw4025),HL          ; 3852
3855: CD3B3A  	        CALL p3A3B              ; 3855
3858: CD9E3A  	        CALL p3A9E              ; 3858
385B: 2A2340  	        LD HL,(xw4023)          ; 385B
385E: 110500  	        LD DE,0005H             ; 385E
3861: 19      	        ADD HL,DE               ; 3861
3862: EB      	        EX DE,HL                ; 3862
3863: 2A1D40  	        LD HL,(xw401D)          ; 3863
3866: 19      	        ADD HL,DE               ; 3866
3867: 3A1540  	        LD A,(xb4015)           ; 3867
386A: 77      	        LD (HL),A               ; 386A
386B: 2A2340  	        LD HL,(xw4023)          ; 386B
386E: EB      	        EX DE,HL                ; 386E
386F: 2AF63F  	        LD HL,(xw3FF6)          ; 386F
3872: 23      	        INC HL                  ; 3872
3873: D5      	        PUSH DE                 ; 3873
3874: E5      	        PUSH HL                 ; 3874
3875: 5E      	        LD E,(HL)               ; 3875
3876: 23      	        INC HL                  ; 3876
3877: 56      	        LD D,(HL)               ; 3877
3878: 7A      	        LD A,D                  ; 3878
3879: B3      	        OR E                    ; 3879
387A: C49439  	        CALL NZ,p3994           ; 387A
387D: E1      	        POP HL                  ; 387D
387E: D1      	        POP DE                  ; 387E
387F: 73      	        LD (HL),E               ; 387F
3880: 23      	        INC HL                  ; 3880
3881: 72      	        LD (HL),D               ; 3881
3882: 2A0740  	        LD HL,(xw4007)          ; 3882
3885: CD8A30  	        CALL p308A              ; 3885
3888: C1      	        POP BC                  ; 3888
3889: D1      	        POP DE                  ; 3889
388A: E1      	        POP HL                  ; 388A
388B: 21CC02  	        LD HL,p02CC             ; 388B code address
388E: E5      	        PUSH HL                 ; 388E
388F: D5      	        PUSH DE                 ; 388F
3890: C5      	        PUSH BC                 ; 3890
3891: C9      	        RET                     ; 3891
              	
3892: E5      	p3892:  PUSH HL                 ; 3892
3893: 37      	        SCF                     ; 3893
3894: CD930D  	        CALL p0D93              ; 3894
3897: CDFE2F  	        CALL p2FFE              ; 3897
389A: 3600    	        LD (HL),00H             ; 389A
389C: 2B      	        DEC HL                  ; 389C
389D: 3601    	        LD (HL),01H             ; 389D
389F: 220B40  	        LD (xw400B),HL          ; 389F
38A2: 2B      	        DEC HL                  ; 38A2
38A3: 0E00    	        LD C,00H                ; 38A3
38A5: CD8C32  	p38A5:  CALL p328C              ; 38A5
38A8: 47      	        LD B,A                  ; 38A8
38A9: 0C      	        INC C                   ; 38A9
38AA: CD360B  	        CALL p0B36              ; 38AA
38AD: CDC80B  	        CALL p0BC8              ; 38AD
38B0: FE0D    	        CP 0DH                  ; 38B0
38B2: CACD38  	        JP Z,p38CD              ; 38B2
38B5: FE3B    	        CP 3BH                  ; 38B5
38B7: CACD38  	        JP Z,p38CD              ; 38B7
38BA: FE2C    	        CP 2CH                  ; 38BA
38BC: CAA538  	        JP Z,p38A5              ; 38BC
38BF: 78      	        LD A,B                  ; 38BF
38C0: FE20    	        CP 20H                  ; 38C0
38C2: CAA538  	        JP Z,p38A5              ; 38C2
38C5: FE09    	        CP 09H                  ; 38C5
38C7: C4CD04  	        CALL NZ,p04CD           ; 38C7
38CA: C3A538  	        JP p38A5                ; 38CA
              	
38CD: E3      	p38CD:  EX (SP),HL              ; 38CD
38CE: 23      	        INC HL                  ; 38CE
38CF: 23      	        INC HL                  ; 38CF
38D0: 5E      	        LD E,(HL)               ; 38D0
38D1: 23      	        INC HL                  ; 38D1
38D2: 56      	        LD D,(HL)               ; 38D2
38D3: EB      	        EX DE,HL                ; 38D3
38D4: CD883A  	        CALL p3A88              ; 38D4
38D7: E3      	        EX (SP),HL              ; 38D7
38D8: B7      	        OR A                    ; 38D8
38D9: CAEA38  	        JP Z,p38EA              ; 38D9
38DC: B9      	p38DC:  CP C                    ; 38DC
38DD: CAEA38  	        JP Z,p38EA              ; 38DD
38E0: DAEA38  	        JP C,p38EA              ; 38E0
38E3: 3600    	        LD (HL),00H             ; 38E3
38E5: 2B      	        DEC HL                  ; 38E5
38E6: 0C      	        INC C                   ; 38E6
38E7: C3DC38  	        JP p38DC                ; 38E7
              	
38EA: 3600    	p38EA:  LD (HL),00H             ; 38EA
38EC: 2B      	        DEC HL                  ; 38EC
38ED: CD2E30  	        CALL p302E              ; 38ED
38F0: E1      	        POP HL                  ; 38F0
38F1: C1      	        POP BC                  ; 38F1
38F2: CD883A  	        CALL p3A88              ; 38F2
38F5: E5      	        PUSH HL                 ; 38F5
38F6: 2A1640  	        LD HL,(xw4016)          ; 38F6
38F9: E5      	        PUSH HL                 ; 38F9
38FA: C5      	        PUSH BC                 ; 38FA
38FB: 4F      	        LD C,A                  ; 38FB
38FC: 0600    	        LD B,00H                ; 38FC
38FE: 09      	        ADD HL,BC               ; 38FE
38FF: 221640  	        LD (xw4016),HL          ; 38FF
3902: C1      	        POP BC                  ; 3902
3903: 2A0B40  	        LD HL,(xw400B)          ; 3903
3906: E5      	        PUSH HL                 ; 3906
3907: 21CC02  	        LD HL,p02CC             ; 3907 code address
390A: E5      	        PUSH HL                 ; 390A
390B: 111139  	        LD DE,p3911             ; 390B code address
390E: D5      	        PUSH DE                 ; 390E
390F: C5      	        PUSH BC                 ; 390F
3910: C9      	        RET                     ; 3910
              	
3911: CDF934  	p3911:  CALL p34F9              ; 3911
3914: E1      	        POP HL                  ; 3914
3915: 220B40  	        LD (xw400B),HL          ; 3915
3918: E1      	        POP HL                  ; 3918
3919: 221840  	        LD (xw4018),HL          ; 3919
391C: E1      	        POP HL                  ; 391C
391D: AF      	        XOR A                   ; 391D
391E: 321040  	        LD (xb4010),A           ; 391E
3921: CD723A  	        CALL p3A72              ; 3921
3924: B7      	        OR A                    ; 3924
3925: CA4939  	        JP Z,p3949              ; 3925
3928: 11483D  	        LD DE,xf3D48            ; 3928 address of buffer
392B: CD723A  	p392B:  CALL p3A72              ; 392B
392E: B7      	        OR A                    ; 392E
392F: FCEE31  	        CALL M,p31EE            ; 392F
3932: CDED3A  	        CALL p3AED              ; 3932
3935: CDD833  	        CALL p33D8              ; 3935
3938: FE0D    	        CP 0DH                  ; 3938
393A: C22B39  	        JP NZ,p392B             ; 393A
393D: E5      	        PUSH HL                 ; 393D
393E: 2A1840  	        LD HL,(xw4018)          ; 393E
3941: E5      	        PUSH HL                 ; 3941
3942: 2A0B40  	        LD HL,(xw400B)          ; 3942
3945: E5      	        PUSH HL                 ; 3945
3946: C3ED34  	        JP p34ED                ; 3946
              	
3949: 2A0B40  	p3949:  LD HL,(xw400B)          ; 3949
394C: 23      	        INC HL                  ; 394C
394D: AF      	        XOR A                   ; 394D
394E: 320640  	        LD (xb4006),A           ; 394E
3951: C3C634  	        JP p34C6                ; 3951
              	
3954: 7D      	p3954:  LD A,L                  ; 3954
3955: 93      	        SUB E                   ; 3955
3956: 5F      	        LD E,A                  ; 3956
3957: 7C      	        LD A,H                  ; 3957
3958: 9A      	        SBC A,D                 ; 3958
3959: 57      	        LD D,A                  ; 3959
395A: C9      	        RET                     ; 395A
              	
395B: 3AE43D  	p395B:  LD A,(xb3DE4)           ; 395B
395E: B7      	        OR A                    ; 395E
395F: C2C704  	        JP NZ,p04C7             ; 395F
3962: CD8320  	        CALL p2083              ; 3962
3965: 3A113E  	        LD A,(xb3E11)           ; 3965
3968: FE20    	        CP 20H                  ; 3968
396A: C0      	        RET NZ                  ; 396A
396B: 32E43D  	        LD (xb3DE4),A           ; 396B
396E: 78      	        LD A,B                  ; 396E
396F: E680    	        AND 80H                 ; 396F
3971: C29D04  	        JP NZ,p049D             ; 3971
3974: 78      	        LD A,B                  ; 3974
3975: E603    	        AND 03H                 ; 3975
3977: 32E73D  	        LD (xb3DE7),A           ; 3977
397A: 2AD23D  	        LD HL,(xw3DD2)          ; 397A
397D: EB      	        EX DE,HL                ; 397D
397E: CD5439  	        CALL p3954              ; 397E
3981: EB      	        EX DE,HL                ; 3981
3982: 22E53D  	        LD (xw3DE5),HL          ; 3982
3985: C9      	        RET                     ; 3985
              	
3986: 3AE43D  	p3986:  LD A,(xb3DE4)           ; 3986
3989: B7      	        OR A                    ; 3989
398A: CCCD04  	        CALL Z,p04CD            ; 398A
398D: AF      	        XOR A                   ; 398D
398E: 32E43D  	        LD (xb3DE4),A           ; 398E
3991: C3400B  	        JP p0B40                ; 3991
              	
3994: 212140  	p3994:  LD HL,xw4021            ; 3994
3997: 4E      	        LD C,(HL)               ; 3997
3998: 73      	        LD (HL),E               ; 3998
3999: 23      	        INC HL                  ; 3999
399A: 46      	        LD B,(HL)               ; 399A
399B: 72      	        LD (HL),D               ; 399B
399C: CDA639  	        CALL p39A6              ; 399C
399F: CDAF39  	        CALL p39AF              ; 399F
39A2: 71      	        LD (HL),C               ; 39A2
39A3: 23      	        INC HL                  ; 39A3
39A4: 70      	        LD (HL),B               ; 39A4
39A5: C9      	        RET                     ; 39A5
              	
39A6: 2A1D40  	p39A6:  LD HL,(xw401D)          ; 39A6
39A9: 19      	        ADD HL,DE               ; 39A9
39AA: 5E      	        LD E,(HL)               ; 39AA
39AB: 23      	        INC HL                  ; 39AB
39AC: 56      	        LD D,(HL)               ; 39AC
39AD: 2B      	        DEC HL                  ; 39AD
39AE: C9      	        RET                     ; 39AE
              	
39AF: 2A1D40  	p39AF:  LD HL,(xw401D)          ; 39AF
39B2: 19      	        ADD HL,DE               ; 39B2
39B3: 23      	        INC HL                  ; 39B3
39B4: 23      	        INC HL                  ; 39B4
39B5: 5E      	        LD E,(HL)               ; 39B5
39B6: 23      	        INC HL                  ; 39B6
39B7: 56      	        LD D,(HL)               ; 39B7
39B8: 2B      	        DEC HL                  ; 39B8
39B9: C9      	        RET                     ; 39B9
              	
39BA: 2A2140  	p39BA:  LD HL,(xw4021)          ; 39BA
39BD: 7D      	        LD A,L                  ; 39BD
39BE: B4      	        OR H                    ; 39BE
39BF: CACF39  	        JP Z,p39CF              ; 39BF
39C2: EB      	        EX DE,HL                ; 39C2
39C3: D5      	        PUSH DE                 ; 39C3
39C4: CDAF39  	        CALL p39AF              ; 39C4
39C7: EB      	        EX DE,HL                ; 39C7
39C8: 222140  	        LD (xw4021),HL          ; 39C8
39CB: D1      	        POP DE                  ; 39CB
39CC: C3FB39  	        JP p39FB                ; 39CC
              	
39CF: 2A1F40  	p39CF:  LD HL,(xw401F)          ; 39CF
39D2: 112000  	        LD DE,0020H             ; 39D2
39D5: EB      	        EX DE,HL                ; 39D5
39D6: 19      	        ADD HL,DE               ; 39D6
39D7: 221F40  	        LD (xw401F),HL          ; 39D7
39DA: D5      	        PUSH DE                 ; 39DA
39DB: EB      	        EX DE,HL                ; 39DB
39DC: 2A2940  	        LD HL,(xw4029)          ; 39DC
39DF: CD8D0D  	        CALL p0D8D              ; 39DF
39E2: D1      	        POP DE                  ; 39E2
39E3: DA493B  	        JP C,p3B49              ; 39E3
39E6: 2AF83F  	        LD HL,(xw3FF8)          ; 39E6
39E9: 25      	        DEC H                   ; 39E9
39EA: 3AFA3F  	        LD A,(xb3FFA)           ; 39EA
39ED: B7      	        OR A                    ; 39ED
39EE: CD8D0D  	        CALL p0D8D              ; 39EE
39F1: DA493B  	        JP C,p3B49              ; 39F1
39F4: 2A1D40  	        LD HL,(xw401D)          ; 39F4
39F7: EB      	        EX DE,HL                ; 39F7
39F8: CD5439  	        CALL p3954              ; 39F8
39FB: D5      	p39FB:  PUSH DE                 ; 39FB
39FC: CDA639  	        CALL p39A6              ; 39FC
39FF: EB      	        EX DE,HL                ; 39FF
3A00: 2A2540  	        LD HL,(xw4025)          ; 3A00
3A03: EB      	        EX DE,HL                ; 3A03
3A04: 7B      	        LD A,E                  ; 3A04
3A05: E6E0    	        AND 0E0H                ; 3A05
3A07: 5F      	        LD E,A                  ; 3A07
3A08: 7B      	        LD A,E                  ; 3A08
3A09: B2      	        OR D                    ; 3A09
3A0A: C20F3A  	        JP NZ,p3A0F             ; 3A0A
3A0D: D1      	        POP DE                  ; 3A0D
3A0E: D5      	        PUSH DE                 ; 3A0E
3A0F: 73      	p3A0F:  LD (HL),E               ; 3A0F
3A10: 23      	        INC HL                  ; 3A10
3A11: 72      	        LD (HL),D               ; 3A11
3A12: 23      	        INC HL                  ; 3A12
3A13: 3E00    	        LD A,00H                ; 3A13
3A15: 77      	        LD (HL),A               ; 3A15
3A16: 23      	        INC HL                  ; 3A16
3A17: 77      	        LD (HL),A               ; 3A17
3A18: CDAF39  	        CALL p39AF              ; 3A18
3A1B: D1      	        POP DE                  ; 3A1B
3A1C: CA253A  	        JP Z,p3A25              ; 3A1C
3A1F: 73      	        LD (HL),E               ; 3A1F
3A20: 23      	        INC HL                  ; 3A20
3A21: 72      	        LD (HL),D               ; 3A21
3A22: C32A3A  	        JP p3A2A                ; 3A22
              	
3A25: EB      	p3A25:  EX DE,HL                ; 3A25
3A26: 222340  	        LD (xw4023),HL          ; 3A26
3A29: EB      	        EX DE,HL                ; 3A29
3A2A: 2A2340  	p3A2A:  LD HL,(xw4023)          ; 3A2A
3A2D: D5      	        PUSH DE                 ; 3A2D
3A2E: EB      	        EX DE,HL                ; 3A2E
3A2F: CDA639  	        CALL p39A6              ; 3A2F
3A32: D1      	        POP DE                  ; 3A32
3A33: 73      	        LD (HL),E               ; 3A33
3A34: 23      	        INC HL                  ; 3A34
3A35: 72      	        LD (HL),D               ; 3A35
3A36: 7B      	        LD A,E                  ; 3A36
3A37: F604    	        OR 04H                  ; 3A37
3A39: 5F      	        LD E,A                  ; 3A39
3A3A: C9      	        RET                     ; 3A3A
              	
3A3B: D5      	p3A3B:  PUSH DE                 ; 3A3B
3A3C: F5      	        PUSH AF                 ; 3A3C
3A3D: 2A2540  	p3A3D:  LD HL,(xw4025)          ; 3A3D
3A40: EB      	        EX DE,HL                ; 3A40
3A41: 7B      	        LD A,E                  ; 3A41
3A42: E61F    	        AND 1FH                 ; 3A42
3A44: CCBA39  	        CALL Z,p39BA            ; 3A44
3A47: 2A1D40  	        LD HL,(xw401D)          ; 3A47
3A4A: 19      	        ADD HL,DE               ; 3A4A
3A4B: F1      	        POP AF                  ; 3A4B
3A4C: F5      	        PUSH AF                 ; 3A4C
3A4D: 77      	        LD (HL),A               ; 3A4D
3A4E: 7B      	        LD A,E                  ; 3A4E
3A4F: E61F    	        AND 1FH                 ; 3A4F
3A51: FE1F    	        CP 1FH                  ; 3A51
3A53: CA573A  	        JP Z,p3A57              ; 3A53
3A56: 13      	        INC DE                  ; 3A56
3A57: CC613A  	p3A57:  CALL Z,p3A61            ; 3A57
3A5A: EB      	        EX DE,HL                ; 3A5A
3A5B: 222540  	        LD (xw4025),HL          ; 3A5B
3A5E: F1      	        POP AF                  ; 3A5E
3A5F: D1      	        POP DE                  ; 3A5F
3A60: C9      	        RET                     ; 3A60
              	
3A61: 7B      	p3A61:  LD A,E                  ; 3A61
3A62: E6E0    	        AND 0E0H                ; 3A62
3A64: 5F      	        LD E,A                  ; 3A64
3A65: CDAF39  	        CALL p39AF              ; 3A65
3A68: 7A      	        LD A,D                  ; 3A68
3A69: B3      	        OR E                    ; 3A69
3A6A: CABA39  	        JP Z,p39BA              ; 3A6A
3A6D: 13      	        INC DE                  ; 3A6D
3A6E: 13      	        INC DE                  ; 3A6E
3A6F: 13      	        INC DE                  ; 3A6F
3A70: 13      	        INC DE                  ; 3A70
3A71: C9      	        RET                     ; 3A71
              	
3A72: D5      	p3A72:  PUSH DE                 ; 3A72
3A73: EB      	        EX DE,HL                ; 3A73
3A74: 2A1D40  	        LD HL,(xw401D)          ; 3A74
3A77: EB      	        EX DE,HL                ; 3A77
3A78: 7D      	        LD A,L                  ; 3A78
3A79: E61F    	        AND 1FH                 ; 3A79
3A7B: C2823A  	        JP NZ,p3A82             ; 3A7B
3A7E: 7D      	        LD A,L                  ; 3A7E
3A7F: F604    	        OR 04H                  ; 3A7F
3A81: 6F      	        LD L,A                  ; 3A81
3A82: EB      	p3A82:  EX DE,HL                ; 3A82
3A83: 19      	        ADD HL,DE               ; 3A83
3A84: 7E      	        LD A,(HL)               ; 3A84
3A85: EB      	        EX DE,HL                ; 3A85
3A86: D1      	        POP DE                  ; 3A86
3A87: C9      	        RET                     ; 3A87
              	
3A88: CD723A  	p3A88:  CALL p3A72              ; 3A88
3A8B: F5      	        PUSH AF                 ; 3A8B
3A8C: D5      	        PUSH DE                 ; 3A8C
3A8D: EB      	        EX DE,HL                ; 3A8D
3A8E: 7B      	        LD A,E                  ; 3A8E
3A8F: E61F    	        AND 1FH                 ; 3A8F
3A91: FE1F    	        CP 1FH                  ; 3A91
3A93: CA973A  	        JP Z,p3A97              ; 3A93
3A96: 13      	        INC DE                  ; 3A96
3A97: CC613A  	p3A97:  CALL Z,p3A61            ; 3A97
3A9A: EB      	        EX DE,HL                ; 3A9A
3A9B: D1      	        POP DE                  ; 3A9B
3A9C: F1      	        POP AF                  ; 3A9C
3A9D: C9      	        RET                     ; 3A9D
              	
3A9E: EB      	p3A9E:  EX DE,HL                ; 3A9E
3A9F: 7B      	        LD A,E                  ; 3A9F
3AA0: E6E0    	        AND 0E0H                ; 3AA0
3AA2: 5F      	        LD E,A                  ; 3AA2
3AA3: D5      	        PUSH DE                 ; 3AA3
3AA4: CDAF39  	        CALL p39AF              ; 3AA4
3AA7: 7B      	        LD A,E                  ; 3AA7
3AA8: B2      	        OR D                    ; 3AA8
3AA9: C1      	        POP BC                  ; 3AA9
3AAA: C8      	        RET Z                   ; 3AAA
3AAB: AF      	        XOR A                   ; 3AAB
3AAC: 77      	        LD (HL),A               ; 3AAC
3AAD: 23      	        INC HL                  ; 3AAD
3AAE: 77      	        LD (HL),A               ; 3AAE
3AAF: 2A1D40  	        LD HL,(xw401D)          ; 3AAF
3AB2: 19      	        ADD HL,DE               ; 3AB2
3AB3: 73      	        LD (HL),E               ; 3AB3
3AB4: 23      	        INC HL                  ; 3AB4
3AB5: 72      	        LD (HL),D               ; 3AB5
3AB6: C5      	        PUSH BC                 ; 3AB6
3AB7: CD9439  	        CALL p3994              ; 3AB7
3ABA: C1      	        POP BC                  ; 3ABA
3ABB: 2A2340  	        LD HL,(xw4023)          ; 3ABB
3ABE: EB      	        EX DE,HL                ; 3ABE
3ABF: CDA639  	        CALL p39A6              ; 3ABF
3AC2: 71      	        LD (HL),C               ; 3AC2
3AC3: 23      	        INC HL                  ; 3AC3
3AC4: 70      	        LD (HL),B               ; 3AC4
3AC5: C9      	        RET                     ; 3AC5
              	
3AC6: 2A2540  	p3AC6:  LD HL,(xw4025)          ; 3AC6
3AC9: D5      	        PUSH DE                 ; 3AC9
3ACA: EB      	        EX DE,HL                ; 3ACA
3ACB: 7B      	        LD A,E                  ; 3ACB
3ACC: E61F    	        AND 1FH                 ; 3ACC
3ACE: 1B      	        DEC DE                  ; 3ACE
3ACF: FE04    	        CP 04H                  ; 3ACF
3AD1: CCE13A  	        CALL Z,p3AE1            ; 3AD1
3AD4: 2A1D40  	        LD HL,(xw401D)          ; 3AD4
3AD7: EB      	        EX DE,HL                ; 3AD7
3AD8: 222540  	        LD (xw4025),HL          ; 3AD8
3ADB: EB      	        EX DE,HL                ; 3ADB
3ADC: 19      	        ADD HL,DE               ; 3ADC
3ADD: 7E      	        LD A,(HL)               ; 3ADD
3ADE: EB      	        EX DE,HL                ; 3ADE
3ADF: D1      	        POP DE                  ; 3ADF
3AE0: C9      	        RET                     ; 3AE0
              	
3AE1: 7B      	p3AE1:  LD A,E                  ; 3AE1
3AE2: E6E0    	        AND 0E0H                ; 3AE2
3AE4: 5F      	        LD E,A                  ; 3AE4
3AE5: CDA639  	        CALL p39A6              ; 3AE5
3AE8: 7B      	        LD A,E                  ; 3AE8
3AE9: F61F    	        OR 1FH                  ; 3AE9
3AEB: 5F      	        LD E,A                  ; 3AEB
3AEC: C9      	        RET                     ; 3AEC
              	
3AED: D5      	p3AED:  PUSH DE                 ; 3AED
3AEE: F5      	        PUSH AF                 ; 3AEE
3AEF: EB      	        EX DE,HL                ; 3AEF
3AF0: 7B      	        LD A,E                  ; 3AF0
3AF1: E61F    	        AND 1FH                 ; 3AF1
3AF3: FE1F    	        CP 1FH                  ; 3AF3
3AF5: CAF93A  	        JP Z,p3AF9              ; 3AF5
3AF8: 13      	        INC DE                  ; 3AF8
3AF9: CC613A  	p3AF9:  CALL Z,p3A61            ; 3AF9
3AFC: EB      	        EX DE,HL                ; 3AFC
3AFD: F1      	        POP AF                  ; 3AFD
3AFE: D1      	        POP DE                  ; 3AFE
3AFF: C9      	        RET                     ; 3AFF
              	
3B00: 2A1F40  	p3B00:  LD HL,(xw401F)          ; 3B00
3B03: EB      	        EX DE,HL                ; 3B03
3B04: 2AF83F  	        LD HL,(xw3FF8)          ; 3B04
3B07: 3AFA3F  	        LD A,(xb3FFA)           ; 3B07
3B0A: B7      	        OR A                    ; 3B0A
3B0B: C2123B  	        JP NZ,p3B12             ; 3B0B
3B0E: 2A2940  	        LD HL,(xw4029)          ; 3B0E
3B11: 25      	        DEC H                   ; 3B11
3B12: CD5439  	p3B12:  CALL p3954              ; 3B12
3B15: DA6F0D  	        JP C,p0D6F              ; 3B15
3B18: 7A      	        LD A,D                  ; 3B18
3B19: B7      	        OR A                    ; 3B19
3B1A: CA6F0D  	        JP Z,p0D6F              ; 3B1A
3B1D: 1F      	        RRA                     ; 3B1D
3B1E: 57      	        LD D,A                  ; 3B1E
3B1F: 7B      	        LD A,E                  ; 3B1F
3B20: 1F      	        RRA                     ; 3B20
3B21: 5F      	        LD E,A                  ; 3B21
3B22: D5      	        PUSH DE                 ; 3B22
3B23: 2A1D40  	        LD HL,(xw401D)          ; 3B23
3B26: EB      	        EX DE,HL                ; 3B26
3B27: 2A1F40  	        LD HL,(xw401F)          ; 3B27
3B2A: CD5439  	        CALL p3954              ; 3B2A
3B2D: 42      	        LD B,D                  ; 3B2D
3B2E: 4B      	        LD C,E                  ; 3B2E
3B2F: D1      	        POP DE                  ; 3B2F
3B30: 2A1F40  	        LD HL,(xw401F)          ; 3B30
3B33: EB      	        EX DE,HL                ; 3B33
3B34: 19      	        ADD HL,DE               ; 3B34
3B35: 221F40  	        LD (xw401F),HL          ; 3B35
3B38: 78      	p3B38:  LD A,B                  ; 3B38
3B39: B1      	        OR C                    ; 3B39
3B3A: CA453B  	        JP Z,p3B45              ; 3B3A
3B3D: 2B      	        DEC HL                  ; 3B3D
3B3E: 1B      	        DEC DE                  ; 3B3E
3B3F: 1A      	        LD A,(DE)               ; 3B3F
3B40: 77      	        LD (HL),A               ; 3B40
3B41: 0B      	        DEC BC                  ; 3B41
3B42: C3383B  	        JP p3B38                ; 3B42
              	
3B45: 221D40  	p3B45:  LD (xw401D),HL          ; 3B45
3B48: C9      	        RET                     ; 3B48
              	
3B49: CD4F3B  	p3B49:  CALL p3B4F              ; 3B49
3B4C: C3CF39  	        JP p39CF                ; 3B4C
              	
3B4F: D5      	p3B4F:  PUSH DE                 ; 3B4F
3B50: 2A413D  	        LD HL,(xw3D41)          ; 3B50
3B53: EB      	        EX DE,HL                ; 3B53
3B54: 2A1D40  	        LD HL,(xw401D)          ; 3B54
3B57: CD5439  	        CALL p3954              ; 3B57
3B5A: DA6F0D  	        JP C,p0D6F              ; 3B5A
3B5D: 7A      	        LD A,D                  ; 3B5D
3B5E: FE03    	        CP 03H                  ; 3B5E
3B60: DA6F0D  	        JP C,p0D6F              ; 3B60
3B63: 1F      	        RRA                     ; 3B63
3B64: 57      	        LD D,A                  ; 3B64
3B65: 7B      	        LD A,E                  ; 3B65
3B66: 1F      	        RRA                     ; 3B66
3B67: 5F      	        LD E,A                  ; 3B67
3B68: E1      	        POP HL                  ; 3B68
3B69: C5      	        PUSH BC                 ; 3B69
3B6A: E5      	        PUSH HL                 ; 3B6A
3B6B: 2A1D40  	        LD HL,(xw401D)          ; 3B6B
3B6E: EB      	        EX DE,HL                ; 3B6E
3B6F: E3      	        EX (SP),HL              ; 3B6F
3B70: CD5439  	        CALL p3954              ; 3B70
3B73: 42      	        LD B,D                  ; 3B73
3B74: 4B      	        LD C,E                  ; 3B74
3B75: D1      	        POP DE                  ; 3B75
3B76: 2A1D40  	        LD HL,(xw401D)          ; 3B76
3B79: E5      	        PUSH HL                 ; 3B79
3B7A: 2A413D  	        LD HL,(xw3D41)          ; 3B7A
3B7D: 19      	        ADD HL,DE               ; 3B7D
3B7E: E5      	        PUSH HL                 ; 3B7E
3B7F: 221D40  	        LD (xw401D),HL          ; 3B7F
3B82: 09      	        ADD HL,BC               ; 3B82
3B83: 221F40  	        LD (xw401F),HL          ; 3B83
3B86: E1      	        POP HL                  ; 3B86
3B87: D1      	        POP DE                  ; 3B87
3B88: 78      	p3B88:  LD A,B                  ; 3B88
3B89: B1      	        OR C                    ; 3B89
3B8A: CA953B  	        JP Z,p3B95              ; 3B8A
3B8D: 0B      	        DEC BC                  ; 3B8D
3B8E: 1A      	        LD A,(DE)               ; 3B8E
3B8F: 77      	        LD (HL),A               ; 3B8F
3B90: 23      	        INC HL                  ; 3B90
3B91: 13      	        INC DE                  ; 3B91
3B92: C3883B  	        JP p3B88                ; 3B92
              	
3B95: C1      	p3B95:  POP BC                  ; 3B95
3B96: C9      	        RET                     ; 3B96
              	
3B97: 32C13E  	p3B97:  LD (xb3EC1),A           ; 3B97
3B9A: 32C23E  	        LD (xb3EC2),A           ; 3B9A
3B9D: 4F      	        LD C,A                  ; 3B9D
3B9E: 0621    	        LD B,21H                ; 3B9E
3BA0: 5E      	p3BA0:  LD E,(HL)               ; 3BA0
3BA1: 23      	        INC HL                  ; 3BA1
3BA2: 56      	        LD D,(HL)               ; 3BA2
3BA3: 23      	        INC HL                  ; 3BA3
3BA4: E5      	        PUSH HL                 ; 3BA4
3BA5: C5      	        PUSH BC                 ; 3BA5
3BA6: CDB73B  	        CALL p3BB7              ; 3BA6
3BA9: C1      	        POP BC                  ; 3BA9
3BAA: E1      	        POP HL                  ; 3BAA
3BAB: 05      	        DEC B                   ; 3BAB
3BAC: C2A03B  	        JP NZ,p3BA0             ; 3BAC
3BAF: 3AC13E  	        LD A,(xb3EC1)           ; 3BAF
3BB2: B9      	        CP C                    ; 3BB2
3BB3: C45A1A  	        CALL NZ,p1A5A           ; 3BB3
3BB6: C9      	        RET                     ; 3BB6
              	
3BB7: 010000  	p3BB7:  LD BC,0000H             ; 3BB7
3BBA: C5      	        PUSH BC                 ; 3BBA
3BBB: 7A      	        LD A,D                  ; 3BBB
3BBC: B3      	        OR E                    ; 3BBC
3BBD: CAC718  	        JP Z,p18C7              ; 3BBD
3BC0: EB      	p3BC0:  EX DE,HL                ; 3BC0
3BC1: E5      	        PUSH HL                 ; 3BC1
3BC2: 5E      	        LD E,(HL)               ; 3BC2
3BC3: 23      	        INC HL                  ; 3BC3
3BC4: 56      	        LD D,(HL)               ; 3BC4
3BC5: 7B      	        LD A,E                  ; 3BC5
3BC6: B2      	        OR D                    ; 3BC6
3BC7: C2C03B  	        JP NZ,p3BC0             ; 3BC7
3BCA: E1      	p3BCA:  POP HL                  ; 3BCA
3BCB: 7D      	        LD A,L                  ; 3BCB
3BCC: B4      	        OR H                    ; 3BCC
3BCD: C8      	        RET Z                   ; 3BCD
3BCE: CDE63B  	        CALL p3BE6              ; 3BCE
3BD1: 2B      	        DEC HL                  ; 3BD1
3BD2: 2B      	        DEC HL                  ; 3BD2
3BD3: 56      	        LD D,(HL)               ; 3BD3
3BD4: 2B      	        DEC HL                  ; 3BD4
3BD5: 5E      	        LD E,(HL)               ; 3BD5
3BD6: 7B      	        LD A,E                  ; 3BD6
3BD7: B2      	        OR D                    ; 3BD7
3BD8: CACA3B  	        JP Z,p3BCA              ; 3BD8
3BDB: AF      	        XOR A                   ; 3BDB
3BDC: 77      	        LD (HL),A               ; 3BDC
3BDD: 23      	        INC HL                  ; 3BDD
3BDE: 77      	        LD (HL),A               ; 3BDE
3BDF: 2B      	        DEC HL                  ; 3BDF
3BE0: 2B      	        DEC HL                  ; 3BE0
3BE1: 2B      	        DEC HL                  ; 3BE1
3BE2: E5      	        PUSH HL                 ; 3BE2
3BE3: C3C03B  	        JP p3BC0                ; 3BE3
              	
3BE6: 010400  	p3BE6:  LD BC,0004H             ; 3BE6
3BE9: 09      	        ADD HL,BC               ; 3BE9
3BEA: 46      	        LD B,(HL)               ; 3BEA
3BEB: 23      	        INC HL                  ; 3BEB
3BEC: 223F3D  	        LD (xw3D3F),HL          ; 3BEC
3BEF: 7E      	        LD A,(HL)               ; 3BEF
3BF0: E640    	        AND 40H                 ; 3BF0
3BF2: C0      	        RET NZ                  ; 3BF2
3BF3: 23      	        INC HL                  ; 3BF3
3BF4: 7E      	        LD A,(HL)               ; 3BF4
3BF5: E680    	        AND 80H                 ; 3BF5
3BF7: C4D43C  	        CALL NZ,p3CD4           ; 3BF7
3BFA: 7E      	        LD A,(HL)               ; 3BFA
3BFB: 23      	        INC HL                  ; 3BFB
3BFC: 5E      	        LD E,(HL)               ; 3BFC
3BFD: 23      	        INC HL                  ; 3BFD
3BFE: 56      	        LD D,(HL)               ; 3BFE
3BFF: C5      	        PUSH BC                 ; 3BFF
3C00: E5      	        PUSH HL                 ; 3C00
3C01: 47      	        LD B,A                  ; 3C01
3C02: E608    	        AND 08H                 ; 3C02
3C04: C2353C  	        JP NZ,p3C35             ; 3C04
3C07: C5      	        PUSH BC                 ; 3C07
3C08: CDC03C  	        CALL p3CC0              ; 3C08
3C0B: F1      	        POP AF                  ; 3C0B
3C0C: 5F      	        LD E,A                  ; 3C0C
3C0D: E680    	        AND 80H                 ; 3C0D
3C0F: C27F3C  	        JP NZ,p3C7F             ; 3C0F
3C12: 7B      	        LD A,E                  ; 3C12
3C13: E604    	        AND 04H                 ; 3C13
3C15: C2853C  	        JP NZ,p3C85             ; 3C15
3C18: 7B      	        LD A,E                  ; 3C18
3C19: E640    	        AND 40H                 ; 3C19
3C1B: C4903C  	        CALL NZ,p3C90           ; 3C1B
3C1E: 7B      	        LD A,E                  ; 3C1E
3C1F: E6A0    	        AND 0A0H                ; 3C1F
3C21: CA883C  	        JP Z,p3C88              ; 3C21
3C24: 7B      	        LD A,E                  ; 3C24
3C25: E603    	        AND 03H                 ; 3C25
3C27: 5F      	        LD E,A                  ; 3C27
3C28: 1600    	        LD D,00H                ; 3C28
3C2A: 21661B  	        LD HL,x1B66             ; 3C2A table
3C2D: 19      	        ADD HL,DE               ; 3C2D
3C2E: 7E      	        LD A,(HL)               ; 3C2E
3C2F: CD764C  	        CALL p4C76              ; 3C2F
3C32: CD7A3C  	p3C32:  CALL p3C7A              ; 3C32
3C35: E1      	p3C35:  POP HL                  ; 3C35
3C36: C1      	        POP BC                  ; 3C36
3C37: 23      	        INC HL                  ; 3C37
3C38: 23      	        INC HL                  ; 3C38
3C39: 23      	        INC HL                  ; 3C39
3C3A: C5      	        PUSH BC                 ; 3C3A
3C3B: 7E      	p3C3B:  LD A,(HL)               ; 3C3B
3C3C: 23      	        INC HL                  ; 3C3C
3C3D: CD764C  	        CALL p4C76              ; 3C3D
3C40: 05      	        DEC B                   ; 3C40
3C41: C23B3C  	        JP NZ,p3C3B             ; 3C41
3C44: C1      	        POP BC                  ; 3C44
3C45: 3E10    	        LD A,10H                ; 3C45
3C47: 90      	        SUB B                   ; 3C47
3C48: C24C3C  	        JP NZ,p3C4C             ; 3C48
3C4B: 3C      	        INC A                   ; 3C4B
3C4C: 47      	p3C4C:  LD B,A                  ; 3C4C
3C4D: CD753C  	p3C4D:  CALL p3C75              ; 3C4D
3C50: 05      	        DEC B                   ; 3C50
3C51: C24D3C  	        JP NZ,p3C4D             ; 3C51
3C54: 21C13E  	        LD HL,xb3EC1            ; 3C54
3C57: 35      	        DEC (HL)                ; 3C57
3C58: C26D3C  	        JP NZ,p3C6D             ; 3C58
3C5B: 3AC23E  	        LD A,(xb3EC2)           ; 3C5B
3C5E: 77      	        LD (HL),A               ; 3C5E
3C5F: CD5A1A  	        CALL p1A5A              ; 3C5F
3C62: 21333D  	        LD HL,xb3D33            ; 3C62
3C65: 34      	        INC (HL)                ; 3C65
3C66: 3A323D  	        LD A,(xb3D32)           ; 3C66
3C69: BE      	        CP (HL)                 ; 3C69
3C6A: CC701A  	        CALL Z,p1A70            ; 3C6A
3C6D: 2A3F3D  	p3C6D:  LD HL,(xw3D3F)          ; 3C6D
3C70: 7E      	        LD A,(HL)               ; 3C70
3C71: F640    	        OR 40H                  ; 3C71
3C73: 77      	        LD (HL),A               ; 3C73
3C74: C9      	        RET                     ; 3C74
              	
3C75: 3E20    	p3C75:  LD A,20H                ; 3C75
3C77: C37C3C  	        JP p3C7C                ; 3C77
              	
3C7A: 3E09    	p3C7A:  LD A,09H                ; 3C7A
3C7C: C3764C  	p3C7C:  JP p4C76                ; 3C7C
              	
3C7F: 3E2A    	p3C7F:  LD A,2AH                ; 3C7F
3C81: CA      	        DB 0CAH                 ; 3C81 (JP Z,4D3E)
3C82: 3E4D    	        LD A,4DH                ; 3C82
3C84: CA      	        DB 0CAH                 ; 3C84 (JP Z,433E)
3C85: 3E43    	p3C85:  LD A,43H                ; 3C85
3C87: CA      	        DB 0CAH                 ; 3C87 (JP Z,553E)
3C88: 3E55    	p3C88:  LD A,55H                ; 3C88
3C8A: CD764C  	        CALL p4C76              ; 3C8A
3C8D: C3323C  	        JP p3C32                ; 3C8D
              	
3C90: D5      	p3C90:  PUSH DE                 ; 3C90
3C91: C5      	        PUSH BC                 ; 3C91
3C92: 2A3F3D  	        LD HL,(xw3D3F)          ; 3C92
3C95: E5      	        PUSH HL                 ; 3C95
3C96: 23      	        INC HL                  ; 3C96
3C97: 7B      	        LD A,E                  ; 3C97
3C98: E603    	        AND 03H                 ; 3C98
3C9A: 47      	        LD B,A                  ; 3C9A
3C9B: 0E07    	        LD C,07H                ; 3C9B
3C9D: 23      	        INC HL                  ; 3C9D
3C9E: 5E      	        LD E,(HL)               ; 3C9E
3C9F: 23      	        INC HL                  ; 3C9F
3CA0: 56      	        LD D,(HL)               ; 3CA0
3CA1: 23      	        INC HL                  ; 3CA1
3CA2: D5      	        PUSH DE                 ; 3CA2
3CA3: 5E      	        LD E,(HL)               ; 3CA3
3CA4: 23      	        INC HL                  ; 3CA4
3CA5: 56      	        LD D,(HL)               ; 3CA5
3CA6: EB      	        EX DE,HL                ; 3CA6
3CA7: 22DE3D  	        LD (xw3DDE),HL          ; 3CA7
3CAA: D1      	        POP DE                  ; 3CAA
3CAB: CD831B  	        CALL p1B83              ; 3CAB
3CAE: E1      	        POP HL                  ; 3CAE
3CAF: 223F3D  	        LD (xw3D3F),HL          ; 3CAF
3CB2: 23      	        INC HL                  ; 3CB2
3CB3: 7E      	        LD A,(HL)               ; 3CB3
3CB4: E620    	        AND 20H                 ; 3CB4
3CB6: C4A91B  	        CALL NZ,p1BA9           ; 3CB6
3CB9: C1      	        POP BC                  ; 3CB9
3CBA: D1      	        POP DE                  ; 3CBA
3CBB: 3E49    	        LD A,49H                ; 3CBB
3CBD: C3764C  	        JP p4C76                ; 3CBD
              	
3CC0: 21113E  	p3CC0:  LD HL,xb3E11            ; 3CC0
3CC3: 220F3E  	        LD (xw3E0F),HL          ; 3CC3
3CC6: CDC918  	        CALL p18C9              ; 3CC6
3CC9: 2A0F3E  	        LD HL,(xw3E0F)          ; 3CC9
3CCC: 3600    	        LD (HL),00H             ; 3CCC
3CCE: 21113E  	        LD HL,xb3E11            ; 3CCE
3CD1: C3D51A  	        JP p1AD5                ; 3CD1
              	
3CD4: C5      	p3CD4:  PUSH BC                 ; 3CD4
3CD5: E5      	        PUSH HL                 ; 3CD5
3CD6: 7E      	        LD A,(HL)               ; 3CD6
3CD7: E603    	        AND 03H                 ; 3CD7
3CD9: 47      	        LD B,A                  ; 3CD9
3CDA: 0E06    	        LD C,06H                ; 3CDA
3CDC: 23      	        INC HL                  ; 3CDC
3CDD: 5E      	        LD E,(HL)               ; 3CDD
3CDE: 23      	        INC HL                  ; 3CDE
3CDF: 56      	        LD D,(HL)               ; 3CDF
3CE0: CDA91B  	        CALL p1BA9              ; 3CE0
3CE3: E1      	        POP HL                  ; 3CE3
3CE4: C1      	        POP BC                  ; 3CE4
3CE5: C9      	        RET                     ; 3CE5
              	;=====================================
3CE6: 00      	xb3CE6: DB 0                    ; 3CE6
3CE7: 00      	xb3CE7: DB 0                    ; 3CE7
3CE8: 00      	xb3CE8: DB 0                    ; 3CE8
3CE9: 00      	xb3CE9: DB 0                    ; 3CE9
3CEA: 00      	xb3CEA: DB 0                    ; 3CEA
3CEB: 00      	xb3CEB: DB 0                    ; 3CEB
3CEC: 00      	xb3CEC: DB 0                    ; 3CEC
3CED: 0000    	xw3CED: DW 0                    ; 3CED
3CEF: 0000    	xw3CEF: DW 0                    ; 3CEF
3CF1: 00      	xb3CF1: DB 0                    ; 3CF1
3CF2: 00      	xb3CF2: DB 0                    ; 3CF2
3CF3: 00      	xb3CF3: DB 0                    ; 3CF3
3CF4: 00      	xb3CF4: DB 0                    ; 3CF4
3CF5: 00      	xb3CF5: DB 0                    ; 3CF5
3CF6: FFFFFFFF	xf3CF6: DS 50                   ; 3CF5 space
3CFA: FF...   	
3D28: 00      	xb3D28: DB 0                    ; 3D28
3D29: 00      	xb3D29: DB 0                    ; 3D29
3D2A: 00      	xb3D2A: DB 0                    ; 3D2A
3D2B: 00      	xb3D2B: DB 0                    ; 3D2B
3D2C: 00      	xb3D2C: DB 0                    ; 3D2C
3D2D: 00      	xb3D2D: DB 0                    ; 3D2D
3D2E: 00      	xb3D2E: DB 0                    ; 3D2E
3D2F: 00      	xb3D2F: DB 0                    ; 3D2F
3D30: 00      	xb3D30: DB 0                    ; 3D30
3D31: 00      	xb3D31: DB 0                    ; 3D31
3D32: 00      	xb3D32: DB 0                    ; 3D32
3D33: 00      	xb3D33: DB 0                    ; 3D33
3D34: 0000    	xw3D34: DW 0                    ; 3D34
3D36: 0000    	xw3D36: DW 0                    ; 3D36
3D38: 00      	xb3D38: DB 0                    ; 3D38
3D39: 00000000	xf3D39: DB 0,0,0,0,0,0          ; 3D39 space
3D3D: 0000    	
3D3F: 0000    	xw3D3F: DW 0                    ; 3D3F
3D41: 0000    	xw3D41: DW 0                    ; 3D41
3D43: 0000    	xw3D43: DW 0                    ; 3D43
3D45: 00      	xb3D45: DB 0                    ; 3D45
3D46: 0000    	xw3D46: DW 0                    ; 3D46 buf1 ptr
3D48: FFFFFFFF	xf3D48: DS 130                  ; 3D47 buf1
3D4C: FF...   	
              	
3DCA: 00000000	xf3DCA: DB 0,0,0,0,0,0,0        ; 3DCA buf2
3DCE: 000000  	
3DD1: 00      	xb3DD1: DB 0                    ; 3DD1
3DD2: 0000    	xw3DD2: DW 0                    ; 3DD2
3DD4: 0000    	xw3DD4: DW 0                    ; 3DD4
3DD6: 0000    	xw3DD6: DW 0                    ; 3DD6
3DD8: 0000    	xw3DD8: DW 0                    ; 3DD8
3DDA: 0000    	xw3DDA: DW 0                    ; 3DDA
3DDC: 0000    	xw3DDC: DW 0                    ; 3DDC
3DDE: 0000    	xw3DDE: DW 0                    ; 3DDE
3DE0: 0000    	xw3DE0: DW 0                    ; 3DE0
3DE2: 00      	xb3DE2: DB 0                    ; 3DE2
3DE3: 00      	xb3DE3: DB 0                    ; 3DE3
3DE4: 00      	xb3DE4: DB 0                    ; 3DE4
3DE5: 0000    	xw3DE5: DW 0                    ; 3DE5
3DE7: 00      	xb3DE7: DB 0                    ; 3DE7
3DE8: 00      	xb3DE8: DB 0                    ; 3DE8
3DE9: 00      	xb3DE9: DB 0                    ; 3DE9
3DEA: 00      	xb3DEA: DB 0                    ; 3DEA
3DEB: FFFFFFFF	xf3DEB: DS 17                   ; 3DEB buf3
3DEF: FF...   	
3DFC: FFFFFFFF	xf3DFC: DS 19                   ; 3DFC buf4
3E00: FF...   	
3E0F: 0000    	xw3E0F: DW 0                    ; 3E0F
3E11: 0000    	xb3E11: DB 0,0                  ; 3E11
3E13: FFFFFFFF	xf3E13: DS 8                    ; 3E13 buf5
3E17: FFFFFFFF	
3E1B: FFFFFFFF	xf3E1B: DS 8                    ; 3E1B buf6
3E1F: FFFFFFFF	
3E23: FFFFFFFF	xf3E23: DS 4                    ; 3E23 buf7
3E27: FFFFFF  	xf3E27: DS 3                    ; 3E27 buf8
3E2A: 00      	xb3E2A: DB 0                    ; 3E2A
3E2B: 00000000	xf3E2B: DB 0,0,0,0,0,0          ; 3E2B buf9
3E2F: 0000    	
3E31: FFFFFFFF	xf3E31: DS 80                   ; 3E31 buf10
3E35: FF...   	
              	
3E81: FFFFFFFF	xf3E81: DS 60                   ; 3E81 buf11
3E85: FF...   	
3EBD: 00      	xb3EBD: DB 0                    ; 3EBD
3EBE: 00      	xb3EBE: DB 0                    ; 3EBE
3EBF: 0000    	xw3EBF: DW 0                    ; 3EBF
3EC1: 00      	xb3EC1: DB 0                    ; 3EC1
3EC2: 00      	xb3EC2: DB 0                    ; 3EC2
3EC3: 00      	xb3EC3: DB 0                    ; 3EC3
3EC4: 00      	xb3EC4: DB 0                    ; 3EC4
3EC5: 00      	xb3EC5: DB 0                    ; 3EC5
3EC6: 00      	xb3EC6: DB 0                    ; 3EC6
3EC7: 00      	xb3EC7: DB 0                    ; 3EC7
3EC8: 0000    	xw3EC8: DW 0                    ; 3EC8
3ECA: 0000    	xw3ECA: DW 0                    ; 3ECA
3ECC: 00      	xb3ECC: DB 0                    ; 3ECC
3ECD: 00      	xb3ECD: DB 0                    ; 3ECD
3ECE: FFFFFFFF	xf3ECE: DS 5                    ; 3ECE buf12
3ED2: FF      	
3ED3: 00      	xb3ED3: DB 0                    ; 3ED3
3ED4: 00      	xb3ED4: DB 0                    ; 3ED4
3ED5: FFFFFFFF	xf3ED5: DS 64                   ; 3ED5 buf13
3ED9: FF...   	
3F15: FFFFFFFF	xf3F15: DS 65                   ; 3F15 buf14
3F19: FF...   	
3F56: 00      	xb3F56: DB 0                    ; 3F56
3F57: 00      	xb3F57: DB 0                    ; 3F57
3F58: 00      	xb3F58: DB 0                    ; 3F58
3F59: 0000    	xw3F59: DW 0                    ; 3F59
3F5B: 00      	xb3F5B: DB 0                    ; 3F5B
3F5C: 00      	xb3F5C: DB 0                    ; 3F5C
3F5D: FFFFFFFF	xf3F5D: DS 10                   ; 3F5D buf15
3F61: FF...   	
3F67: 000000  	xf3F67: DB 0,0,0                ; 3F67 space
3F6A: 000000  	xf3F6A: DB 0,0,0                ; 3F6A space
3F6D: 00      	xb3F6D: DB 0                    ; 3F6D
3F6E: 0000    	xw3F6E: DW 0                    ; 3F6E
3F70: 0000    	xw3F70: DW 0                    ; 3F70
              	
3F72: FFFFFFFF	xf3F72: DS 66
3F76: FF...   	
3FB4: FFFFFFFF	xf3FB4: DS 66
3FB8: FF...   	
3FF6: 0000    	xw3FF6: DW 0                    ; 3FF6
3FF8: 0000    	xw3FF8: DW 0                    ; 3FF8
3FFA: 00      	xb3FFA: DB 0                    ; 3FFA
3FFB: 00      	xb3FFB: DB 0                    ; 3FFB
3FFC: 00      	xb3FFC: DB 0                    ; 3FFC
3FFD: 0000    	xw3FFD: DW 0                    ; 3FFD
3FFF: 0000    	xw3FFF: DW 0                    ; 3FFF
4001: 0000    	xw4001: DW 0                    ; 4001
4003: 0000    	xw4003: DW 0                    ; 4003
4005: 00      	xb4005: DB 0                    ; 4005
4006: 00      	xb4006: DB 0                    ; 4006
4007: 0000    	xw4007: DW 0                    ; 4007
4009: 0000    	xw4009: DW 0                    ; 4009
400B: 0000    	xw400B: DW 0                    ; 400B
400D: 00      	xb400D: DB 0                    ; 400D
400E: 00      	xb400E: DB 0                    ; 400E
400F: 00      	xb400F: DB 0                    ; 400F
4010: 00      	xb4010: DB 0                    ; 4010
4011: 0000    	xw4011: DW 0                    ; 4011
4013: 0000    	xw4013: DW 0                    ; 4013
4015: 00      	xb4015: DB 0                    ; 4015
4016: 0000    	xw4016: DW 0                    ; 4016
4018: 0000    	xw4018: DW 0                    ; 4018
401A: 00      	xb401A: DB 0                    ; 401A
401B: 0000    	xw401B: DW 0                    ; 401B
401D: 0000    	xw401D: DW 0                    ; 401D
401F: 0000    	xw401F: DW 0                    ; 401F
4021: 0000    	xw4021: DW 0                    ; 4021
4023: 0000    	xw4023: DW 0                    ; 4023
4025: 0000    	xw4025: DW 0                    ; 4025
4027: 0000    	xw4027: DW 0                    ; 4027
4029: 0000    	xw4029: DW 0                    ; 4029
              	;=====================================
402B: 514107  	xt402B: DB 51H,'A',07H
402E: 514200  	        DB 51H,'B',00H
4031: 514301  	        DB 51H,'C',01H
4034: 514402  	        DB 51H,'D',02H
4037: 514503  	        DB 51H,'E',03H
403A: 514804  	        DB 51H,'H',04H
403D: 514C05  	        DB 51H,'L',05H
4040: 514D06  	        DB 51H,'M',06H
4043: 62535006	        DB 62H,'SP',06H
4047: 63505357	        DB 63H,'PSW',06H
404B: 06      	
404C: 514908  	        DB 51H,'I',08H
404F: 515209  	        DB 51H,'R',09H
4052: 62424300	        DB 62H,'BC',00H
4056: 62444502	        DB 62H,'DE',02H
405A: 62484C04	        DB 62H,'HL',04H
405E: 62414606	        DB 62H,'AF',06H
4062: 6A495844	        DB 6AH,'IX',44H
4066: 6A495964	        DB 6AH,'IY',64H
406A: 724E5A00	        DB 72H,'NZ',00H
406E: 715A01  	        DB 71H,'Z',01H
4071: 724E4302	        DB 72H,'NC',02H
4075: 715006  	        DB 71H,'P',06H
4078: 72504F04	        DB 72H,'PO',04H
407C: 72504505	        DB 72H,'PE',05H
4080: 00      	        DB 0
              	;=====================================
4081: 00      	xb4081: DB 0                    ; 4081
4082: 0000    	xw4082: DW 0                    ; 4082
4084: 00      	xb4084: DB 0                    ; 4084
4085: 00      	xb4085: DB 0                    ; 4085
4086: 00      	xb4086: DB 0                    ; 4086
4087: 00      	xb4087: DB 0                    ; 4087
4088: 00      	xb4088: DB 0                    ; 4088
4089: 00      	xb4089: DB 0                    ; 4089
408A: 00      	xb408A: DB 0                    ; 408A
408B: 00      	xb408B: DB 0                    ; 408B
408C: 00      	xb408C: DB 0                    ; 408C
408D: 00      	xb408D: DB 0                    ; 408D
408E: 00      	xb408E: DB 0                    ; 408E
408F: 00      	xb408F: DB 0                    ; 408F
4090: 00      	xb4090: DB 0                    ; 4090
4091: 00      	xb4091: DB 0                    ; 4091
4092: 00      	xb4092: DB 0                    ; 4092
4093: FFFFFFFF	xf4093: DS 33                   ; 4093 buffer
4097: FF...   	
40B4: FFFFFFFF	xf40B4: DS 9                    ; 40B4 buffer
40B8: FF...   	
40BD: FFFFFFFF	xf40BD: DS 24                   ; 40BD buffer
40C1: FF...   	
40D5: FFFFFFFF	xf40D5: DS 87                   ; 40D5 FCB address
40D9: FF...   	
412C: 00      	xb412C: DB 0                    ; 412C
412D: FFFFFFFF	xf412D: DS 8                    ; 412D buffer
4131: FFFFFFFF	
4135: 000000  	xf4135: DB 0,0,0                ; 4135
              	
4138: 52454C  	xs4138: DB 'REL'
413B: 435246  	xs413B: DB 'CRF'
413E: 50524E  	xs413E: DB 'PRN'
              	
4141: 00      	xb4141: DB 0                    ; 4141
4142: 00      	xb4142: DB 0                    ; 4142
              	
4143: FFFFFFFF	xf4143: DS 256                  ; 4143
4147: FF...   	
              	
4243: 00      	xb4243: DB 0                    ; 4243
4244: 00      	xb4244: DB 0                    ; 4244
              	
4245: FFFFFFFF	xf4245: DS 512
4249: FF...   	
              	
4445: 00      	xb4445: DB 0                    ; 4445
4446: 00      	xb4446: DB 0                    ; 4446
4447: FFFFFFFF	xf4447: DS 10                   ; 4447
444B: FF...   	
4451: FFFFFFFF	xf4451: DS 502                  ; 4451
4455: FF...   	
4647: 50      	xb4647: DB 50H                  ; 4647
4648: 00      	xb4648: DB 00H                  ; 4648
4649: FFFFFFFF	xf4649: DS 80                   ; 4649
464D: FF...   	
              	
4699: 0000    	xw4699: DW 0                    ; 4699
              	;=====================================
469B: 3F436F6D	xs469B: DB "?Command error",0
469F: 6D616E64	
46A3: 20657272	
46A7: 6F7200  	
46AA: 3F46696C	xs46AA: DB "?File not found",0
46AE: 65206E6F	
46B2: 7420666F	
46B6: 756E6400	
46BA: 3F43616E	xs46BA: DB "?Can't enter file",0
46BE: 27742065	
46C2: 6E746572	
46C6: 2066696C	
46CA: 6500    	
              	;=====================================
46CC: 7E      	p46CC:  LD A,(HL)               ; 46CC
46CD: E67F    	        AND 7FH                 ; 46CD
46CF: C8      	        RET Z                   ; 46CF
46D0: CDEE4A  	        CALL p4AEE              ; 46D0
46D3: 23      	        INC HL                  ; 46D3
46D4: C3CC46  	        JP p46CC                ; 46D4
              	
46D7: 219B46  	p46D7:  LD HL,xs469B            ; 46D7 message
46DA: C3E646  	        JP p46E6                ; 46DA
              	
46DD: 21AA46  	p46DD:  LD HL,xs46AA            ; 46DD message
46E0: C3E646  	        JP p46E6                ; 46E0
              	
46E3: 21BA46  	p46E3:  LD HL,xs46BA            ; 46E3 message
46E6: CDCC46  	p46E6:  CALL p46CC              ; 46E6
46E9: C35847  	        JP p4758                ; 46E9
              	
46EC: 434F4D53	        DB "COMSCN"             ; 46EC
46F0: 434E    	
              	
46F2: 00      	x46F2:  DB 00H                  ; 46F2 cold start flag
46F3: FFFFFFFF	        DS 23
46F7: FF...   	
470A: F2      	xb470A: DB 0F2H                 ; Address 46F2
470B: 46      	xb470B: DB 46H
              	
              	; Start up code
              	
470C: 222C41  	p470C:  LD (xb412C),HL          ; 470C save address
470F: 11F246  	        LD DE,x46F2             ; 470F
4712: 1A      	        LD A,(DE)               ; 4712
4713: B7      	        OR A                    ; 4713 cold start?
4714: CA3C47  	        JP Z,p473C              ; 4714 yes - jump
4717: 3A0B47  	        LD A,(xb470B)           ; 4717
471A: 47      	        LD B,A                  ; 471A
471B: 3A0A47  	p471B:  LD A,(xb470A)           ; 471B
471E: 4F      	        LD C,A                  ; 471E
471F: 2A0600  	        LD HL,(p0006)           ; 471F address in CP/M call
4722: 2E00    	        LD L,00H                ; 4722
4724: 1A      	p4724:  LD A,(DE)               ; 4724
4725: BE      	        CP (HL)                 ; 4725
4726: C23247  	        JP NZ,p4732             ; 4726
4729: 23      	        INC HL                  ; 4729
472A: 13      	        INC DE                  ; 472A
472B: 0D      	        DEC C                   ; 472B
472C: C22447  	        JP NZ,p4724             ; 472C
472F: C33C47  	        JP p473C                ; 472F
              	
4732: 13      	p4732:  INC DE                  ; 4732
4733: 0D      	        DEC C                   ; 4733
4734: C23247  	        JP NZ,p4732             ; 4734
4737: 05      	        DEC B                   ; 4737
4738: C8      	        RET Z                   ; 4738
4739: C31B47  	        JP p471B                ; 4739
              	
473C: AF      	p473C:  XOR A                   ; 473C
473D: 32F246  	        LD (x46F2),A            ; 473D
4740: 2A0600  	        LD HL,(p0006)           ; 4740 address in CP/M call
4743: 2B      	        DEC HL                  ; 4743
4744: F9      	        LD SP,HL                ; 4744 init. stack
4745: 2B      	        DEC HL                  ; 4745
4746: 2B      	        DEC HL                  ; 4746
4747: 228240  	        LD (xw4082),HL          ; 4747
474A: 2A2C41  	        LD HL,(xb412C)          ; 474A
474D: E5      	        PUSH HL                 ; 474D
474E: 3A8E40  	        LD A,(xb408E)           ; 474E
4751: B7      	        OR A                    ; 4751
4752: C20000  	        JP NZ,p0000             ; 4752
4755: 328540  	        LD (xb4085),A           ; 4755
4758: 2A8240  	p4758:  LD HL,(xw4082)          ; 4758
475B: F9      	        LD SP,HL                ; 475B
475C: CD4B4A  	        CALL p4A4B              ; 475C
475F: 3A4946  	        LD A,(xf4649)           ; 475F
4762: FE0D    	        CP 0DH                  ; 4762
4764: CA5847  	        JP Z,p4758              ; 4764
4767: AF      	        XOR A                   ; 4767 clear data
4768: 329240  	        LD (xb4092),A           ; 4768
476B: 328940  	        LD (xb4089),A           ; 476B
476E: 329040  	        LD (xb4090),A           ; 476E
4771: 328F40  	        LD (xb408F),A           ; 4771
4774: 328C40  	        LD (xb408C),A           ; 4774
4777: 328D40  	        LD (xb408D),A           ; 4777
477A: 328B40  	        LD (xb408B),A           ; 477A
477D: 329140  	        LD (xb4091),A           ; 477D
4780: 3C      	        INC A                   ; 4780
4781: 328A40  	        LD (xb408A),A           ; 4781
4784: 328840  	        LD (xb4088),A           ; 4784
4787: 01D746  	        LD BC,p46D7             ; 4787 spoofed return address
478A: C5      	        PUSH BC                 ; 478A
478B: AF      	        XOR A                   ; 478B
478C: 328140  	        LD (xb4081),A           ; 478C
478F: CDE148  	        CALL p48E1              ; 478F
4792: D8      	        RET C                   ; 4792
4793: 113841  	        LD DE,xs4138            ; 4793 'REL'
4796: CDC448  	        CALL p48C4              ; 4796
4799: 112D41  	        LD DE,xf412D            ; 4799
479C: 1A      	        LD A,(DE)               ; 479C
479D: FE20    	        CP 20H                  ; 479D
479F: C2A747  	        JP NZ,p47A7             ; 479F
47A2: 3E80    	        LD A,80H                ; 47A2
47A4: 328140  	        LD (xb4081),A           ; 47A4
47A7: E5      	p47A7:  PUSH HL                 ; 47A7
47A8: 219340  	        LD HL,xf4093            ; 47A8 address
47AB: CDB848  	        CALL p48B8              ; 47AB
47AE: E1      	        POP HL                  ; 47AE
47AF: 3E20    	        LD A,20H                ; 47AF
47B1: 322D41  	        LD (xf412D),A           ; 47B1
47B4: 323541  	        LD (xf4135),A           ; 47B4
47B7: AF      	        XOR A                   ; 47B7
47B8: 322C41  	        LD (xb412C),A           ; 47B8
47BB: 79      	        LD A,C                  ; 47BB
47BC: D62C    	        SUB 2CH                 ; 47BC
47BE: B7      	        OR A                    ; 47BE
47BF: 328B40  	        LD (xb408B),A           ; 47BF
47C2: C2D147  	        JP NZ,p47D1             ; 47C2
47C5: 3A8140  	        LD A,(xb4081)           ; 47C5
47C8: EE80    	        XOR 80H                 ; 47C8
47CA: 328B40  	        LD (xb408B),A           ; 47CA
47CD: CDE148  	        CALL p48E1              ; 47CD
47D0: D8      	        RET C                   ; 47D0
47D1: 113E41  	p47D1:  LD DE,xs413E            ; 47D1 'PRN'
47D4: 3A8C40  	        LD A,(xb408C)           ; 47D4
47D7: B7      	        OR A                    ; 47D7
47D8: CADE47  	        JP Z,p47DE              ; 47D8
47DB: 113B41  	        LD DE,xs413B            ; 47DB 'CRF'
47DE: CDC448  	p47DE:  CALL p48C4              ; 47DE
47E1: 112D41  	        LD DE,xf412D            ; 47E1
47E4: 3A2C41  	        LD A,(xb412C)           ; 47E4
47E7: 328740  	        LD (xb4087),A           ; 47E7
47EA: 1A      	        LD A,(DE)               ; 47EA
47EB: D620    	        SUB 20H                 ; 47EB
47ED: 328640  	        LD (xb4086),A           ; 47ED
47F0: C2FB47  	        JP NZ,p47FB             ; 47F0
47F3: 3A8140  	        LD A,(xb4081)           ; 47F3
47F6: C640    	        ADD A,40H               ; 47F6
47F8: 328140  	        LD (xb4081),A           ; 47F8
47FB: E5      	p47FB:  PUSH HL                 ; 47FB
47FC: 21B440  	        LD HL,xf40B4            ; 47FC
47FF: CDB848  	        CALL p48B8              ; 47FF
4802: E1      	        POP HL                  ; 4802
4803: 79      	        LD A,C                  ; 4803
4804: FE3D    	        CP 3DH                  ; 4804
4806: 37      	        SCF                     ; 4806
4807: C0      	        RET NZ                  ; 4807
4808: CDE148  	        CALL p48E1              ; 4808
480B: FE0D    	        CP 0DH                  ; 480B
480D: 37      	        SCF                     ; 480D
480E: C0      	        RET NZ                  ; 480E
480F: 110601  	        LD DE,xs0106            ; 480F 'MAC'
4812: CDC448  	        CALL p48C4              ; 4812
4815: 112C41  	        LD DE,xb412C            ; 4815
4818: 1A      	        LD A,(DE)               ; 4818
4819: 13      	        INC DE                  ; 4819
481A: B7      	        OR A                    ; 481A
481B: FA2348  	        JP M,p4823              ; 481B
481E: 1A      	        LD A,(DE)               ; 481E
481F: FE20    	        CP 20H                  ; 481F
4821: 37      	        SCF                     ; 4821
4822: C8      	        RET Z                   ; 4822
4823: E5      	p4823:  PUSH HL                 ; 4823
4824: 21D540  	        LD HL,xf40D5            ; 4824 address
4827: CDB848  	        CALL p48B8              ; 4827
482A: E1      	        POP HL                  ; 482A
482B: 3A8140  	        LD A,(xb4081)           ; 482B
482E: 87      	        ADD A,A                 ; 482E
482F: 219340  	        LD HL,xf4093            ; 482F address
4832: DC9848  	        CALL C,p4898            ; 4832
4835: 87      	        ADD A,A                 ; 4835
4836: 21B440  	        LD HL,xf40B4            ; 4836
4839: F5      	        PUSH AF                 ; 4839
483A: 3A8C40  	        LD A,(xb408C)           ; 483A
483D: B7      	        OR A                    ; 483D
483E: CA5348  	        JP Z,p4853              ; 483E
4841: 11BD40  	        LD DE,xf40BD            ; 4841 address
4844: 013B41  	        LD BC,xs413B            ; 4844 'CRF'
4847: 3E03    	        LD A,03H                ; 4847
4849: F5      	p4849:  PUSH AF                 ; 4849
484A: 0A      	        LD A,(BC)               ; 484A
484B: 12      	        LD (DE),A               ; 484B
484C: 13      	        INC DE                  ; 484C
484D: 03      	        INC BC                  ; 484D
484E: F1      	        POP AF                  ; 484E
484F: 3D      	        DEC A                   ; 484F
4850: C24948  	        JP NZ,p4849             ; 4850
4853: F1      	p4853:  POP AF                  ; 4853
4854: DC9848  	        CALL C,p4898            ; 4854
4857: 3A8940  	        LD A,(xb4089)           ; 4857
485A: B7      	        OR A                    ; 485A
485B: C26848  	        JP NZ,p4868             ; 485B
485E: 3A8640  	        LD A,(xb4086)           ; 485E
4861: B7      	        OR A                    ; 4861
4862: C26848  	        JP NZ,p4868             ; 4862
4865: 3A8740  	        LD A,(xb4087)           ; 4865
4868: 328940  	p4868:  LD (xb4089),A           ; 4868
              	
              	; Return current disk
              	
486B: 0E19    	        LD C,25                 ; 486B
486D: CD0500  	        CALL p0005              ; 486D
4870: F5      	        PUSH AF                 ; 4870
              	
              	; Reset disk system
              	
4871: 0E0D    	        LD C,13                 ; 4871
4873: CD0500  	        CALL p0005              ; 4873
4876: F1      	        POP AF                  ; 4876
4877: 5F      	        LD E,A                  ; 4877
              	
              	; Select disk
              	
4878: 0E0E    	        LD C,14                 ; 4878
487A: CD0500  	        CALL p0005              ; 487A
487D: AF      	        XOR A                   ; 487D
487E: 328000  	        LD (x0080),A            ; 487E
4881: CD844B  	        CALL p4B84              ; 4881
4884: CD254B  	        CALL p4B25              ; 4884
4887: CD3B4B  	        CALL p4B3B              ; 4887
488A: E1      	        POP HL                  ; 488A
488B: 2A8240  	        LD HL,(xw4082)          ; 488B
488E: 23      	        INC HL                  ; 488E
488F: 23      	        INC HL                  ; 488F
4890: 3A8A40  	        LD A,(xb408A)           ; 4890
4893: 328540  	        LD (xb4085),A           ; 4893
4896: 47      	        LD B,A                  ; 4896
4897: C9      	        RET                     ; 4897
              	
4898: F5      	p4898:  PUSH AF                 ; 4898
4899: 112C41  	        LD DE,xb412C            ; 4899
489C: 0E09    	        LD C,09H                ; 489C
489E: 7E      	        LD A,(HL)               ; 489E
489F: B7      	        OR A                    ; 489F
48A0: C2B248  	        JP NZ,p48B2             ; 48A0
48A3: 1A      	        LD A,(DE)               ; 48A3
48A4: B7      	        OR A                    ; 48A4
48A5: FAB248  	        JP M,p48B2              ; 48A5
48A8: 1A      	p48A8:  LD A,(DE)               ; 48A8
48A9: 77      	        LD (HL),A               ; 48A9
48AA: 23      	        INC HL                  ; 48AA
48AB: 13      	        INC DE                  ; 48AB
48AC: 0D      	        DEC C                   ; 48AC
48AD: C2A848  	        JP NZ,p48A8             ; 48AD
48B0: F1      	p48B0:  POP AF                  ; 48B0
48B1: C9      	        RET                     ; 48B1
              	
48B2: 0D      	p48B2:  DEC C                   ; 48B2
48B3: 23      	        INC HL                  ; 48B3
48B4: 13      	        INC DE                  ; 48B4
48B5: C3A848  	        JP p48A8                ; 48B5
              	
48B8: 1B      	p48B8:  DEC DE                  ; 48B8
48B9: 060C    	        LD B,0CH                ; 48B9
48BB: 1A      	p48BB:  LD A,(DE)               ; 48BB
48BC: 77      	        LD (HL),A               ; 48BC
48BD: 23      	        INC HL                  ; 48BD
48BE: 13      	        INC DE                  ; 48BE
48BF: 05      	        DEC B                   ; 48BF
48C0: C2BB48  	        JP NZ,p48BB             ; 48C0
48C3: C9      	        RET                     ; 48C3
              	
48C4: 3A8440  	p48C4:  LD A,(xb4084)           ; 48C4
48C7: B7      	        OR A                    ; 48C7
48C8: C8      	        RET Z                   ; 48C8
48C9: E5      	        PUSH HL                 ; 48C9
48CA: 213541  	        LD HL,xf4135            ; 48CA
48CD: 7E      	        LD A,(HL)               ; 48CD
48CE: FE20    	        CP 20H                  ; 48CE
48D0: C2DF48  	        JP NZ,p48DF             ; 48D0
48D3: 0603    	        LD B,03H                ; 48D3
48D5: 1A      	p48D5:  LD A,(DE)               ; 48D5
48D6: E67F    	        AND 7FH                 ; 48D6
48D8: 77      	        LD (HL),A               ; 48D8
48D9: 23      	        INC HL                  ; 48D9
48DA: 13      	        INC DE                  ; 48DA
48DB: 05      	        DEC B                   ; 48DB
48DC: C2D548  	        JP NZ,p48D5             ; 48DC
48DF: E1      	p48DF:  POP HL                  ; 48DF
48E0: C9      	        RET                     ; 48E0
              	
48E1: CD2A4A  	p48E1:  CALL p4A2A              ; 48E1
48E4: FE3A    	        CP 3AH                  ; 48E4
48E6: 37      	        SCF                     ; 48E6
48E7: 3E00    	        LD A,00H                ; 48E7
48E9: C20549  	        JP NZ,p4905             ; 48E9
48EC: 78      	        LD A,B                  ; 48EC
48ED: B7      	        OR A                    ; 48ED
48EE: CAE148  	        JP Z,p48E1              ; 48EE
48F1: EB      	        EX DE,HL                ; 48F1
48F2: CDD74A  	        CALL p4AD7              ; 48F2
48F5: 4F      	        LD C,A                  ; 48F5
48F6: 78      	        LD A,B                  ; 48F6
48F7: 3D      	        DEC A                   ; 48F7
48F8: 79      	        LD A,C                  ; 48F8
48F9: C22649  	        JP NZ,p4926             ; 48F9
48FC: FE5B    	        CP 5BH                  ; 48FC
48FE: D0      	        RET NC                  ; 48FE
48FF: FE41    	        CP 41H                  ; 48FF
4901: D8      	        RET C                   ; 4901
4902: D640    	        SUB 40H                 ; 4902
4904: EB      	        EX DE,HL                ; 4904
4905: 322C41  	p4905:  LD (xb412C),A           ; 4905
4908: D42A4A  	        CALL NC,p4A2A           ; 4908
490B: 78      	        LD A,B                  ; 490B
490C: FE0B    	        CP 0BH                  ; 490C
490E: DA1349  	        JP C,p4913              ; 490E
4911: 060B    	        LD B,0BH                ; 4911
4913: C5      	p4913:  PUSH BC                 ; 4913
4914: EB      	        EX DE,HL                ; 4914
4915: D5      	        PUSH DE                 ; 4915
4916: 112D41  	        LD DE,xf412D            ; 4916
4919: 04      	        INC B                   ; 4919
491A: 05      	p491A:  DEC B                   ; 491A
491B: CA6F49  	        JP Z,p496F              ; 491B
491E: CDD74A  	        CALL p4AD7              ; 491E
4921: 12      	        LD (DE),A               ; 4921
4922: 13      	        INC DE                  ; 4922
4923: C31A49  	        JP p491A                ; 4923
              	
4926: FE54    	p4926:  CP 54H                  ; 4926
4928: C23F49  	        JP NZ,p493F             ; 4928
492B: CDD74A  	        CALL p4AD7              ; 492B
492E: FE54    	        CP 54H                  ; 492E
4930: 37      	        SCF                     ; 4930
4931: C0      	        RET NZ                  ; 4931
4932: CDD74A  	        CALL p4AD7              ; 4932
4935: FE59    	        CP 59H                  ; 4935
4937: 37      	        SCF                     ; 4937
4938: C0      	        RET NZ                  ; 4938
4939: 9F      	        SBC A,A                 ; 4939
493A: EB      	        EX DE,HL                ; 493A
493B: B7      	        OR A                    ; 493B
493C: C30549  	        JP p4905                ; 493C
              	
493F: FE4C    	p493F:  CP 4CH                  ; 493F
4941: C25949  	        JP NZ,p4959             ; 4941
4944: CDD74A  	        CALL p4AD7              ; 4944
4947: FE53    	        CP 53H                  ; 4947
4949: 37      	        SCF                     ; 4949
494A: C0      	        RET NZ                  ; 494A
494B: CDD74A  	        CALL p4AD7              ; 494B
494E: FE54    	        CP 54H                  ; 494E
4950: 37      	        SCF                     ; 4950
4951: C0      	        RET NZ                  ; 4951
4952: 3EFE    	        LD A,0FEH               ; 4952
4954: EB      	        EX DE,HL                ; 4954
4955: B7      	        OR A                    ; 4955
4956: C30549  	        JP p4905                ; 4956
              	
4959: FE52    	p4959:  CP 52H                  ; 4959
495B: 37      	        SCF                     ; 495B
495C: C0      	        RET NZ                  ; 495C
495D: CDD74A  	        CALL p4AD7              ; 495D
4960: FE44    	        CP 44H                  ; 4960
4962: 37      	        SCF                     ; 4962
4963: C0      	        RET NZ                  ; 4963
4964: FE52    	        CP 52H                  ; 4964
4966: 37      	        SCF                     ; 4966
4967: C0      	        RET NZ                  ; 4967
4968: 3EFE    	        LD A,0FEH               ; 4968
496A: EB      	        EX DE,HL                ; 496A
496B: B7      	        OR A                    ; 496B
496C: C30549  	        JP p4905                ; 496C
              	
496F: E1      	p496F:  POP HL                  ; 496F
4970: C1      	        POP BC                  ; 4970
4971: 3E0A    	        LD A,0AH                ; 4971
4973: 90      	        SUB B                   ; 4973
4974: DA8049  	        JP C,p4980              ; 4974
4977: EB      	        EX DE,HL                ; 4977
4978: 3620    	p4978:  LD (HL),20H             ; 4978
497A: 23      	        INC HL                  ; 497A
497B: 3D      	        DEC A                   ; 497B
497C: F27849  	        JP P,p4978              ; 497C
497F: EB      	        EX DE,HL                ; 497F
4980: 79      	p4980:  LD A,C                  ; 4980
4981: 0600    	        LD B,00H                ; 4981
4983: D62E    	        SUB 2EH                 ; 4983
4985: 328440  	        LD (xb4084),A           ; 4985
4988: CC2A4A  	        CALL Z,p4A2A            ; 4988
498B: EB      	        EX DE,HL                ; 498B
498C: D5      	        PUSH DE                 ; 498C
498D: 113541  	        LD DE,xf4135            ; 498D
4990: 78      	        LD A,B                  ; 4990
4991: FE04    	        CP 04H                  ; 4991
4993: DA9849  	        JP C,p4998              ; 4993
4996: 0603    	        LD B,03H                ; 4996
4998: 04      	p4998:  INC B                   ; 4998
4999: 05      	p4999:  DEC B                   ; 4999
499A: CAA549  	        JP Z,p49A5              ; 499A
499D: CDD74A  	        CALL p4AD7              ; 499D
49A0: 12      	        LD (DE),A               ; 49A0
49A1: 13      	        INC DE                  ; 49A1
49A2: C39949  	        JP p4999                ; 49A2
              	
49A5: E1      	p49A5:  POP HL                  ; 49A5
49A6: 79      	p49A6:  LD A,C                  ; 49A6
49A7: D62F    	        SUB 2FH                 ; 49A7
49A9: B7      	        OR A                    ; 49A9
49AA: 79      	        LD A,C                  ; 49AA
49AB: C0      	        RET NZ                  ; 49AB
49AC: CDD74A  	        CALL p4AD7              ; 49AC
49AF: FE4C    	        CP 4CH                  ; 49AF
49B1: C2BE49  	        JP NZ,p49BE             ; 49B1
49B4: 328940  	        LD (xb4089),A           ; 49B4
49B7: CDD74A  	p49B7:  CALL p4AD7              ; 49B7
49BA: 4F      	        LD C,A                  ; 49BA
49BB: C3A649  	        JP p49A6                ; 49BB
              	
49BE: FE4E    	p49BE:  CP 4EH                  ; 49BE
49C0: C2C949  	        JP NZ,p49C9             ; 49C0
49C3: 329040  	        LD (xb4090),A           ; 49C3
49C6: C3B749  	        JP p49B7                ; 49C6
              	
49C9: FE4F    	p49C9:  CP 4FH                  ; 49C9
49CB: C2D449  	        JP NZ,p49D4             ; 49CB
49CE: 328F40  	        LD (xb408F),A           ; 49CE
49D1: C3B749  	        JP p49B7                ; 49D1
              	
49D4: FE52    	p49D4:  CP 52H                  ; 49D4
49D6: C2DF49  	        JP NZ,p49DF             ; 49D6
49D9: 328B40  	        LD (xb408B),A           ; 49D9
49DC: C3B749  	        JP p49B7                ; 49DC
              	
49DF: FE43    	p49DF:  CP 43H                  ; 49DF
49E1: C2ED49  	        JP NZ,p49ED             ; 49E1
49E4: 328C40  	        LD (xb408C),A           ; 49E4
49E7: 328940  	        LD (xb4089),A           ; 49E7
49EA: C3B749  	        JP p49B7                ; 49EA
              	
49ED: FE4D    	p49ED:  CP 4DH                  ; 49ED
49EF: C2F849  	        JP NZ,p49F8             ; 49EF
49F2: 329140  	        LD (xb4091),A           ; 49F2
49F5: C3B749  	        JP p49B7                ; 49F5
              	
49F8: FE49    	p49F8:  CP 49H                  ; 49F8
49FA: C2034A  	        JP NZ,p4A03             ; 49FA
49FD: 328840  	        LD (xb4088),A           ; 49FD
4A00: C3B749  	        JP p49B7                ; 4A00
              	
4A03: FE58    	p4A03:  CP 58H                  ; 4A03
4A05: C2104A  	        JP NZ,p4A10             ; 4A05
4A08: 3EFF    	        LD A,0FFH               ; 4A08
4A0A: 328D40  	        LD (xb408D),A           ; 4A0A
4A0D: C3B749  	        JP p49B7                ; 4A0D
              	
4A10: FE5A    	p4A10:  CP 5AH                  ; 4A10
4A12: C21C4A  	        JP NZ,p4A1C             ; 4A12
4A15: AF      	        XOR A                   ; 4A15
4A16: 328840  	        LD (xb4088),A           ; 4A16
4A19: C3B749  	        JP p49B7                ; 4A19
              	
4A1C: FE50    	p4A1C:  CP 50H                  ; 4A1C
4A1E: 37      	        SCF                     ; 4A1E
4A1F: C0      	        RET NZ                  ; 4A1F
4A20: 3A8A40  	        LD A,(xb408A)           ; 4A20
4A23: 3C      	        INC A                   ; 4A23
4A24: 328A40  	        LD (xb408A),A           ; 4A24
4A27: C3B749  	        JP p49B7                ; 4A27
              	
4A2A: 0600    	p4A2A:  LD B,00H                ; 4A2A
4A2C: E5      	        PUSH HL                 ; 4A2C
4A2D: CDD74A  	p4A2D:  CALL p4AD7              ; 4A2D
4A30: FE5B    	        CP 5BH                  ; 4A30
4A32: D2484A  	        JP NC,p4A48             ; 4A32
4A35: FE30    	        CP 30H                  ; 4A35
4A37: DA484A  	        JP C,p4A48              ; 4A37
4A3A: FE41    	        CP 41H                  ; 4A3A
4A3C: D2444A  	        JP NC,p4A44             ; 4A3C
4A3F: FE3A    	        CP 3AH                  ; 4A3F
4A41: D2484A  	        JP NC,p4A48             ; 4A41
4A44: 04      	p4A44:  INC B                   ; 4A44
4A45: C32D4A  	        JP p4A2D                ; 4A45
              	
4A48: 4F      	p4A48:  LD C,A                  ; 4A48
4A49: D1      	        POP DE                  ; 4A49
4A4A: C9      	        RET                     ; 4A4A
              	
4A4B: C5      	p4A4B:  PUSH BC                 ; 4A4B
4A4C: D5      	        PUSH DE                 ; 4A4C
4A4D: 218000  	        LD HL,0080H             ; 4A4D
4A50: 7E      	        LD A,(HL)               ; 4A50
4A51: 3600    	        LD (HL),00H             ; 4A51
4A53: B7      	        OR A                    ; 4A53
4A54: 47      	        LD B,A                  ; 4A54
4A55: CA7A4A  	p4A55:  JP Z,p4A7A              ; 4A55
4A58: 23      	        INC HL                  ; 4A58
4A59: 7E      	        LD A,(HL)               ; 4A59
4A5A: FE20    	        CP 20H                  ; 4A5A
4A5C: C2634A  	        JP NZ,p4A63             ; 4A5C
4A5F: 05      	        DEC B                   ; 4A5F
4A60: C3554A  	        JP p4A55                ; 4A60
              	
4A63: 114846  	p4A63:  LD DE,xb4648            ; 4A63
4A66: 78      	        LD A,B                  ; 4A66
4A67: 2B      	        DEC HL                  ; 4A67
4A68: 04      	        INC B                   ; 4A68
4A69: 12      	p4A69:  LD (DE),A               ; 4A69
4A6A: 13      	        INC DE                  ; 4A6A
4A6B: 23      	        INC HL                  ; 4A6B
4A6C: 05      	        DEC B                   ; 4A6C
4A6D: CA744A  	        JP Z,p4A74              ; 4A6D
4A70: 7E      	        LD A,(HL)               ; 4A70
4A71: C3694A  	        JP p4A69                ; 4A71
              	
4A74: 328E40  	p4A74:  LD (xb408E),A           ; 4A74
4A77: C39A4A  	        JP p4A9A                ; 4A77
              	
4A7A: AF      	p4A7A:  XOR A                   ; 4A7A
4A7B: 328E40  	        LD (xb408E),A           ; 4A7B
4A7E: 3A8540  	        LD A,(xb4085)           ; 4A7E
4A81: B7      	        OR A                    ; 4A81
4A82: C28D4A  	        JP NZ,p4A8D             ; 4A82
4A85: CD1B4B  	        CALL p4B1B              ; 4A85
4A88: 3E2A    	        LD A,2AH                ; 4A88
4A8A: CDEE4A  	        CALL p4AEE              ; 4A8A
              	
              	; Read console buffer
              	
4A8D: 0E0A    	p4A8D:  LD C,10                 ; 4A8D
4A8F: 114746  	        LD DE,xb4647            ; 4A8F
4A92: CD0500  	        CALL p0005              ; 4A92
4A95: 3E0A    	        LD A,0AH                ; 4A95
4A97: CDEE4A  	        CALL p4AEE              ; 4A97
4A9A: D1      	p4A9A:  POP DE                  ; 4A9A
4A9B: C1      	        POP BC                  ; 4A9B
4A9C: 3A4846  	        LD A,(xb4648)           ; 4A9C
4A9F: 214946  	        LD HL,xf4649            ; 4A9F
4AA2: E5      	        PUSH HL                 ; 4AA2
4AA3: 229946  	        LD (xw4699),HL          ; 4AA3
4AA6: 85      	        ADD A,L                 ; 4AA6
4AA7: 6F      	        LD L,A                  ; 4AA7
4AA8: 3E00    	        LD A,00H                ; 4AA8
4AAA: 8C      	        ADC A,H                 ; 4AAA
4AAB: 67      	        LD H,A                  ; 4AAB
4AAC: 360D    	        LD (HL),0DH             ; 4AAC
4AAE: 23      	        INC HL                  ; 4AAE
4AAF: 3E0A    	        LD A,0AH                ; 4AAF
4AB1: 77      	        LD (HL),A               ; 4AB1
4AB2: E1      	        POP HL                  ; 4AB2
4AB3: 3A8540  	        LD A,(xb4085)           ; 4AB3
4AB6: B7      	        OR A                    ; 4AB6
4AB7: C2D64A  	        JP NZ,p4AD6             ; 4AB7
4ABA: E5      	        PUSH HL                 ; 4ABA
4ABB: 214946  	        LD HL,xf4649            ; 4ABB
4ABE: 7E      	p4ABE:  LD A,(HL)               ; 4ABE
4ABF: FE0D    	        CP 0DH                  ; 4ABF
4AC1: CAD54A  	        JP Z,p4AD5              ; 4AC1
4AC4: D661    	        SUB 61H                 ; 4AC4
4AC6: DAD14A  	        JP C,p4AD1              ; 4AC6
4AC9: FE1A    	        CP 1AH                  ; 4AC9
4ACB: D2D14A  	        JP NC,p4AD1             ; 4ACB
4ACE: C641    	        ADD A,41H               ; 4ACE
4AD0: 77      	        LD (HL),A               ; 4AD0
4AD1: 23      	p4AD1:  INC HL                  ; 4AD1
4AD2: C3BE4A  	        JP p4ABE                ; 4AD2
              	
4AD5: E1      	p4AD5:  POP HL                  ; 4AD5
4AD6: C9      	p4AD6:  RET                     ; 4AD6
              	
4AD7: 7E      	p4AD7:  LD A,(HL)               ; 4AD7
4AD8: 23      	        INC HL                  ; 4AD8
4AD9: FE20    	        CP 20H                  ; 4AD9
4ADB: CAD74A  	        JP Z,p4AD7              ; 4ADB
4ADE: FE0A    	        CP 0AH                  ; 4ADE
4AE0: CAD74A  	        JP Z,p4AD7              ; 4AE0
4AE3: FE0D    	        CP 0DH                  ; 4AE3
4AE5: C2154B  	        JP NZ,p4B15             ; 4AE5
4AE8: 23      	        INC HL                  ; 4AE8
4AE9: 229946  	        LD (xw4699),HL          ; 4AE9
4AEC: C9      	        RET                     ; 4AEC
              	
4AED: F1      	p4AED:  POP AF                  ; 4AED
4AEE: E5      	p4AEE:  PUSH HL                 ; 4AEE
4AEF: D5      	        PUSH DE                 ; 4AEF
4AF0: C5      	        PUSH BC                 ; 4AF0
4AF1: F5      	        PUSH AF                 ; 4AF1
              	
              	; Console output
              	
4AF2: 0E02    	        LD C,2                  ; 4AF2
4AF4: E67F    	        AND 7FH                 ; 4AF4
4AF6: 5F      	        LD E,A                  ; 4AF6
4AF7: CD0500  	        CALL p0005              ; 4AF7
4AFA: F1      	        POP AF                  ; 4AFA
4AFB: C1      	        POP BC                  ; 4AFB
4AFC: D1      	        POP DE                  ; 4AFC
4AFD: E1      	        POP HL                  ; 4AFD
4AFE: B7      	        OR A                    ; 4AFE
4AFF: C9      	        RET                     ; 4AFF
              	
4B00: E5      	p4B00:  PUSH HL                 ; 4B00
4B01: 2A9946  	        LD HL,(xw4699)          ; 4B01
4B04: 2B      	        DEC HL                  ; 4B04
4B05: 7E      	        LD A,(HL)               ; 4B05
4B06: E67F    	        AND 7FH                 ; 4B06
4B08: FE0A    	        CP 0AH                  ; 4B08
4B0A: 23      	        INC HL                  ; 4B0A
4B0B: CC4B4A  	        CALL Z,p4A4B            ; 4B0B
4B0E: 23      	        INC HL                  ; 4B0E
4B0F: 229946  	        LD (xw4699),HL          ; 4B0F
4B12: 2B      	        DEC HL                  ; 4B12
4B13: 7E      	p4B13:  LD A,(HL)               ; 4B13
4B14: E1      	        POP HL                  ; 4B14
4B15: FE1A    	p4B15:  CP 1AH                  ; 4B15
4B17: 37      	        SCF                     ; 4B17
4B18: C8      	        RET Z                   ; 4B18
4B19: B7      	        OR A                    ; 4B19
4B1A: C9      	        RET                     ; 4B1A
              	
4B1B: 3E0D    	p4B1B:  LD A,CR                 ; 4B1B <CR>
4B1D: CDEE4A  	        CALL p4AEE              ; 4B1D
4B20: 3E0A    	        LD A,LF                 ; 4B20 <LF>
4B22: C3EE4A  	        JP p4AEE                ; 4B22
              	
4B25: F5      	p4B25:  PUSH AF                 ; 4B25
4B26: C5      	        PUSH BC                 ; 4B26
4B27: D5      	        PUSH DE                 ; 4B27
4B28: E5      	        PUSH HL                 ; 4B28
4B29: 114542  	        LD DE,xf4245            ; 4B29 Disk sector buffer
4B2C: 210000  	        LD HL,0000H             ; 4B2C
4B2F: 224342  	        LD (xb4243),HL          ; 4B2F
4B32: 21B440  	        LD HL,xf40B4            ; 4B32
4B35: 3A8940  	        LD A,(xb4089)           ; 4B35
4B38: C34E4B  	        JP p4B4E                ; 4B38
              	
4B3B: F5      	p4B3B:  PUSH AF                 ; 4B3B
4B3C: C5      	        PUSH BC                 ; 4B3C
4B3D: D5      	        PUSH DE                 ; 4B3D
4B3E: E5      	        PUSH HL                 ; 4B3E
4B3F: 114341  	        LD DE,xf4143            ; 4B3F
4B42: 210000  	        LD HL,0000H             ; 4B42
4B45: 224141  	        LD (xb4141),HL          ; 4B45
4B48: 219340  	        LD HL,xf4093            ; 4B48 address
4B4B: 3A8B40  	        LD A,(xb408B)           ; 4B4B
4B4E: B7      	p4B4E:  OR A                    ; 4B4E
4B4F: CA7F4B  	        JP Z,p4B7F              ; 4B4F
4B52: E5      	        PUSH HL                 ; 4B52
              	
              	; Set DMA address
              	
4B53: 0E1A    	        LD C,26                 ; 4B53
4B55: CD0500  	        CALL p0005              ; 4B55
4B58: E1      	        POP HL                  ; 4B58
4B59: 7E      	        LD A,(HL)               ; 4B59
4B5A: B7      	        OR A                    ; 4B5A
4B5B: FA7F4B  	        JP M,p4B7F              ; 4B5B
4B5E: CDA14B  	        CALL p4BA1              ; 4B5E
4B61: D5      	        PUSH DE                 ; 4B61
              	
              	; Delete file
              	
4B62: 0E13    	        LD C,19                 ; 4B62
4B64: CD0500  	        CALL p0005              ; 4B64
4B67: D1      	        POP DE                  ; 4B67
4B68: D5      	        PUSH DE                 ; 4B68
              	
              	; Create file
              	
4B69: 0E16    	        LD C,22                 ; 4B69
4B6B: CD0500  	        CALL p0005              ; 4B6B
4B6E: 3C      	        INC A                   ; 4B6E
4B6F: CAE346  	        JP Z,p46E3              ; 4B6F
4B72: E1      	        POP HL                  ; 4B72
4B73: CDA14B  	p4B73:  CALL p4BA1              ; 4B73
              	
              	; Open file
              	
4B76: 0E0F    	        LD C,15                 ; 4B76
4B78: CD0500  	        CALL p0005              ; 4B78
4B7B: 3C      	        INC A                   ; 4B7B
4B7C: CADD46  	        JP Z,p46DD              ; 4B7C
4B7F: E1      	p4B7F:  POP HL                  ; 4B7F
4B80: D1      	        POP DE                  ; 4B80
4B81: C1      	        POP BC                  ; 4B81
4B82: F1      	        POP AF                  ; 4B82
4B83: C9      	        RET                     ; 4B83
              	
4B84: F5      	p4B84:  PUSH AF                 ; 4B84
4B85: C5      	        PUSH BC                 ; 4B85
4B86: D5      	        PUSH DE                 ; 4B86
4B87: E5      	        PUSH HL                 ; 4B87
4B88: 210002  	        LD HL,0200H             ; 4B88
4B8B: 224544  	        LD (xb4445),HL          ; 4B8B
4B8E: 114744  	        LD DE,xf4447            ; 4B8E DMA buffer
              	
              	; Set DMA address
              	
4B91: 0E1A    	        LD C,26                 ; 4B91
4B93: CD0500  	        CALL p0005              ; 4B93
4B96: 21D540  	        LD HL,xf40D5            ; 4B96 address
4B99: 7E      	        LD A,(HL)               ; 4B99
4B9A: B7      	        OR A                    ; 4B9A
4B9B: FA7F4B  	        JP M,p4B7F              ; 4B9B
4B9E: C3734B  	        JP p4B73                ; 4B9E
              	
4BA1: E5      	p4BA1:  PUSH HL                 ; 4BA1
4BA2: D5      	        PUSH DE                 ; 4BA2
4BA3: 110C00  	        LD DE,000CH             ; 4BA3
4BA6: 19      	        ADD HL,DE               ; 4BA6
4BA7: AF      	        XOR A                   ; 4BA7
4BA8: 1604    	        LD D,04H                ; 4BA8
4BAA: 77      	p4BAA:  LD (HL),A               ; 4BAA
4BAB: 23      	        INC HL                  ; 4BAB
4BAC: 15      	        DEC D                   ; 4BAC
4BAD: C2AA4B  	        JP NZ,p4BAA             ; 4BAD
4BB0: 111000  	        LD DE,0010H             ; 4BB0
4BB3: 19      	        ADD HL,DE               ; 4BB3
4BB4: 77      	        LD (HL),A               ; 4BB4
4BB5: E1      	        POP HL                  ; 4BB5
4BB6: D1      	        POP DE                  ; 4BB6
4BB7: C9      	        RET                     ; 4BB7
              	
4BB8: F5      	p4BB8:  PUSH AF                 ; 4BB8
4BB9: D5      	        PUSH DE                 ; 4BB9
4BBA: 11D540  	        LD DE,xf40D5            ; 4BBA FCB address
4BBD: 1A      	        LD A,(DE)               ; 4BBD
4BBE: B7      	        OR A                    ; 4BBE
4BBF: FAD84B  	        JP M,p4BD8              ; 4BBF
4BC2: C5      	        PUSH BC                 ; 4BC2
4BC3: E5      	        PUSH HL                 ; 4BC3
4BC4: D5      	        PUSH DE                 ; 4BC4
              	
              	; Set DMA address
              	
4BC5: 114744  	        LD DE,xf4447            ; 4BC5 DMA buffer
4BC8: 0E1A    	        LD C,26                 ; 4BC8
4BCA: CD0500  	        CALL p0005              ; 4BCA
4BCD: D1      	        POP DE                  ; 4BCD
              	
              	; Close disk file
              	
4BCE: 01      	        DB 01H                  ; 4BCE (LD BC,0E5C5H)
4BCF: C5      	p4BCF:  PUSH BC                 ; 4BCF
4BD0: E5      	        PUSH HL                 ; 4BD0
4BD1: 0E10    	        LD C,16                 ; 4BD1
4BD3: CD0500  	        CALL p0005              ; 4BD3
4BD6: E1      	        POP HL                  ; 4BD6
4BD7: C1      	        POP BC                  ; 4BD7
4BD8: D1      	p4BD8:  POP DE                  ; 4BD8
4BD9: F1      	        POP AF                  ; 4BD9
4BDA: C9      	        RET                     ; 4BDA
              	
4BDB: F5      	p4BDB:  PUSH AF                 ; 4BDB
4BDC: 3A8940  	        LD A,(xb4089)           ; 4BDC
4BDF: B7      	        OR A                    ; 4BDF
4BE0: CAB048  	        JP Z,p48B0              ; 4BE0
4BE3: D5      	        PUSH DE                 ; 4BE3
4BE4: 3AB440  	        LD A,(xf40B4)           ; 4BE4
4BE7: 3C      	        INC A                   ; 4BE7
4BE8: CAD84B  	        JP Z,p4BD8              ; 4BE8
4BEB: FA644C  	        JP M,p4C64              ; 4BEB
4BEE: 3E0D    	        LD A,CR                 ; 4BEE
4BF0: CD764C  	        CALL p4C76              ; 4BF0
4BF3: 3E0A    	        LD A,LF                 ; 4BF3
4BF5: CD764C  	        CALL p4C76              ; 4BF5
4BF8: 3E1A    	        LD A,1AH                ; 4BF8 ^Z
4BFA: CD764C  	        CALL p4C76              ; 4BFA
4BFD: E5      	        PUSH HL                 ; 4BFD
4BFE: 2A4342  	        LD HL,(xb4243)          ; 4BFE
4C01: 114542  	        LD DE,xf4245            ; 4C01 Disk sector buffer
4C04: C5      	        PUSH BC                 ; 4C04
4C05: 01B440  	        LD BC,xf40B4            ; 4C05
4C08: CD4E4C  	        CALL p4C4E              ; 4C08
              	
              	; Set DMA address
              	
4C0B: 114542  	        LD DE,xf4245            ; 4C0B DMA Address
4C0E: 0E1A    	        LD C,26                 ; 4C0E
4C10: CD0500  	        CALL p0005              ; 4C10
4C13: C1      	        POP BC                  ; 4C13
4C14: E1      	        POP HL                  ; 4C14
4C15: 11B440  	        LD DE,xf40B4            ; 4C15
4C18: C3CF4B  	        JP p4BCF                ; 4C18
              	
4C1B: F5      	p4C1B:  PUSH AF                 ; 4C1B
4C1C: 3A8B40  	        LD A,(xb408B)           ; 4C1C
4C1F: B7      	        OR A                    ; 4C1F
4C20: CAB048  	        JP Z,p48B0              ; 4C20
4C23: D5      	        PUSH DE                 ; 4C23
4C24: 3A9340  	        LD A,(xf4093)           ; 4C24
4C27: B7      	        OR A                    ; 4C27
4C28: FAD84B  	        JP M,p4BD8              ; 4C28
4C2B: 3E1A    	        LD A,1AH                ; 4C2B
4C2D: CDDD4C  	        CALL p4CDD              ; 4C2D
4C30: E5      	        PUSH HL                 ; 4C30
4C31: 2A4141  	        LD HL,(xb4141)          ; 4C31
4C34: 114341  	        LD DE,xf4143            ; 4C34
4C37: C5      	        PUSH BC                 ; 4C37
4C38: 019340  	        LD BC,xf4093            ; 4C38
4C3B: CD4E4C  	        CALL p4C4E              ; 4C3B
4C3E: 114341  	        LD DE,xf4143            ; 4C3E
              	
              	; Set DMA address
              	
4C41: 0E1A    	        LD C,26                 ; 4C41
4C43: CD0500  	        CALL p0005              ; 4C43
4C46: C1      	        POP BC                  ; 4C46
4C47: E1      	        POP HL                  ; 4C47
4C48: 119340  	        LD DE,xf4093            ; 4C48
4C4B: C3CF4B  	        JP p4BCF                ; 4C4B
              	
4C4E: 7C      	p4C4E:  LD A,H                  ; 4C4E
4C4F: B5      	        OR L                    ; 4C4F
4C50: C8      	        RET Z                   ; 4C50 Return when HL == 0
4C51: 7D      	        LD A,L                  ; 4C51
4C52: E67F    	        AND 7FH                 ; 4C52
4C54: CA594C  	        JP Z,p4C59              ; 4C54
4C57: C680    	        ADD A,80H               ; 4C57
4C59: 17      	p4C59:  RLA                     ; 4C59
4C5A: 17      	        RLA                     ; 4C5A
4C5B: E603    	        AND 03H                 ; 4C5B
4C5D: 29      	        ADD HL,HL               ; 4C5D
4C5E: 84      	        ADD A,H                 ; 4C5E
4C5F: 60      	        LD H,B                  ; 4C5F
4C60: 69      	        LD L,C                  ; 4C60
4C61: C3AD4C  	        JP p4CAD                ; 4C61
              	
4C64: 3E0D    	p4C64:  LD A,CR                 ; 4C64
4C66: CD764C  	        CALL p4C76              ; 4C66
4C69: 3E0A    	        LD A,LF                 ; 4C69
4C6B: CD764C  	        CALL p4C76              ; 4C6B
4C6E: 3E0C    	        LD A,0CH                ; 4C6E form feed
4C70: CD764C  	        CALL p4C76              ; 4C70
4C73: D1      	        POP DE                  ; 4C73
4C74: F1      	        POP AF                  ; 4C74
4C75: C9      	        RET                     ; 4C75
              	
4C76: F5      	p4C76:  PUSH AF                 ; 4C76
4C77: 3A8940  	        LD A,(xb4089)           ; 4C77
4C7A: B7      	        OR A                    ; 4C7A
4C7B: CAB048  	        JP Z,p48B0              ; 4C7B
4C7E: 3AB440  	        LD A,(xf40B4)           ; 4C7E
4C81: 3C      	        INC A                   ; 4C81
4C82: CAED4A  	        JP Z,p4AED              ; 4C82
4C85: FA554D  	        JP M,p4D55              ; 4C85
4C88: E3      	        EX (SP),HL              ; 4C88
4C89: E5      	        PUSH HL                 ; 4C89
4C8A: D5      	        PUSH DE                 ; 4C8A
4C8B: 2A4342  	        LD HL,(xb4243)          ; 4C8B
4C8E: 7C      	        LD A,H                  ; 4C8E
4C8F: FE02    	        CP 02H                  ; 4C8F
4C91: CCA54C  	        CALL Z,p4CA5            ; 4C91
4C94: 23      	        INC HL                  ; 4C94
4C95: 224342  	        LD (xb4243),HL          ; 4C95
4C98: 114442  	        LD DE,xb4244            ; 4C98
4C9B: 19      	        ADD HL,DE               ; 4C9B
4C9C: D1      	        POP DE                  ; 4C9C
4C9D: F1      	        POP AF                  ; 4C9D
4C9E: F5      	        PUSH AF                 ; 4C9E
4C9F: E67F    	        AND 7FH                 ; 4C9F
4CA1: 77      	        LD (HL),A               ; 4CA1
4CA2: F1      	        POP AF                  ; 4CA2
4CA3: E1      	        POP HL                  ; 4CA3
4CA4: C9      	        RET                     ; 4CA4
              	
4CA5: 114542  	p4CA5:  LD DE,xf4245            ; 4CA5 DMA address
4CA8: 21B440  	        LD HL,xf40B4            ; 4CA8
4CAB: 3E04    	        LD A,04H                ; 4CAB
4CAD: F5      	p4CAD:  PUSH AF                 ; 4CAD
4CAE: C5      	        PUSH BC                 ; 4CAE
4CAF: D5      	        PUSH DE                 ; 4CAF
4CB0: E5      	        PUSH HL                 ; 4CB0
              	
              	; Set DMA address
              	
4CB1: 0E1A    	        LD C,26                 ; 4CB1
4CB3: CD0500  	        CALL p0005              ; 4CB3
4CB6: D1      	        POP DE                  ; 4CB6
4CB7: D5      	        PUSH DE                 ; 4CB7
              	
              	; Write sequential to disk
              	
4CB8: 0E15    	        LD C,21                 ; 4CB8
4CBA: CD0500  	        CALL p0005              ; 4CBA
4CBD: B7      	        OR A                    ; 4CBD
4CBE: C2A14D  	        JP NZ,p4DA1             ; 4CBE
4CC1: D1      	        POP DE                  ; 4CC1
4CC2: E1      	        POP HL                  ; 4CC2
4CC3: 018000  	        LD BC,0080H             ; 4CC3
4CC6: 09      	        ADD HL,BC               ; 4CC6
4CC7: EB      	        EX DE,HL                ; 4CC7
4CC8: C1      	        POP BC                  ; 4CC8
4CC9: F1      	        POP AF                  ; 4CC9
4CCA: 3D      	        DEC A                   ; 4CCA
4CCB: C2AD4C  	        JP NZ,p4CAD             ; 4CCB
4CCE: 210000  	        LD HL,0000H             ; 4CCE
4CD1: C9      	        RET                     ; 4CD1
              	
4CD2: 114341  	p4CD2:  LD DE,xf4143            ; 4CD2
4CD5: 3E02    	        LD A,02H                ; 4CD5
4CD7: 219340  	        LD HL,xf4093            ; 4CD7
4CDA: C3AD4C  	        JP p4CAD                ; 4CDA
              	
4CDD: F5      	p4CDD:  PUSH AF                 ; 4CDD
4CDE: 3A8B40  	        LD A,(xb408B)           ; 4CDE
4CE1: B7      	        OR A                    ; 4CE1
4CE2: CAB048  	        JP Z,p48B0              ; 4CE2
4CE5: 3A9340  	        LD A,(xf4093)           ; 4CE5
4CE8: B7      	        OR A                    ; 4CE8
4CE9: FAED4A  	        JP M,p4AED              ; 4CE9
4CEC: E3      	        EX (SP),HL              ; 4CEC
4CED: E5      	        PUSH HL                 ; 4CED
4CEE: D5      	        PUSH DE                 ; 4CEE
4CEF: 2A4141  	        LD HL,(xb4141)          ; 4CEF
4CF2: 7C      	        LD A,H                  ; 4CF2
4CF3: 3D      	        DEC A                   ; 4CF3
4CF4: CCD24C  	        CALL Z,p4CD2            ; 4CF4
4CF7: 23      	        INC HL                  ; 4CF7
4CF8: 224141  	        LD (xb4141),HL          ; 4CF8
4CFB: 114241  	        LD DE,xb4142            ; 4CFB
4CFE: 19      	        ADD HL,DE               ; 4CFE
4CFF: D1      	        POP DE                  ; 4CFF
4D00: F1      	        POP AF                  ; 4D00
4D01: 77      	        LD (HL),A               ; 4D01
4D02: E1      	        POP HL                  ; 4D02
4D03: C9      	        RET                     ; 4D03
              	
4D04: 3AD540  	p4D04:  LD A,(xf40D5)           ; 4D04
4D07: 3C      	        INC A                   ; 4D07
4D08: CA004B  	        JP Z,p4B00              ; 4D08
4D0B: FA904D  	        JP M,p4D90              ; 4D0B
4D0E: E5      	        PUSH HL                 ; 4D0E
4D0F: D5      	        PUSH DE                 ; 4D0F
4D10: 2A4544  	        LD HL,(xb4445)          ; 4D10
4D13: 7C      	        LD A,H                  ; 4D13
4D14: FE02    	        CP 02H                  ; 4D14
4D16: CC254D  	        CALL Z,p4D25            ; 4D16
4D19: 23      	        INC HL                  ; 4D19
4D1A: 224544  	        LD (xb4445),HL          ; 4D1A
4D1D: 114644  	        LD DE,xb4446            ; 4D1D
4D20: 19      	        ADD HL,DE               ; 4D20
4D21: D1      	        POP DE                  ; 4D21
4D22: C3134B  	        JP p4B13                ; 4D22
              	
4D25: 114744  	p4D25:  LD DE,xf4447            ; 4D25 buffer
4D28: 3E04    	        LD A,04H                ; 4D28
4D2A: F5      	p4D2A:  PUSH AF                 ; 4D2A
4D2B: D5      	        PUSH DE                 ; 4D2B
4D2C: C5      	        PUSH BC                 ; 4D2C
              	
              	; Set DMA address
              	
4D2D: 0E1A    	        LD C,26                 ; 4D2D
4D2F: CD0500  	        CALL p0005              ; 4D2F
              	
              	; Sequential disk read
              	
4D32: 11D540  	        LD DE,xf40D5            ; 4D32 FCB address
4D35: 0E14    	        LD C,20                 ; 4D35
4D37: CD0500  	        CALL p0005              ; 4D37
4D3A: C1      	        POP BC                  ; 4D3A
4D3B: D1      	        POP DE                  ; 4D3B
4D3C: 3D      	        DEC A                   ; 4D3C
4D3D: CA4E4D  	        JP Z,p4D4E              ; 4D3D
4D40: 218000  	        LD HL,0080H             ; 4D40
4D43: 19      	        ADD HL,DE               ; 4D43
4D44: EB      	        EX DE,HL                ; 4D44
4D45: F1      	        POP AF                  ; 4D45
4D46: 3D      	        DEC A                   ; 4D46
4D47: C22A4D  	        JP NZ,p4D2A             ; 4D47
4D4A: 210000  	p4D4A:  LD HL,0000H             ; 4D4A
4D4D: C9      	        RET                     ; 4D4D
              	
4D4E: F1      	p4D4E:  POP AF                  ; 4D4E
4D4F: 3E1A    	        LD A,1AH                ; 4D4F
4D51: 12      	        LD (DE),A               ; 4D51
4D52: C34A4D  	        JP p4D4A                ; 4D52
              	
              	; Output char to console
              	
4D55: F1      	p4D55:  POP AF                  ; 4D55
4D56: E5      	        PUSH HL                 ; 4D56
4D57: D5      	        PUSH DE                 ; 4D57
4D58: C5      	        PUSH BC                 ; 4D58
4D59: F5      	        PUSH AF                 ; 4D59
4D5A: 0E05    	        LD C,5                  ; 4D5A
4D5C: E67F    	        AND 7FH                 ; 4D5C
4D5E: 5F      	        LD E,A                  ; 4D5E
4D5F: 219240  	        LD HL,xb4092            ; 4D5F
4D62: FE20    	        CP 20H                  ; 4D62
4D64: D2734D  	        JP NC,p4D73             ; 4D64
4D67: D60D    	        SUB 0DH                 ; 4D67
4D69: CA714D  	        JP Z,p4D71              ; 4D69
4D6C: 3C      	        INC A                   ; 4D6C
4D6D: CA714D  	        JP Z,p4D71              ; 4D6D
4D70: 7E      	        LD A,(HL)               ; 4D70
4D71: 3D      	p4D71:  DEC A                   ; 4D71
4D72: 77      	        LD (HL),A               ; 4D72
4D73: 34      	p4D73:  INC (HL)                ; 4D73
4D74: 7B      	        LD A,E                  ; 4D74
4D75: FE09    	        CP 09H                  ; 4D75
4D77: C2884D  	        JP NZ,p4D88             ; 4D77
4D7A: 3E20    	p4D7A:  LD A,20H                ; 4D7A
4D7C: CD764C  	        CALL p4C76              ; 4D7C
4D7F: 7E      	        LD A,(HL)               ; 4D7F
4D80: E607    	        AND 07H                 ; 4D80
4D82: C27A4D  	        JP NZ,p4D7A             ; 4D82
4D85: C38B4D  	        JP p4D8B                ; 4D85
              	
4D88: CD0500  	p4D88:  CALL p0005              ; 4D88
4D8B: F1      	p4D8B:  POP AF                  ; 4D8B
4D8C: C1      	        POP BC                  ; 4D8C
4D8D: D1      	        POP DE                  ; 4D8D
4D8E: E1      	        POP HL                  ; 4D8E
4D8F: C9      	        RET                     ; 4D8F
              	
4D90: E5      	p4D90:  PUSH HL                 ; 4D90
4D91: D5      	        PUSH DE                 ; 4D91
4D92: C5      	        PUSH BC                 ; 4D92
              	
              	; Read char from input
              	
4D93: 0E03    	        LD C,3                  ; 4D93
4D95: CD0500  	        CALL p0005              ; 4D95
4D98: C1      	        POP BC                  ; 4D98
4D99: D1      	        POP DE                  ; 4D99
4D9A: E1      	        POP HL                  ; 4D9A
4D9B: FE1A    	        CP 1AH                  ; 4D9B ^Z
4D9D: 37      	        SCF                     ; 4D9D
4D9E: C8      	        RET Z                   ; 4D9E
4D9F: B7      	        OR A                    ; 4D9F
4DA0: C9      	        RET                     ; 4DA0
              	
4DA1: 21C14D  	p4DA1:  LD HL,x4DC1             ; 4DA1 'DISK'
4DA4: CDCC46  	        CALL p46CC              ; 4DA4
4DA7: D1      	        POP DE                  ; 4DA7
4DA8: 1A      	        LD A,(DE)               ; 4DA8
4DA9: C640    	        ADD A,40H               ; 4DA9
4DAB: FE40    	        CP 40H                  ; 4DAB
4DAD: C2B24D  	        JP NZ,p4DB2             ; 4DAD
4DB0: 3E20    	        LD A,20H                ; 4DB0
4DB2: CDEE4A  	p4DB2:  CALL p4AEE              ; 4DB2
4DB5: 21C74D  	        LD HL,x4DC7             ; 4DB5 'FULL'
4DB8: CDCC46  	        CALL p46CC              ; 4DB8
4DBB: CD1B4B  	        CALL p4B1B              ; 4DBB
4DBE: C30000  	        JP p0000                ; 4DBE EXIT to O/S
              	
4DC1: 4449534B	x4DC1:  DB "DISK ",0
4DC5: 2000    	
4DC7: 2046554C	x4DC7:  DB " FULL",0
4DCB: 4C00    	
              	
4DCD: FFFFFFFF	xf4DCD: DS 32                   ; 4DCD FCB address
4DD1: FF...   	
4DED: 00      	x4DED:  DB 0                    ; 4DED
4DEE: 00      	x4DEE:  DB 0                    ; 4DEE
4DEF: 0000    	x4DEF:  DW 0                    ; 4DEF
              	
4DF1: FFFFFFFF	xf4DF1: DS 128                  ; 4DF1 DMA transfer area
4DF5: FF...   	
              	
4E71: E5      	p4E71:  PUSH HL                 ; 4E71
4E72: D5      	x4E72:  PUSH DE                 ; 4E72
4E73: C5      	        PUSH BC                 ; 4E73
4E74: EB      	        EX DE,HL                ; 4E74
4E75: 21CD4D  	        LD HL,xf4DCD            ; 4E75
4E78: 13      	        INC DE                  ; 4E78
4E79: 1A      	        LD A,(DE)               ; 4E79
4E7A: 1B      	        DEC DE                  ; 4E7A
4E7B: FE3A    	        CP 3AH                  ; 4E7B
4E7D: 3E00    	        LD A,00H                ; 4E7D
4E7F: C28C4E  	        JP NZ,p4E8C             ; 4E7F
4E82: 1A      	        LD A,(DE)               ; 4E82
4E83: 13      	        INC DE                  ; 4E83
4E84: D640    	        SUB 40H                 ; 4E84
4E86: FE1B    	        CP 1BH                  ; 4E86
4E88: D2F04E  	        JP NC,p4EF0             ; 4E88
4E8B: 13      	        INC DE                  ; 4E8B
4E8C: 77      	p4E8C:  LD (HL),A               ; 4E8C
4E8D: 23      	        INC HL                  ; 4E8D
4E8E: 0608    	        LD B,08H                ; 4E8E
4E90: 1A      	p4E90:  LD A,(DE)               ; 4E90
4E91: 13      	        INC DE                  ; 4E91
4E92: 328440  	        LD (xb4084),A           ; 4E92
4E95: FE2E    	        CP 2EH                  ; 4E95
4E97: CAB74E  	        JP Z,p4EB7              ; 4E97
4E9A: FE21    	        CP 21H                  ; 4E9A
4E9C: DAB74E  	        JP C,p4EB7              ; 4E9C
4E9F: 77      	        LD (HL),A               ; 4E9F
4EA0: 23      	        INC HL                  ; 4EA0
4EA1: 05      	        DEC B                   ; 4EA1
4EA2: C2904E  	        JP NZ,p4E90             ; 4EA2
4EA5: 1A      	p4EA5:  LD A,(DE)               ; 4EA5
4EA6: 13      	        INC DE                  ; 4EA6
4EA7: 328440  	        LD (xb4084),A           ; 4EA7
4EAA: FE2E    	        CP 2EH                  ; 4EAA
4EAC: CABE4E  	        JP Z,p4EBE              ; 4EAC
4EAF: FE21    	        CP 21H                  ; 4EAF
4EB1: D2A54E  	        JP NC,p4EA5             ; 4EB1
4EB4: C3BE4E  	        JP p4EBE                ; 4EB4
              	
4EB7: 3620    	p4EB7:  LD (HL),20H             ; 4EB7
4EB9: 23      	        INC HL                  ; 4EB9
4EBA: 05      	        DEC B                   ; 4EBA
4EBB: C2B74E  	        JP NZ,p4EB7             ; 4EBB
4EBE: 0603    	p4EBE:  LD B,03H                ; 4EBE
4EC0: 3A8440  	        LD A,(xb4084)           ; 4EC0
4EC3: FE2E    	        CP 2EH                  ; 4EC3
4EC5: CACB4E  	        JP Z,p4ECB              ; 4EC5
4EC8: 110601  	        LD DE,xs0106            ; 4EC8
4ECB: 1A      	p4ECB:  LD A,(DE)               ; 4ECB
4ECC: 13      	        INC DE                  ; 4ECC
4ECD: 77      	        LD (HL),A               ; 4ECD
4ECE: 23      	        INC HL                  ; 4ECE
4ECF: 05      	        DEC B                   ; 4ECF
4ED0: C2CB4E  	        JP NZ,p4ECB             ; 4ED0
4ED3: 70      	        LD (HL),B               ; 4ED3
              	
              	; Set DMA address
              	
4ED4: 11F14D  	        LD DE,xf4DF1            ; 4ED4 DMA address
4ED7: 0E1A    	        LD C,26                 ; 4ED7
4ED9: CD0500  	        CALL p0005              ; 4ED9
              	
              	; Open file
              	
4EDC: 11CD4D  	        LD DE,xf4DCD            ; 4EDC FCB address
4EDF: 0E0F    	        LD C,15                 ; 4EDF
4EE1: CD0500  	        CALL p0005              ; 4EE1
4EE4: FEFF    	        CP 0FFH                  ; 4EE4
4EE6: CAF04E  	        JP Z,p4EF0              ; 4EE6
4EE9: AF      	        XOR A                   ; 4EE9
4EEA: 32ED4D  	        LD (x4DED),A            ; 4EEA
4EED: 32EE4D  	        LD (x4DEE),A            ; 4EED
4EF0: C1      	p4EF0:  POP BC                  ; 4EF0
4EF1: D1      	        POP DE                  ; 4EF1
4EF2: E1      	        POP HL                  ; 4EF2
4EF3: C9      	        RET                     ; 4EF3
              	
4EF4: E5      	p4EF4:  PUSH HL                 ; 4EF4
4EF5: D5      	        PUSH DE                 ; 4EF5
4EF6: C5      	        PUSH BC                 ; 4EF6
4EF7: 3AEE4D  	        LD A,(x4DEE)            ; 4EF7
4EFA: 3D      	        DEC A                   ; 4EFA
4EFB: F21B4F  	        JP P,p4F1B              ; 4EFB
              	
              	; Set DMA address
              	
4EFE: 11F14D  	        LD DE,xf4DF1            ; 4EFE
4F01: 0E1A    	        LD C,26                 ; 4F01
4F03: CD0500  	        CALL p0005              ; 4F03
              	
              	; Read sequential
              	
4F06: 11CD4D  	        LD DE,xf4DCD            ; 4F06 FCB address
4F09: 0E14    	        LD C,20                 ; 4F09
4F0B: CD0500  	        CALL p0005              ; 4F0B
4F0E: C6FF    	        ADD A,0FFH              ; 4F0E
4F10: DA304F  	        JP C,p4F30              ; 4F10
4F13: 21F14D  	        LD HL,xf4DF1            ; 4F13 DMA address
4F16: 22EF4D  	        LD (x4DEF),HL           ; 4F16
4F19: 3E7F    	        LD A,7FH                ; 4F19
4F1B: 32EE4D  	p4F1B:  LD (x4DEE),A            ; 4F1B
4F1E: 2AEF4D  	        LD HL,(x4DEF)           ; 4F1E
4F21: 7E      	        LD A,(HL)               ; 4F21
4F22: FE1A    	        CP 1AH                  ; 4F22
4F24: C22B4F  	        JP NZ,p4F2B             ; 4F24
4F27: 37      	        SCF                     ; 4F27
4F28: C3304F  	        JP p4F30                ; 4F28
              	
4F2B: 23      	p4F2B:  INC HL                  ; 4F2B
4F2C: 22EF4D  	        LD (x4DEF),HL           ; 4F2C
4F2F: B7      	        OR A                    ; 4F2F
4F30: C1      	p4F30:  POP BC                  ; 4F30
4F31: D1      	        POP DE                  ; 4F31
4F32: E1      	        POP HL                  ; 4F32
4F33: C9      	        RET                     ; 4F33
              	
4F34: C9      	p4F34:  RET                     ; 4F34
              	
4F35: 30      	x4F35:  DB 30H                  ; 4F35
4F36: FFFFFFFF	        DS 74                   ; 4F36
4F3A: FF...   	
              	        END
***ERROR*** No such file or directory: file = "/pub/Develop/Projects/zasm-4.0/Test/Z80/original/m80b." (fd108)


; +++ segments +++

#CODE          = $0100 =   256,  size = $4E80 = 20096

; +++ global symbols +++

CR      = $000D =    13          m80b.asm:10
LF      = $000A =    10          m80b.asm:11
TAB     = $0009 =     9          m80b.asm:12
X231A   = $231A =  8986          m80b.asm:4678 (unused)
_8080_  = $0001 =     1          :1 (unused)
_end    = $4F80 = 20352          m80b.asm:13 (unused)
_size   = $4E80 = 20096          m80b.asm:13 (unused)
p0000   = $0000 =     0          m80b.asm:5
p0005   = $0005 =     5          m80b.asm:6
p0006   = $0006 =     6          m80b.asm:7
p0100   = $0100 =   256          m80b.asm:15
p010A   = $010A =   266          m80b.asm:20
p011E   = $011E =   286          m80b.asm:31
p0144   = $0144 =   324          m80b.asm:51
p0151   = $0151 =   337          m80b.asm:59
p016E   = $016E =   366          m80b.asm:81
p0176   = $0176 =   374          m80b.asm:84
p0197   = $0197 =   407          m80b.asm:96
p01DE   = $01DE =   478          m80b.asm:127
p01FC   = $01FC =   508          m80b.asm:142
p0205   = $0205 =   517          m80b.asm:145
p0214   = $0214 =   532          m80b.asm:153
p021D   = $021D =   541          m80b.asm:161
p0236   = $0236 =   566          m80b.asm:175
p0243   = $0243 =   579          m80b.asm:180
p026C   = $026C =   620          m80b.asm:199
p0271   = $0271 =   625          m80b.asm:201
p027E   = $027E =   638          m80b.asm:209
p028E   = $028E =   654          m80b.asm:219
p0296   = $0296 =   662          m80b.asm:223
p02A8   = $02A8 =   680          m80b.asm:231
p02AF   = $02AF =   687          m80b.asm:235
p02C6   = $02C6 =   710          m80b.asm:245
p02CC   = $02CC =   716          m80b.asm:249
p02ED   = $02ED =   749          m80b.asm:262
p0319   = $0319 =   793          m80b.asm:281
p031C   = $031C =   796          m80b.asm:283
p0324   = $0324 =   804          m80b.asm:289
p0352   = $0352 =   850          m80b.asm:311
p0373   = $0373 =   883          m80b.asm:327
p0381   = $0381 =   897          m80b.asm:334
p038B   = $038B =   907          m80b.asm:339
p03B5   = $03B5 =   949          m80b.asm:358
p03B9   = $03B9 =   953          m80b.asm:360
p03BF   = $03BF =   959          m80b.asm:362
p03CF   = $03CF =   975          m80b.asm:368
p03E8   = $03E8 =  1000          m80b.asm:380
p03F1   = $03F1 =  1009          m80b.asm:385
p03FB   = $03FB =  1019          m80b.asm:395
p040D   = $040D =  1037          m80b.asm:407
p042B   = $042B =  1067          m80b.asm:422
p0433   = $0433 =  1075          m80b.asm:425
p043F   = $043F =  1087          m80b.asm:436
p044B   = $044B =  1099          m80b.asm:440
p0452   = $0452 =  1106          m80b.asm:446
p0455   = $0455 =  1109          m80b.asm:447
p045C   = $045C =  1116          m80b.asm:450
p046B   = $046B =  1131          m80b.asm:457
p046C   = $046C =  1132          m80b.asm:458
p048B   = $048B =  1163          m80b.asm:471
p0497   = $0497 =  1175          m80b.asm:476
p049D   = $049D =  1181          m80b.asm:479
p04A3   = $04A3 =  1187          m80b.asm:483
p04A9   = $04A9 =  1193          m80b.asm:487
p04AF   = $04AF =  1199          m80b.asm:491
p04B5   = $04B5 =  1205          m80b.asm:495
p04BB   = $04BB =  1211          m80b.asm:499
p04C1   = $04C1 =  1217          m80b.asm:503
p04C7   = $04C7 =  1223          m80b.asm:507
p04CD   = $04CD =  1229          m80b.asm:511
p04D3   = $04D3 =  1235          m80b.asm:515
p04D9   = $04D9 =  1241          m80b.asm:519
p04DF   = $04DF =  1247          m80b.asm:523
p04E5   = $04E5 =  1253          m80b.asm:527
p04E8   = $04E8 =  1256          m80b.asm:529
p04FC   = $04FC =  1276          m80b.asm:539
p0512   = $0512 =  1298          m80b.asm:546
p0515   = $0515 =  1301          m80b.asm:548
p0538   = $0538 =  1336          m80b.asm:570
p053D   = $053D =  1341          m80b.asm:573
p054A   = $054A =  1354          m80b.asm:580 (unused)
p0556   = $0556 =  1366          m80b.asm:586
p055B   = $055B =  1371          m80b.asm:588
p0568   = $0568 =  1384          m80b.asm:596
p0579   = $0579 =  1401          m80b.asm:610
p057A   = $057A =  1402          m80b.asm:611
p0586   = $0586 =  1414          m80b.asm:619
p058A   = $058A =  1418          m80b.asm:624
p058D   = $058D =  1421          m80b.asm:625
p0592   = $0592 =  1426          m80b.asm:629
p0AEA   = $0AEA =  2794          m80b.asm:1374
p0AEB   = $0AEB =  2795          m80b.asm:1375
p0AFE   = $0AFE =  2814          m80b.asm:1384 (unused)
p0B08   = $0B08 =  2824          m80b.asm:1388
p0B0D   = $0B0D =  2829          m80b.asm:1394
p0B10   = $0B10 =  2832          m80b.asm:1398
p0B1F   = $0B1F =  2847          m80b.asm:1404
p0B23   = $0B23 =  2851          m80b.asm:1409
p0B29   = $0B29 =  2857          m80b.asm:1412
p0B36   = $0B36 =  2870          m80b.asm:1418
p0B40   = $0B40 =  2880          m80b.asm:1425
p0B48   = $0B48 =  2888          m80b.asm:1430
p0B53   = $0B53 =  2899          m80b.asm:1435
p0B55   = $0B55 =  2901          m80b.asm:1438
p0B61   = $0B61 =  2913          m80b.asm:1442
p0B73   = $0B73 =  2931          m80b.asm:1451 (unused)
p0B78   = $0B78 =  2936          m80b.asm:1453
p0B7F   = $0B7F =  2943          m80b.asm:1456
p0B97   = $0B97 =  2967          m80b.asm:1467
p0B9F   = $0B9F =  2975          m80b.asm:1474
p0BA2   = $0BA2 =  2978          m80b.asm:1475 (unused)
p0BB1   = $0BB1 =  2993          m80b.asm:1481
p0BC8   = $0BC8 =  3016          m80b.asm:1498
p0BDA   = $0BDA =  3034          m80b.asm:1509
p0BE4   = $0BE4 =  3044          m80b.asm:1514
p0BED   = $0BED =  3053          m80b.asm:1520
p0BEE   = $0BEE =  3054          m80b.asm:1521
p0C02   = $0C02 =  3074          m80b.asm:1531
p0C09   = $0C09 =  3081          m80b.asm:1534
p0C0E   = $0C0E =  3086          m80b.asm:1539
p0C22   = $0C22 =  3106          m80b.asm:1550
p0C24   = $0C24 =  3108          m80b.asm:1553
p0C27   = $0C27 =  3111          m80b.asm:1554
p0C3A   = $0C3A =  3130          m80b.asm:1565
p0C4B   = $0C4B =  3147          m80b.asm:1574
p0C50   = $0C50 =  3152          m80b.asm:1577
p0C6E   = $0C6E =  3182          m80b.asm:1599
p0C79   = $0C79 =  3193          m80b.asm:1606
p0C8B   = $0C8B =  3211          m80b.asm:1621
p0C90   = $0C90 =  3216          m80b.asm:1625
p0C9F   = $0C9F =  3231          m80b.asm:1635
p0CB8   = $0CB8 =  3256          m80b.asm:1655
p0CBE   = $0CBE =  3262          m80b.asm:1659
p0CC4   = $0CC4 =  3268          m80b.asm:1664
p0CDC   = $0CDC =  3292          m80b.asm:1683
p0CFC   = $0CFC =  3324          m80b.asm:1703
p0D00   = $0D00 =  3328          m80b.asm:1705
p0D1E   = $0D1E =  3358          m80b.asm:1724
p0D26   = $0D26 =  3366          m80b.asm:1731
p0D37   = $0D37 =  3383          m80b.asm:1740
p0D49   = $0D49 =  3401          m80b.asm:1756
p0D6F   = $0D6F =  3439          m80b.asm:1780
p0D72   = $0D72 =  3442          m80b.asm:1781
p0D8D   = $0D8D =  3469          m80b.asm:1788
p0D93   = $0D93 =  3475          m80b.asm:1795
p0DB9   = $0DB9 =  3513          m80b.asm:1813
p0DC3   = $0DC3 =  3523          m80b.asm:1818
p0DCE   = $0DCE =  3534          m80b.asm:1826
p0DD4   = $0DD4 =  3540          m80b.asm:1829
p0DDB   = $0DDB =  3547          m80b.asm:1833
p0DE9   = $0DE9 =  3561          m80b.asm:1841
p0E02   = $0E02 =  3586          m80b.asm:1864
p0E11   = $0E11 =  3601          m80b.asm:1873
p0E44   = $0E44 =  3652          m80b.asm:1904
p0E52   = $0E52 =  3666          m80b.asm:1912
p0E61   = $0E61 =  3681          m80b.asm:1919
p0E74   = $0E74 =  3700          m80b.asm:1933
p0E79   = $0E79 =  3705          m80b.asm:1935
p0E80   = $0E80 =  3712          m80b.asm:1939
p0E8F   = $0E8F =  3727          m80b.asm:1949
p0E9E   = $0E9E =  3742          m80b.asm:1959
p0EAA   = $0EAA =  3754          m80b.asm:1966
p0EB9   = $0EB9 =  3769          m80b.asm:1976
p0EC7   = $0EC7 =  3783          m80b.asm:1985
p0ED3   = $0ED3 =  3795          m80b.asm:1992
p0EF4   = $0EF4 =  3828          m80b.asm:2011
p0F10   = $0F10 =  3856          m80b.asm:2028
p0F2A   = $0F2A =  3882          m80b.asm:2043
p0F36   = $0F36 =  3894          m80b.asm:2049
p0F40   = $0F40 =  3904          m80b.asm:2056
p0F4B   = $0F4B =  3915          m80b.asm:2061
p0F4E   = $0F4E =  3918          m80b.asm:2062
p0F52   = $0F52 =  3922          m80b.asm:2066
p0F5A   = $0F5A =  3930          m80b.asm:2071
p0F66   = $0F66 =  3942          m80b.asm:2077
p0F68   = $0F68 =  3944          m80b.asm:2080
p0F6B   = $0F6B =  3947          m80b.asm:2082
p0F6E   = $0F6E =  3950          m80b.asm:2084
p0F83   = $0F83 =  3971          m80b.asm:2100
p0F9C   = $0F9C =  3996          m80b.asm:2113
p0FA3   = $0FA3 =  4003          m80b.asm:2119
p0FB5   = $0FB5 =  4021          m80b.asm:2129
p0FCD   = $0FCD =  4045          m80b.asm:2140
p0FEC   = $0FEC =  4076          m80b.asm:2153
p0FF1   = $0FF1 =  4081          m80b.asm:2156
p1001   = $1001 =  4097          m80b.asm:2164
p1015   = $1015 =  4117          m80b.asm:2173
p101A   = $101A =  4122          m80b.asm:2177
p102D   = $102D =  4141          m80b.asm:2185
p1043   = $1043 =  4163          m80b.asm:2198
p104B   = $104B =  4171          m80b.asm:2201
p105D   = $105D =  4189          m80b.asm:2212
p1064   = $1064 =  4196          m80b.asm:2216
p108B   = $108B =  4235          m80b.asm:2232
p1090   = $1090 =  4240          m80b.asm:2235
p10AB   = $10AB =  4267          m80b.asm:2249
p10B7   = $10B7 =  4279          m80b.asm:2256
p10E2   = $10E2 =  4322          m80b.asm:2276
p10FB   = $10FB =  4347          m80b.asm:2292
p1101   = $1101 =  4353          m80b.asm:2297
p1109   = $1109 =  4361          m80b.asm:2302
p110C   = $110C =  4364          m80b.asm:2303
p111F   = $111F =  4383          m80b.asm:2311
p113B   = $113B =  4411          m80b.asm:2325
p1148   = $1148 =  4424          m80b.asm:2332
p114D   = $114D =  4429          m80b.asm:2335
p114E   = $114E =  4430          m80b.asm:2337
p115B   = $115B =  4443          m80b.asm:2344
p1163   = $1163 =  4451          m80b.asm:2349
p116B   = $116B =  4459          m80b.asm:2354
p116E   = $116E =  4462          m80b.asm:2355
p117D   = $117D =  4477          m80b.asm:2363
p11AF   = $11AF =  4527          m80b.asm:2383
p11CF   = $11CF =  4559          m80b.asm:2396
p1200   = $1200 =  4608          m80b.asm:2417
p1212   = $1212 =  4626          m80b.asm:2426
p1252   = $1252 =  4690          m80b.asm:2450
p1266   = $1266 =  4710          m80b.asm:2458
p1284   = $1284 =  4740          m80b.asm:2470
p1298   = $1298 =  4760          m80b.asm:2482
p129C   = $129C =  4764          m80b.asm:2484
p12BA   = $12BA =  4794          m80b.asm:2502
p12D4   = $12D4 =  4820          m80b.asm:2516
p12E9   = $12E9 =  4841          m80b.asm:2526
p130D   = $130D =  4877          m80b.asm:2541
p131A   = $131A =  4890          m80b.asm:2548
p1322   = $1322 =  4898          m80b.asm:2552
p1325   = $1325 =  4901          m80b.asm:2553
p132A   = $132A =  4906          m80b.asm:2556
p132F   = $132F =  4911          m80b.asm:2558
p1335   = $1335 =  4917          m80b.asm:2563
p1360   = $1360 =  4960          m80b.asm:2582
p1369   = $1369 =  4969          m80b.asm:2587
p1376   = $1376 =  4982          m80b.asm:2594
p13A2   = $13A2 =  5026          m80b.asm:2613
p13B4   = $13B4 =  5044          m80b.asm:2620
p13BF   = $13BF =  5055          m80b.asm:2625
p13E2   = $13E2 =  5090          m80b.asm:2639
p140F   = $140F =  5135          m80b.asm:2660
p1417   = $1417 =  5143          m80b.asm:2665
p1420   = $1420 =  5152          m80b.asm:2670
p145B   = $145B =  5211          m80b.asm:2695
p1492   = $1492 =  5266          m80b.asm:2719
p14A1   = $14A1 =  5281          m80b.asm:2727
p14B1   = $14B1 =  5297          m80b.asm:2734
p14C1   = $14C1 =  5313          m80b.asm:2741
p14F1   = $14F1 =  5361          m80b.asm:2764
p150A   = $150A =  5386          m80b.asm:2775
p1524   = $1524 =  5412          m80b.asm:2788
p1534   = $1534 =  5428          m80b.asm:2796
p155E   = $155E =  5470          m80b.asm:2815
p1573   = $1573 =  5491          m80b.asm:2823
p157D   = $157D =  5501          m80b.asm:2831
p1599   = $1599 =  5529          m80b.asm:2844
p15CA   = $15CA =  5578          m80b.asm:2869
p15D8   = $15D8 =  5592          m80b.asm:2876
p15E9   = $15E9 =  5609          m80b.asm:2884
p160A   = $160A =  5642          m80b.asm:2902
p1628   = $1628 =  5672          m80b.asm:2918
p1633   = $1633 =  5683          m80b.asm:2924
p1642   = $1642 =  5698          m80b.asm:2938
p164C   = $164C =  5708          m80b.asm:2945
p1662   = $1662 =  5730          m80b.asm:2958
p168E   = $168E =  5774          m80b.asm:2984
p1691   = $1691 =  5777          m80b.asm:2986
p169F   = $169F =  5791          m80b.asm:2995
p16C2   = $16C2 =  5826          m80b.asm:3011
p16C5   = $16C5 =  5829          m80b.asm:3013
p16C8   = $16C8 =  5832          m80b.asm:3015
p16CA   = $16CA =  5834          m80b.asm:3017
p16D3   = $16D3 =  5843          m80b.asm:3025
p16D9   = $16D9 =  5849          m80b.asm:3028
p16F6   = $16F6 =  5878          m80b.asm:3043
p16FE   = $16FE =  5886          m80b.asm:3046
p1711   = $1711 =  5905          m80b.asm:3056
p171E   = $171E =  5918          m80b.asm:3065
p1731   = $1731 =  5937          m80b.asm:3076
p1737   = $1737 =  5943          m80b.asm:3079
p1753   = $1753 =  5971          m80b.asm:3097
p1768   = $1768 =  5992          m80b.asm:3111
p177A   = $177A =  6010          m80b.asm:3125
p178A   = $178A =  6026          m80b.asm:3134
p179A   = $179A =  6042          m80b.asm:3145
p17A7   = $17A7 =  6055          m80b.asm:3151
p17B4   = $17B4 =  6068          m80b.asm:3158
p17B9   = $17B9 =  6073          m80b.asm:3160
p17BE   = $17BE =  6078          m80b.asm:3164
p17C5   = $17C5 =  6085          m80b.asm:3167
p17D5   = $17D5 =  6101          m80b.asm:3177
p180F   = $180F =  6159          m80b.asm:3206
p1826   = $1826 =  6182          m80b.asm:3218
p1834   = $1834 =  6196          m80b.asm:3229
p1837   = $1837 =  6199          m80b.asm:3231
p1839   = $1839 =  6201          m80b.asm:3232
p1850   = $1850 =  6224          m80b.asm:3243
p1862   = $1862 =  6242          m80b.asm:3252
p1888   = $1888 =  6280          m80b.asm:3281
p1893   = $1893 =  6291          m80b.asm:3287
p18B3   = $18B3 =  6323          m80b.asm:3304
p18C7   = $18C7 =  6343          m80b.asm:3315
p18C9   = $18C9 =  6345          m80b.asm:3318
p18EE   = $18EE =  6382          m80b.asm:3339
p18F1   = $18F1 =  6385          m80b.asm:3341
p18FF   = $18FF =  6399          m80b.asm:3350
p1908   = $1908 =  6408          m80b.asm:3358
p1914   = $1914 =  6420          m80b.asm:3365
p191D   = $191D =  6429          m80b.asm:3372
p1928   = $1928 =  6440          m80b.asm:3377
p192B   = $192B =  6443          m80b.asm:3381
p1947   = $1947 =  6471          m80b.asm:3395
p194E   = $194E =  6478          m80b.asm:3398
p1953   = $1953 =  6483          m80b.asm:3400
p196F   = $196F =  6511          m80b.asm:3411
p197E   = $197E =  6526          m80b.asm:3421
p199F   = $199F =  6559          m80b.asm:3436
p19BF   = $19BF =  6591          m80b.asm:3451
p19CB   = $19CB =  6603          m80b.asm:3456
p19DF   = $19DF =  6623          m80b.asm:3465
p19FD   = $19FD =  6653          m80b.asm:3478
p1A02   = $1A02 =  6658          m80b.asm:3480
p1A23   = $1A23 =  6691          m80b.asm:3495
p1A28   = $1A28 =  6696          m80b.asm:3497
p1A36   = $1A36 =  6710          m80b.asm:3504
p1A43   = $1A43 =  6723          m80b.asm:3510
p1A48   = $1A48 =  6728          m80b.asm:3512
p1A4B   = $1A4B =  6731          m80b.asm:3513
p1A5A   = $1A5A =  6746          m80b.asm:3521
p1A64   = $1A64 =  6756          m80b.asm:3526
p1A70   = $1A70 =  6768          m80b.asm:3533
p1A8D   = $1A8D =  6797          m80b.asm:3544
p1AA4   = $1AA4 =  6820          m80b.asm:3557
p1ABE   = $1ABE =  6846          m80b.asm:3570
p1ACD   = $1ACD =  6861          m80b.asm:3576
p1AD5   = $1AD5 =  6869          m80b.asm:3580
p1ADF   = $1ADF =  6879          m80b.asm:3587
p1AE2   = $1AE2 =  6882          m80b.asm:3588
p1AE4   = $1AE4 =  6884          m80b.asm:3590
p1B16   = $1B16 =  6934          m80b.asm:3611
p1B29   = $1B29 =  6953          m80b.asm:3621
p1B30   = $1B30 =  6960          m80b.asm:3624 (unused)
p1B31   = $1B31 =  6961          m80b.asm:3626
p1B34   = $1B34 =  6964          m80b.asm:3627
p1B35   = $1B35 =  6965          m80b.asm:3628 (unused)
p1B41   = $1B41 =  6977          m80b.asm:3633 (unused)
p1B6A   = $1B6A =  7018          m80b.asm:3655
p1B7F   = $1B7F =  7039          m80b.asm:3667
p1B83   = $1B83 =  7043          m80b.asm:3670
p1B8F   = $1B8F =  7055          m80b.asm:3678 (unused)
p1BA6   = $1BA6 =  7078          m80b.asm:3688
p1BA9   = $1BA9 =  7081          m80b.asm:3692
p1BD0   = $1BD0 =  7120          m80b.asm:3713
p1BDD   = $1BDD =  7133          m80b.asm:3719
p1BDE   = $1BDE =  7134          m80b.asm:3720
p1BE8   = $1BE8 =  7144          m80b.asm:3726
p1BF6   = $1BF6 =  7158          m80b.asm:3737
p1C01   = $1C01 =  7169          m80b.asm:3744
p1C0B   = $1C0B =  7179          m80b.asm:3751
p1C15   = $1C15 =  7189          m80b.asm:3758
p1C1B   = $1C1B =  7195          m80b.asm:3762
p1C27   = $1C27 =  7207          m80b.asm:3771
p1C2B   = $1C2B =  7211          m80b.asm:3773
p1C2E   = $1C2E =  7214          m80b.asm:3775
p1C3A   = $1C3A =  7226          m80b.asm:3784
p1C46   = $1C46 =  7238          m80b.asm:3792
p1C5A   = $1C5A =  7258          m80b.asm:3803
p1C5C   = $1C5C =  7260          m80b.asm:3806
p1CA8   = $1CA8 =  7336          m80b.asm:3837
p1CAC   = $1CAC =  7340          m80b.asm:3841
p1CAF   = $1CAF =  7343          m80b.asm:3843
p1CB2   = $1CB2 =  7346          m80b.asm:3845
p1CB5   = $1CB5 =  7349          m80b.asm:3847
p1CB8   = $1CB8 =  7352          m80b.asm:3849
p1CBB   = $1CBB =  7355          m80b.asm:3851
p1CBE   = $1CBE =  7358          m80b.asm:3853
p1CC0   = $1CC0 =  7360          m80b.asm:3854
p1CC3   = $1CC3 =  7363          m80b.asm:3857
p1CD9   = $1CD9 =  7385          m80b.asm:3867
p1CEF   = $1CEF =  7407          m80b.asm:3877
p1CF4   = $1CF4 =  7412          m80b.asm:3880
p1CF9   = $1CF9 =  7417          m80b.asm:3884
p1D03   = $1D03 =  7427          m80b.asm:3890
p1D07   = $1D07 =  7431          m80b.asm:3893
p1D0C   = $1D0C =  7436          m80b.asm:3896
p1D48   = $1D48 =  7496          m80b.asm:3923
p1D64   = $1D64 =  7524          m80b.asm:3934
p1D6E   = $1D6E =  7534          m80b.asm:3938
p1D71   = $1D71 =  7537          m80b.asm:3939
p1D77   = $1D77 =  7543          m80b.asm:3943
p1D7A   = $1D7A =  7546          m80b.asm:3944
p1D95   = $1D95 =  7573          m80b.asm:3957
p1D9D   = $1D9D =  7581          m80b.asm:3961
p1DA5   = $1DA5 =  7589          m80b.asm:3965
p1DA8   = $1DA8 =  7592          m80b.asm:3966
p1DBC   = $1DBC =  7612          m80b.asm:3981
p1DBF   = $1DBF =  7615          m80b.asm:3982
p1DD5   = $1DD5 =  7637          m80b.asm:3996
p1DD8   = $1DD8 =  7640          m80b.asm:3997
p1DEA   = $1DEA =  7658          m80b.asm:4005
p1DF5   = $1DF5 =  7669          m80b.asm:4014
p1DFB   = $1DFB =  7675          m80b.asm:4018
p1E06   = $1E06 =  7686          m80b.asm:4023
p1E18   = $1E18 =  7704          m80b.asm:4030
p1E30   = $1E30 =  7728          m80b.asm:4046
p1E34   = $1E34 =  7732          m80b.asm:4049
p1E3D   = $1E3D =  7741          m80b.asm:4053
p1E43   = $1E43 =  7747          m80b.asm:4056
p1E62   = $1E62 =  7778          m80b.asm:4068
p1E67   = $1E67 =  7783          m80b.asm:4071
p1E6F   = $1E6F =  7791          m80b.asm:4076
p1E74   = $1E74 =  7796          m80b.asm:4078
p1E8C   = $1E8C =  7820          m80b.asm:4091
p1E97   = $1E97 =  7831          m80b.asm:4096
p1EB0   = $1EB0 =  7856          m80b.asm:4107
p1EB9   = $1EB9 =  7865          m80b.asm:4111
p1EBF   = $1EBF =  7871          m80b.asm:4114
p1EED   = $1EED =  7917          m80b.asm:4138
p1F04   = $1F04 =  7940          m80b.asm:4147
p1F1D   = $1F1D =  7965          m80b.asm:4159
p1F21   = $1F21 =  7969          m80b.asm:4161
p1F32   = $1F32 =  7986          m80b.asm:4169
p1F43   = $1F43 =  8003          m80b.asm:4177
p1F51   = $1F51 =  8017          m80b.asm:4188
p1F62   = $1F62 =  8034          m80b.asm:4199
p1F74   = $1F74 =  8052          m80b.asm:4208
p1FA8   = $1FA8 =  8104          m80b.asm:4238
p1FAE   = $1FAE =  8110          m80b.asm:4243
p1FCE   = $1FCE =  8142          m80b.asm:4262
p1FD4   = $1FD4 =  8148          m80b.asm:4266
p1FE4   = $1FE4 =  8164          m80b.asm:4274
p2000   = $2000 =  8192          m80b.asm:4286
p2065   = $2065 =  8293          m80b.asm:4307
p207A   = $207A =  8314          m80b.asm:4319
p2083   = $2083 =  8323          m80b.asm:4324
p20B3   = $20B3 =  8371          m80b.asm:4345
p20CE   = $20CE =  8398          m80b.asm:4355
p20E5   = $20E5 =  8421          m80b.asm:4366
p2107   = $2107 =  8455          m80b.asm:4381
p211B   = $211B =  8475          m80b.asm:4392
p2138   = $2138 =  8504          m80b.asm:4406
p213C   = $213C =  8508          m80b.asm:4409
p214F   = $214F =  8527          m80b.asm:4418
p215D   = $215D =  8541          m80b.asm:4427
p2160   = $2160 =  8544          m80b.asm:4428
p2166   = $2166 =  8550          m80b.asm:4431
p2179   = $2179 =  8569          m80b.asm:4444
p217D   = $217D =  8573          m80b.asm:4447
p217E   = $217E =  8574          m80b.asm:4449
p2183   = $2183 =  8579          m80b.asm:4453
p218E   = $218E =  8590          m80b.asm:4462
p219E   = $219E =  8606          m80b.asm:4472
p219F   = $219F =  8607          m80b.asm:4473
p21A8   = $21A8 =  8616          m80b.asm:4479
p21C5   = $21C5 =  8645          m80b.asm:4492
p21CF   = $21CF =  8655          m80b.asm:4496
p21DE   = $21DE =  8670          m80b.asm:4503
p21F2   = $21F2 =  8690          m80b.asm:4517
p2204   = $2204 =  8708          m80b.asm:4527
p220C   = $220C =  8716          m80b.asm:4533
p2236   = $2236 =  8758          m80b.asm:4554
p223F   = $223F =  8767          m80b.asm:4560
p2246   = $2246 =  8774          m80b.asm:4565 (unused)
p2252   = $2252 =  8786          m80b.asm:4571
p228B   = $228B =  8843          m80b.asm:4594
p22A1   = $22A1 =  8865          m80b.asm:4610
p22AA   = $22AA =  8874          m80b.asm:4616
p22B6   = $22B6 =  8886          m80b.asm:4625
p22C4   = $22C4 =  8900          m80b.asm:4634
p22E3   = $22E3 =  8931          m80b.asm:4652
p22EC   = $22EC =  8940          m80b.asm:4656
p22F3   = $22F3 =  8947          m80b.asm:4662
p2350   = $2350 =  9040          m80b.asm:4706
p235A   = $235A =  9050          m80b.asm:4715
p2364   = $2364 =  9060          m80b.asm:4724
p236E   = $236E =  9070          m80b.asm:4733
p2385   = $2385 =  9093          m80b.asm:4747
p239D   = $239D =  9117          m80b.asm:4762
p23A2   = $23A2 =  9122          m80b.asm:4765
p23AC   = $23AC =  9132          m80b.asm:4772
p23AE   = $23AE =  9134          m80b.asm:4775
p23B2   = $23B2 =  9138          m80b.asm:4777
p23CF   = $23CF =  9167          m80b.asm:4798
p23E0   = $23E0 =  9184          m80b.asm:4808
p23EE   = $23EE =  9198          m80b.asm:4813
p23FE   = $23FE =  9214          m80b.asm:4821
p2424   = $2424 =  9252          m80b.asm:4837
p2425   = $2425 =  9253          m80b.asm:4838
p2439   = $2439 =  9273          m80b.asm:4847
p243F   = $243F =  9279          m80b.asm:4851
p2447   = $2447 =  9287          m80b.asm:4855
p244E   = $244E =  9294          m80b.asm:4863
p2463   = $2463 =  9315          m80b.asm:4873
p2469   = $2469 =  9321          m80b.asm:4877
p2470   = $2470 =  9328          m80b.asm:4881
p2482   = $2482 =  9346          m80b.asm:4894
p2484   = $2484 =  9348          m80b.asm:4897
p2494   = $2494 =  9364          m80b.asm:4905
p249E   = $249E =  9374          m80b.asm:4912
p24B3   = $24B3 =  9395          m80b.asm:4922
p24D8   = $24D8 =  9432          m80b.asm:4947
p24DB   = $24DB =  9435          m80b.asm:4951
p24EC   = $24EC =  9452          m80b.asm:4964
p24F5   = $24F5 =  9461          m80b.asm:4971
p24F6   = $24F6 =  9462          m80b.asm:4972
p250F   = $250F =  9487          m80b.asm:4996
p2517   = $2517 =  9495          m80b.asm:5005
p2535   = $2535 =  9525          m80b.asm:5026
p2546   = $2546 =  9542          m80b.asm:5036
p2551   = $2551 =  9553          m80b.asm:5043
p255C   = $255C =  9564          m80b.asm:5048
p2568   = $2568 =  9576          m80b.asm:5054
p256F   = $256F =  9583          m80b.asm:5057
p2575   = $2575 =  9589          m80b.asm:5063
p257B   = $257B =  9595          m80b.asm:5066
p2584   = $2584 =  9604          m80b.asm:5070
p2588   = $2588 =  9608          m80b.asm:5072
p2599   = $2599 =  9625          m80b.asm:5084
p25A7   = $25A7 =  9639          m80b.asm:5091
p25B6   = $25B6 =  9654          m80b.asm:5100
p25C2   = $25C2 =  9666          m80b.asm:5107
p25CC   = $25CC =  9676          m80b.asm:5112
p25DE   = $25DE =  9694          m80b.asm:5123
p25E2   = $25E2 =  9698          m80b.asm:5128
p25F1   = $25F1 =  9713          m80b.asm:5136
p25F4   = $25F4 =  9716          m80b.asm:5140
p2600   = $2600 =  9728          m80b.asm:5148
p260F   = $260F =  9743          m80b.asm:5159
p261E   = $261E =  9758          m80b.asm:5170
p262D   = $262D =  9773          m80b.asm:5181
p2643   = $2643 =  9795          m80b.asm:5196
p264C   = $264C =  9804          m80b.asm:5203
p2663   = $2663 =  9827          m80b.asm:5217
p2678   = $2678 =  9848          m80b.asm:5227
p267E   = $267E =  9854          m80b.asm:5231
p26B1   = $26B1 =  9905          m80b.asm:5255
p26B5   = $26B5 =  9909          m80b.asm:5257
p26DF   = $26DF =  9951          m80b.asm:5276
p26EF   = $26EF =  9967          m80b.asm:5285
p2708   = $2708 =  9992          m80b.asm:5296
p271D   = $271D = 10013          m80b.asm:5305
p2732   = $2732 = 10034          m80b.asm:5314
p274B   = $274B = 10059          m80b.asm:5326
p2760   = $2760 = 10080          m80b.asm:5342
p2768   = $2768 = 10088          m80b.asm:5347
p2787   = $2787 = 10119          m80b.asm:5364
p278D   = $278D = 10125          m80b.asm:5369
p27A0   = $27A0 = 10144          m80b.asm:5376
p27B3   = $27B3 = 10163          m80b.asm:5386
p27C0   = $27C0 = 10176          m80b.asm:5392
p27C7   = $27C7 = 10183          m80b.asm:5395
p27DD   = $27DD = 10205          m80b.asm:5404
p27F7   = $27F7 = 10231          m80b.asm:5416
p27FF   = $27FF = 10239          m80b.asm:5420
p2816   = $2816 = 10262          m80b.asm:5432
p281C   = $281C = 10268          m80b.asm:5435
p2828   = $2828 = 10280          m80b.asm:5441 (unused)
p2832   = $2832 = 10290          m80b.asm:5447
p283E   = $283E = 10302          m80b.asm:5455
p2841   = $2841 = 10305          m80b.asm:5456
p284E   = $284E = 10318          m80b.asm:5461
p2850   = $2850 = 10320          m80b.asm:5463
p2864   = $2864 = 10340          m80b.asm:5472
p286F   = $286F = 10351          m80b.asm:5480
p287C   = $287C = 10364          m80b.asm:5488
p2883   = $2883 = 10371          m80b.asm:5493
p289B   = $289B = 10395          m80b.asm:5505
p28A4   = $28A4 = 10404          m80b.asm:5509
p28B9   = $28B9 = 10425          m80b.asm:5521
p28C4   = $28C4 = 10436          m80b.asm:5527
p28D7   = $28D7 = 10455          m80b.asm:5538
p28EA   = $28EA = 10474          m80b.asm:5547
p2900   = $2900 = 10496          m80b.asm:5557
p2912   = $2912 = 10514          m80b.asm:5566
p2916   = $2916 = 10518          m80b.asm:5569
p2931   = $2931 = 10545          m80b.asm:5582
p293B   = $293B = 10555          m80b.asm:5587
p293F   = $293F = 10559          m80b.asm:5590
p2950   = $2950 = 10576          m80b.asm:5602
p295C   = $295C = 10588          m80b.asm:5608
p2976   = $2976 = 10614          m80b.asm:5623
p297F   = $297F = 10623          m80b.asm:5629
p2987   = $2987 = 10631          m80b.asm:5634
p2994   = $2994 = 10644          m80b.asm:5642
p299E   = $299E = 10654          m80b.asm:5647
p29A8   = $29A8 = 10664          m80b.asm:5652
p29A9   = $29A9 = 10665          m80b.asm:5653
p29C0   = $29C0 = 10688          m80b.asm:5663
p29C6   = $29C6 = 10694          m80b.asm:5665
p29CB   = $29CB = 10699          m80b.asm:5669
p29D1   = $29D1 = 10705          m80b.asm:5674
p29D8   = $29D8 = 10712          m80b.asm:5677
p29E3   = $29E3 = 10723          m80b.asm:5683
p29E4   = $29E4 = 10724          m80b.asm:5684
p29F7   = $29F7 = 10743          m80b.asm:5694
p29F8   = $29F8 = 10744          m80b.asm:5695
p2A1C   = $2A1C = 10780          m80b.asm:5714
p2A2A   = $2A2A = 10794          m80b.asm:5723
p2A2D   = $2A2D = 10797          m80b.asm:5724
p2A32   = $2A32 = 10802          m80b.asm:5728
p2A3A   = $2A3A = 10810          m80b.asm:5731
p2A52   = $2A52 = 10834          m80b.asm:5741
p2A59   = $2A59 = 10841          m80b.asm:5744
p2A62   = $2A62 = 10850          m80b.asm:5750
p2A6C   = $2A6C = 10860          m80b.asm:5755
p2A72   = $2A72 = 10866          m80b.asm:5758
p2A89   = $2A89 = 10889          m80b.asm:5775
p2AB5   = $2AB5 = 10933          m80b.asm:5802
p2ABE   = $2ABE = 10942          m80b.asm:5806
p2AC0   = $2AC0 = 10944          m80b.asm:5807
p2AC5   = $2AC5 = 10949          m80b.asm:5809
p2ACC   = $2ACC = 10956          m80b.asm:5812
p2AE2   = $2AE2 = 10978          m80b.asm:5826
p2AE9   = $2AE9 = 10985          m80b.asm:5832
p2B0B   = $2B0B = 11019          m80b.asm:5846
p2B13   = $2B13 = 11027          m80b.asm:5850
p2B1A   = $2B1A = 11034          m80b.asm:5854
p2B21   = $2B21 = 11041          m80b.asm:5858
p2B2C   = $2B2C = 11052          m80b.asm:5863
p2B3A   = $2B3A = 11066          m80b.asm:5870
p2B47   = $2B47 = 11079          m80b.asm:5877
p2B4D   = $2B4D = 11085          m80b.asm:5881
p2B55   = $2B55 = 11093          m80b.asm:5885
p2B59   = $2B59 = 11097          m80b.asm:5887
p2B5C   = $2B5C = 11100          m80b.asm:5889
p2B64   = $2B64 = 11108          m80b.asm:5893
p2B68   = $2B68 = 11112          m80b.asm:5896
p2B6D   = $2B6D = 11117          m80b.asm:5899
p2B7D   = $2B7D = 11133          m80b.asm:5907
p2B83   = $2B83 = 11139          m80b.asm:5910
p2B8B   = $2B8B = 11147          m80b.asm:5914
p2B92   = $2B92 = 11154          m80b.asm:5918
p2BBE   = $2BBE = 11198          m80b.asm:5942
p2BE1   = $2BE1 = 11233          m80b.asm:5959
p2BEA   = $2BEA = 11242          m80b.asm:5963
p2BFE   = $2BFE = 11262          m80b.asm:5971
p2C16   = $2C16 = 11286          m80b.asm:5984
p2C31   = $2C31 = 11313          m80b.asm:5996
p2C35   = $2C35 = 11317          m80b.asm:5998
p2C43   = $2C43 = 11331          m80b.asm:6006
p2C78   = $2C78 = 11384          m80b.asm:6027
p2C84   = $2C84 = 11396          m80b.asm:6033
p2C8E   = $2C8E = 11406          m80b.asm:6042
p2CCC   = $2CCC = 11468          m80b.asm:6070
p2CD4   = $2CD4 = 11476          m80b.asm:6076
p2CDD   = $2CDD = 11485          m80b.asm:6082
p2CE0   = $2CE0 = 11488          m80b.asm:6083
p2CFF   = $2CFF = 11519          m80b.asm:6102
p2D00   = $2D00 = 11520          m80b.asm:6103
p2D06   = $2D06 = 11526          m80b.asm:6107
p2D0C   = $2D0C = 11532          m80b.asm:6110
p2D15   = $2D15 = 11541          m80b.asm:6115
p2D27   = $2D27 = 11559          m80b.asm:6132
p2D3E   = $2D3E = 11582          m80b.asm:6143
p2D44   = $2D44 = 11588          m80b.asm:6146
p2D6D   = $2D6D = 11629          m80b.asm:6165
p2D78   = $2D78 = 11640          m80b.asm:6171
p2DB2   = $2DB2 = 11698          m80b.asm:6207
p2DE2   = $2DE2 = 11746          m80b.asm:6231
p2DE8   = $2DE8 = 11752          m80b.asm:6233
p2E04   = $2E04 = 11780          m80b.asm:6248
p2E1A   = $2E1A = 11802          m80b.asm:6257
p2E41   = $2E41 = 11841          m80b.asm:6278
p2E5A   = $2E5A = 11866          m80b.asm:6290
p2ECB   = $2ECB = 11979          m80b.asm:6339
p2ED1   = $2ED1 = 11985          m80b.asm:6341
p2F06   = $2F06 = 12038          m80b.asm:6364
p2F14   = $2F14 = 12052          m80b.asm:6371
p2F1C   = $2F1C = 12060          m80b.asm:6374
p2F2C   = $2F2C = 12076          m80b.asm:6382
p2F43   = $2F43 = 12099          m80b.asm:6391
p2F6B   = $2F6B = 12139          m80b.asm:6399
p2F77   = $2F77 = 12151          m80b.asm:6405
p2FA8   = $2FA8 = 12200          m80b.asm:6414
p2FB4   = $2FB4 = 12212          m80b.asm:6418
p2FCD   = $2FCD = 12237          m80b.asm:6430
p2FD0   = $2FD0 = 12240          m80b.asm:6431
p2FFE   = $2FFE = 12286          m80b.asm:6443
p3023   = $3023 = 12323          m80b.asm:6458
p302E   = $302E = 12334          m80b.asm:6463
p303E   = $303E = 12350          m80b.asm:6472
p3048   = $3048 = 12360          m80b.asm:6479
p305E   = $305E = 12382          m80b.asm:6492
p3072   = $3072 = 12402          m80b.asm:6505
p308A   = $308A = 12426          m80b.asm:6519
p3095   = $3095 = 12437          m80b.asm:6525
p30C3   = $30C3 = 12483          m80b.asm:6546
p30CF   = $30CF = 12495          m80b.asm:6551
p30D1   = $30D1 = 12497          m80b.asm:6552
p30D6   = $30D6 = 12502          m80b.asm:6555
p30DD   = $30DD = 12509          m80b.asm:6561
p30E2   = $30E2 = 12514          m80b.asm:6563
p30F0   = $30F0 = 12528          m80b.asm:6571
p3100   = $3100 = 12544          m80b.asm:6583
p310B   = $310B = 12555          m80b.asm:6590
p3115   = $3115 = 12565          m80b.asm:6595
p3123   = $3123 = 12579          m80b.asm:6603
p3131   = $3131 = 12593          m80b.asm:6614
p313C   = $313C = 12604          m80b.asm:6621
p313E   = $313E = 12606          m80b.asm:6624
p3150   = $3150 = 12624          m80b.asm:6634
p315C   = $315C = 12636          m80b.asm:6640
p3164   = $3164 = 12644          m80b.asm:6645
p316B   = $316B = 12651          m80b.asm:6650
p3177   = $3177 = 12663          m80b.asm:6656
p317D   = $317D = 12669          m80b.asm:6660
p3190   = $3190 = 12688          m80b.asm:6668
p3196   = $3196 = 12694          m80b.asm:6671
p319F   = $319F = 12703          m80b.asm:6675
p31A5   = $31A5 = 12709          m80b.asm:6677
p31AB   = $31AB = 12715          m80b.asm:6680
p31B6   = $31B6 = 12726          m80b.asm:6685
p31B9   = $31B9 = 12729          m80b.asm:6686
p31C7   = $31C7 = 12743          m80b.asm:6692
p31CA   = $31CA = 12746          m80b.asm:6693
p31EE   = $31EE = 12782          m80b.asm:6708
p31FF   = $31FF = 12799          m80b.asm:6719
p3214   = $3214 = 12820          m80b.asm:6733
p3223   = $3223 = 12835          m80b.asm:6744
p322A   = $322A = 12842          m80b.asm:6749
p3238   = $3238 = 12856          m80b.asm:6758
p323B   = $323B = 12859          m80b.asm:6761
p3243   = $3243 = 12867          m80b.asm:6766
p3246   = $3246 = 12870          m80b.asm:6770
p3249   = $3249 = 12873          m80b.asm:6774
p3269   = $3269 = 12905          m80b.asm:6794
p3278   = $3278 = 12920          m80b.asm:6803
p3282   = $3282 = 12930          m80b.asm:6812
p328C   = $328C = 12940          m80b.asm:6819
p3294   = $3294 = 12948          m80b.asm:6824
p32CB   = $32CB = 13003          m80b.asm:6846
p32CD   = $32CD = 13005          m80b.asm:6848
p32D3   = $32D3 = 13011          m80b.asm:6851
p32F9   = $32F9 = 13049          m80b.asm:6867
p32FB   = $32FB = 13051          m80b.asm:6869
p330E   = $330E = 13070          m80b.asm:6882
p3317   = $3317 = 13079          m80b.asm:6887
p331B   = $331B = 13083          m80b.asm:6890
p332E   = $332E = 13102          m80b.asm:6901
p3336   = $3336 = 13110          m80b.asm:6905
p333E   = $333E = 13118          m80b.asm:6911
p3347   = $3347 = 13127          m80b.asm:6918
p3352   = $3352 = 13138          m80b.asm:6923
p3366   = $3366 = 13158          m80b.asm:6934
p3371   = $3371 = 13169          m80b.asm:6942
p337D   = $337D = 13181          m80b.asm:6949
p337E   = $337E = 13182          m80b.asm:6950
p338F   = $338F = 13199          m80b.asm:6959
p339B   = $339B = 13211          m80b.asm:6966
p33A2   = $33A2 = 13218          m80b.asm:6971
p33A6   = $33A6 = 13222          m80b.asm:6974
p33B0   = $33B0 = 13232          m80b.asm:6979
p33B5   = $33B5 = 13237          m80b.asm:6982
p33CD   = $33CD = 13261          m80b.asm:6999
p33D2   = $33D2 = 13266          m80b.asm:7002
p33D8   = $33D8 = 13272          m80b.asm:7005
p33EB   = $33EB = 13291          m80b.asm:7018
p33F0   = $33F0 = 13296          m80b.asm:7024
p3410   = $3410 = 13328          m80b.asm:7038
p3414   = $3414 = 13332          m80b.asm:7041
p3441   = $3441 = 13377          m80b.asm:7047
p344F   = $344F = 13391          m80b.asm:7052
p345C   = $345C = 13404          m80b.asm:7059
p345E   = $345E = 13406          m80b.asm:7061
p3463   = $3463 = 13411          m80b.asm:7064
p3479   = $3479 = 13433          m80b.asm:7073
p3484   = $3484 = 13444          m80b.asm:7080
p3485   = $3485 = 13445          m80b.asm:7081 (unused)
p3491   = $3491 = 13457          m80b.asm:7087 (unused)
p34A0   = $34A0 = 13472          m80b.asm:7096 (unused)
p34A6   = $34A6 = 13478          m80b.asm:7101
p34AA   = $34AA = 13482          m80b.asm:7103 (unused)
p34AB   = $34AB = 13483          m80b.asm:7104
p34BE   = $34BE = 13502          m80b.asm:7113
p34C1   = $34C1 = 13505          m80b.asm:7114
p34C6   = $34C6 = 13510          m80b.asm:7117
p34D5   = $34D5 = 13525          m80b.asm:7127
p34E0   = $34E0 = 13536          m80b.asm:7132
p34ED   = $34ED = 13549          m80b.asm:7138
p34F9   = $34F9 = 13561          m80b.asm:7144
p3508   = $3508 = 13576          m80b.asm:7154
p350E   = $350E = 13582          m80b.asm:7159
p3528   = $3528 = 13608          m80b.asm:7174
p352B   = $352B = 13611          m80b.asm:7176
p355E   = $355E = 13662          m80b.asm:7203
p3566   = $3566 = 13670          m80b.asm:7208
p356E   = $356E = 13678          m80b.asm:7213
p357B   = $357B = 13691          m80b.asm:7221
p358A   = $358A = 13706          m80b.asm:7231
p3594   = $3594 = 13716          m80b.asm:7240
p35B0   = $35B0 = 13744          m80b.asm:7254
p35C6   = $35C6 = 13766          m80b.asm:7265
p35DB   = $35DB = 13787          m80b.asm:7279
p35EC   = $35EC = 13804          m80b.asm:7287
p35FA   = $35FA = 13818          m80b.asm:7293
p361F   = $361F = 13855          m80b.asm:7314
p3633   = $3633 = 13875          m80b.asm:7325
p3637   = $3637 = 13879          m80b.asm:7328
p363D   = $363D = 13885          m80b.asm:7333
p3644   = $3644 = 13892          m80b.asm:7336
p3647   = $3647 = 13895          m80b.asm:7337
p3666   = $3666 = 13926          m80b.asm:7357
p3668   = $3668 = 13928          m80b.asm:7359
p366D   = $366D = 13933          m80b.asm:7362
p3687   = $3687 = 13959          m80b.asm:7375
p369B   = $369B = 13979          m80b.asm:7383
p36A1   = $36A1 = 13985          m80b.asm:7386
p36A2   = $36A2 = 13986          m80b.asm:7387
p36B1   = $36B1 = 14001          m80b.asm:7394
p36DC   = $36DC = 14044          m80b.asm:7420
p36F1   = $36F1 = 14065          m80b.asm:7430
p36FD   = $36FD = 14077          m80b.asm:7436
p3702   = $3702 = 14082          m80b.asm:7439
p370D   = $370D = 14093          m80b.asm:7446
p3719   = $3719 = 14105          m80b.asm:7452
p3734   = $3734 = 14132          m80b.asm:7465
p373B   = $373B = 14139          m80b.asm:7471
p3747   = $3747 = 14151          m80b.asm:7476
p3756   = $3756 = 14166          m80b.asm:7482
p3769   = $3769 = 14185          m80b.asm:7491
p3775   = $3775 = 14197          m80b.asm:7496
p3784   = $3784 = 14212          m80b.asm:7503
p378D   = $378D = 14221          m80b.asm:7509
p3799   = $3799 = 14233          m80b.asm:7515
p37A5   = $37A5 = 14245          m80b.asm:7523
p37AF   = $37AF = 14255          m80b.asm:7532
p37C3   = $37C3 = 14275          m80b.asm:7542
p37F7   = $37F7 = 14327          m80b.asm:7573
p381C   = $381C = 14364          m80b.asm:7591
p381D   = $381D = 14365          m80b.asm:7592
p3831   = $3831 = 14385          m80b.asm:7600
p3837   = $3837 = 14391          m80b.asm:7604
p384F   = $384F = 14415          m80b.asm:7619
p3892   = $3892 = 14482          m80b.asm:7661
p38A5   = $38A5 = 14501          m80b.asm:7671
p38CD   = $38CD = 14541          m80b.asm:7689
p38DC   = $38DC = 14556          m80b.asm:7700
p38EA   = $38EA = 14570          m80b.asm:7708
p3911   = $3911 = 14609          m80b.asm:7732
p392B   = $392B = 14635          m80b.asm:7744
p3949   = $3949 = 14665          m80b.asm:7758
p3954   = $3954 = 14676          m80b.asm:7764
p395B   = $395B = 14683          m80b.asm:7772
p3986   = $3986 = 14726          m80b.asm:7793
p3994   = $3994 = 14740          m80b.asm:7800
p39A6   = $39A6 = 14758          m80b.asm:7813
p39AF   = $39AF = 14767          m80b.asm:7821
p39BA   = $39BA = 14778          m80b.asm:7831
p39CF   = $39CF = 14799          m80b.asm:7843
p39FB   = $39FB = 14843          m80b.asm:7863
p3A0F   = $3A0F = 14863          m80b.asm:7876
p3A25   = $3A25 = 14885          m80b.asm:7892
p3A2A   = $3A2A = 14890          m80b.asm:7895
p3A3B   = $3A3B = 14907          m80b.asm:7908
p3A3D   = $3A3D = 14909          m80b.asm:7910 (unused)
p3A57   = $3A57 = 14935          m80b.asm:7925
p3A61   = $3A61 = 14945          m80b.asm:7932
p3A72   = $3A72 = 14962          m80b.asm:7945
p3A82   = $3A82 = 14978          m80b.asm:7955
p3A88   = $3A88 = 14984          m80b.asm:7962
p3A97   = $3A97 = 14999          m80b.asm:7971
p3A9E   = $3A9E = 15006          m80b.asm:7977
p3AC6   = $3AC6 = 15046          m80b.asm:8007
p3AE1   = $3AE1 = 15073          m80b.asm:8025
p3AED   = $3AED = 15085          m80b.asm:8034
p3AF9   = $3AF9 = 15097          m80b.asm:8042
p3B00   = $3B00 = 15104          m80b.asm:8048
p3B12   = $3B12 = 15122          m80b.asm:8056
p3B38   = $3B38 = 15160          m80b.asm:8078
p3B45   = $3B45 = 15173          m80b.asm:8088
p3B49   = $3B49 = 15177          m80b.asm:8091
p3B4F   = $3B4F = 15183          m80b.asm:8094
p3B88   = $3B88 = 15240          m80b.asm:8128
p3B95   = $3B95 = 15253          m80b.asm:8138
p3B97   = $3B97 = 15255          m80b.asm:8141
p3BA0   = $3BA0 = 15264          m80b.asm:8145
p3BB7   = $3BB7 = 15287          m80b.asm:8161
p3BC0   = $3BC0 = 15296          m80b.asm:8166
p3BCA   = $3BCA = 15306          m80b.asm:8174
p3BE6   = $3BE6 = 15334          m80b.asm:8197
p3C32   = $3C32 = 15410          m80b.asm:8242
p3C35   = $3C35 = 15413          m80b.asm:8243
p3C3B   = $3C3B = 15419          m80b.asm:8249
p3C4C   = $3C4C = 15436          m80b.asm:8259
p3C4D   = $3C4D = 15437          m80b.asm:8260
p3C6D   = $3C6D = 15469          m80b.asm:8274
p3C75   = $3C75 = 15477          m80b.asm:8280
p3C7A   = $3C7A = 15482          m80b.asm:8283
p3C7C   = $3C7C = 15484          m80b.asm:8284
p3C7F   = $3C7F = 15487          m80b.asm:8286
p3C85   = $3C85 = 15493          m80b.asm:8290
p3C88   = $3C88 = 15496          m80b.asm:8292
p3C90   = $3C90 = 15504          m80b.asm:8296
p3CC0   = $3CC0 = 15552          m80b.asm:8329
p3CD4   = $3CD4 = 15572          m80b.asm:8337
p46CC   = $46CC = 18124          m80b.asm:8567
p46D7   = $46D7 = 18135          m80b.asm:8574
p46DD   = $46DD = 18141          m80b.asm:8577
p46E3   = $46E3 = 18147          m80b.asm:8580
p46E6   = $46E6 = 18150          m80b.asm:8581
p470C   = $470C = 18188          m80b.asm:8593
p471B   = $471B = 18203          m80b.asm:8600
p4724   = $4724 = 18212          m80b.asm:8604
p4732   = $4732 = 18226          m80b.asm:8613
p473C   = $473C = 18236          m80b.asm:8620
p4758   = $4758 = 18264          m80b.asm:8634
p47A7   = $47A7 = 18343          m80b.asm:8666
p47D1   = $47D1 = 18385          m80b.asm:8685
p47DE   = $47DE = 18398          m80b.asm:8690
p47FB   = $47FB = 18427          m80b.asm:8701
p4823   = $4823 = 18467          m80b.asm:8724
p4849   = $4849 = 18505          m80b.asm:8741
p4853   = $4853 = 18515          m80b.asm:8749
p4868   = $4868 = 18536          m80b.asm:8758
p4898   = $4898 = 18584          m80b.asm:8791
p48A8   = $48A8 = 18600          m80b.asm:8800
p48B0   = $48B0 = 18608          m80b.asm:8806
p48B2   = $48B2 = 18610          m80b.asm:8809
p48B8   = $48B8 = 18616          m80b.asm:8814
p48BB   = $48BB = 18619          m80b.asm:8816
p48C4   = $48C4 = 18628          m80b.asm:8824
p48D5   = $48D5 = 18645          m80b.asm:8833
p48DF   = $48DF = 18655          m80b.asm:8840
p48E1   = $48E1 = 18657          m80b.asm:8843
p4905   = $4905 = 18693          m80b.asm:8864
p4913   = $4913 = 18707          m80b.asm:8870
p491A   = $491A = 18714          m80b.asm:8875
p4926   = $4926 = 18726          m80b.asm:8882
p493F   = $493F = 18751          m80b.asm:8897
p4959   = $4959 = 18777          m80b.asm:8912
p496F   = $496F = 18799          m80b.asm:8927
p4978   = $4978 = 18808          m80b.asm:8933
p4980   = $4980 = 18816          m80b.asm:8938
p4998   = $4998 = 18840          m80b.asm:8950
p4999   = $4999 = 18841          m80b.asm:8951
p49A5   = $49A5 = 18853          m80b.asm:8958
p49A6   = $49A6 = 18854          m80b.asm:8959
p49B7   = $49B7 = 18871          m80b.asm:8968
p49BE   = $49BE = 18878          m80b.asm:8972
p49C9   = $49C9 = 18889          m80b.asm:8977
p49D4   = $49D4 = 18900          m80b.asm:8982
p49DF   = $49DF = 18911          m80b.asm:8987
p49ED   = $49ED = 18925          m80b.asm:8993
p49F8   = $49F8 = 18936          m80b.asm:8998
p4A03   = $4A03 = 18947          m80b.asm:9003
p4A10   = $4A10 = 18960          m80b.asm:9009
p4A1C   = $4A1C = 18972          m80b.asm:9015
p4A2A   = $4A2A = 18986          m80b.asm:9023
p4A2D   = $4A2D = 18989          m80b.asm:9025
p4A44   = $4A44 = 19012          m80b.asm:9034
p4A48   = $4A48 = 19016          m80b.asm:9037
p4A4B   = $4A4B = 19019          m80b.asm:9041
p4A55   = $4A55 = 19029          m80b.asm:9048
p4A63   = $4A63 = 19043          m80b.asm:9056
p4A69   = $4A69 = 19049          m80b.asm:9060
p4A74   = $4A74 = 19060          m80b.asm:9068
p4A7A   = $4A7A = 19066          m80b.asm:9071
p4A8D   = $4A8D = 19085          m80b.asm:9082
p4A9A   = $4A9A = 19098          m80b.asm:9087
p4ABE   = $4ABE = 19134          m80b.asm:9108
p4AD1   = $4AD1 = 19153          m80b.asm:9117
p4AD5   = $4AD5 = 19157          m80b.asm:9120
p4AD6   = $4AD6 = 19158          m80b.asm:9121
p4AD7   = $4AD7 = 19159          m80b.asm:9123
p4AED   = $4AED = 19181          m80b.asm:9135
p4AEE   = $4AEE = 19182          m80b.asm:9136
p4B00   = $4B00 = 19200          m80b.asm:9154
p4B13   = $4B13 = 19219          m80b.asm:9165
p4B15   = $4B15 = 19221          m80b.asm:9167
p4B1B   = $4B1B = 19227          m80b.asm:9173
p4B25   = $4B25 = 19237          m80b.asm:9178
p4B3B   = $4B3B = 19259          m80b.asm:9189
p4B4E   = $4B4E = 19278          m80b.asm:9198
p4B73   = $4B73 = 19315          m80b.asm:9227
p4B7F   = $4B7F = 19327          m80b.asm:9235
p4B84   = $4B84 = 19332          m80b.asm:9241
p4BA1   = $4BA1 = 19361          m80b.asm:9259
p4BAA   = $4BAA = 19370          m80b.asm:9265
p4BB8   = $4BB8 = 19384          m80b.asm:9276
p4BCF   = $4BCF = 19407          m80b.asm:9296
p4BD8   = $4BD8 = 19416          m80b.asm:9302
p4BDB   = $4BDB = 19419          m80b.asm:9306
p4C1B   = $4C1B = 19483          m80b.asm:9338
p4C4E   = $4C4E = 19534          m80b.asm:9365
p4C59   = $4C59 = 19545          m80b.asm:9372
p4C64   = $4C64 = 19556          m80b.asm:9381
p4C76   = $4C76 = 19574          m80b.asm:9391
p4CA5   = $4CA5 = 19621          m80b.asm:9419
p4CAD   = $4CAD = 19629          m80b.asm:9422
p4CD2   = $4CD2 = 19666          m80b.asm:9452
p4CDD   = $4CDD = 19677          m80b.asm:9457
p4D04   = $4D04 = 19716          m80b.asm:9481
p4D25   = $4D25 = 19749          m80b.asm:9498
p4D2A   = $4D2A = 19754          m80b.asm:9500
p4D4A   = $4D4A = 19786          m80b.asm:9524
p4D4E   = $4D4E = 19790          m80b.asm:9527
p4D55   = $4D55 = 19797          m80b.asm:9534
p4D71   = $4D71 = 19825          m80b.asm:9550
p4D73   = $4D73 = 19827          m80b.asm:9552
p4D7A   = $4D7A = 19834          m80b.asm:9556
p4D88   = $4D88 = 19848          m80b.asm:9563
p4D8B   = $4D8B = 19851          m80b.asm:9564
p4D90   = $4D90 = 19856          m80b.asm:9570
p4DA1   = $4DA1 = 19873          m80b.asm:9587
p4DB2   = $4DB2 = 19890          m80b.asm:9595
p4E71   = $4E71 = 20081          m80b.asm:9611
p4E8C   = $4E8C = 20108          m80b.asm:9628
p4E90   = $4E90 = 20112          m80b.asm:9631
p4EA5   = $4EA5 = 20133          m80b.asm:9642
p4EB7   = $4EB7 = 20151          m80b.asm:9651
p4EBE   = $4EBE = 20158          m80b.asm:9655
p4ECB   = $4ECB = 20171          m80b.asm:9660
p4EF0   = $4EF0 = 20208          m80b.asm:9684
p4EF4   = $4EF4 = 20212          m80b.asm:9689
p4F1B   = $4F1B = 20251          m80b.asm:9712
p4F2B   = $4F2B = 20267          m80b.asm:9720
p4F30   = $4F30 = 20272          m80b.asm:9723
p4F34   = $4F34 = 20276          m80b.asm:9728
x0080   = $0080 =   128          m80b.asm:8
x033E   = $033E =   830          m80b.asm:302 (unused)
x0500   = $0500 =  1280          m80b.asm:544
x0B3E   = $0B3E =  2878          m80b.asm:1422 (unused)
x1AF7   = $1AF7 =  6903          m80b.asm:3603
x1B66   = $1B66 =  7014          m80b.asm:3653
x1FDA   = $1FDA =  8154          m80b.asm:4270
x2010   = $2010 =  8208          m80b.asm:4295
x2054   = $2054 =  8276          m80b.asm:4301
x22FB   = $22FB =  8955          m80b.asm:4668
x2316   = $2316 =  8982          m80b.asm:4677
x2736   = $2736 = 10038          m80b.asm:5316 (unused)
x2A21   = $2A21 = 10785          m80b.asm:5717 (unused)
x2F4C   = $2F4C = 12108          m80b.asm:6395
x2F4F   = $2F4F = 12111          m80b.asm:6396
x2F5F   = $2F5F = 12127          m80b.asm:6397
x2F86   = $2F86 = 12166          m80b.asm:6411
x2F9A   = $2F9A = 12186          m80b.asm:6412
x2FDD   = $2FDD = 12253          m80b.asm:6439
x2FE9   = $2FE9 = 12265          m80b.asm:6440
x2FF4   = $2FF4 = 12276          m80b.asm:6441
x337B   = $337B = 13179          m80b.asm:6947
x341A   = $341A = 13338          m80b.asm:7044
x46F2   = $46F2 = 18162          m80b.asm:8586
x4DC1   = $4DC1 = 19905          m80b.asm:9601
x4DC7   = $4DC7 = 19911          m80b.asm:9602
x4DED   = $4DED = 19949          m80b.asm:9605
x4DEE   = $4DEE = 19950          m80b.asm:9606
x4DEF   = $4DEF = 19951          m80b.asm:9607
x4E72   = $4E72 = 20082          m80b.asm:9612 (unused)
x4F35   = $4F35 = 20277          m80b.asm:9730
xb3CE6  = $3CE6 = 15590          m80b.asm:8352
xb3CE7  = $3CE7 = 15591          m80b.asm:8353
xb3CE8  = $3CE8 = 15592          m80b.asm:8354
xb3CE9  = $3CE9 = 15593          m80b.asm:8355
xb3CEA  = $3CEA = 15594          m80b.asm:8356
xb3CEB  = $3CEB = 15595          m80b.asm:8357
xb3CEC  = $3CEC = 15596          m80b.asm:8358
xb3CF1  = $3CF1 = 15601          m80b.asm:8361
xb3CF2  = $3CF2 = 15602          m80b.asm:8362
xb3CF3  = $3CF3 = 15603          m80b.asm:8363
xb3CF4  = $3CF4 = 15604          m80b.asm:8364
xb3CF5  = $3CF5 = 15605          m80b.asm:8365
xb3D28  = $3D28 = 15656          m80b.asm:8367
xb3D29  = $3D29 = 15657          m80b.asm:8368
xb3D2A  = $3D2A = 15658          m80b.asm:8369
xb3D2B  = $3D2B = 15659          m80b.asm:8370
xb3D2C  = $3D2C = 15660          m80b.asm:8371
xb3D2D  = $3D2D = 15661          m80b.asm:8372
xb3D2E  = $3D2E = 15662          m80b.asm:8373
xb3D2F  = $3D2F = 15663          m80b.asm:8374
xb3D30  = $3D30 = 15664          m80b.asm:8375
xb3D31  = $3D31 = 15665          m80b.asm:8376
xb3D32  = $3D32 = 15666          m80b.asm:8377
xb3D33  = $3D33 = 15667          m80b.asm:8378
xb3D38  = $3D38 = 15672          m80b.asm:8381
xb3D45  = $3D45 = 15685          m80b.asm:8386
xb3DD1  = $3DD1 = 15825          m80b.asm:8391
xb3DE2  = $3DE2 = 15842          m80b.asm:8400
xb3DE3  = $3DE3 = 15843          m80b.asm:8401
xb3DE4  = $3DE4 = 15844          m80b.asm:8402
xb3DE7  = $3DE7 = 15847          m80b.asm:8404
xb3DE8  = $3DE8 = 15848          m80b.asm:8405
xb3DE9  = $3DE9 = 15849          m80b.asm:8406
xb3DEA  = $3DEA = 15850          m80b.asm:8407
xb3E11  = $3E11 = 15889          m80b.asm:8411
xb3E2A  = $3E2A = 15914          m80b.asm:8416
xb3EBD  = $3EBD = 16061          m80b.asm:8421
xb3EBE  = $3EBE = 16062          m80b.asm:8422
xb3EC1  = $3EC1 = 16065          m80b.asm:8424
xb3EC2  = $3EC2 = 16066          m80b.asm:8425
xb3EC3  = $3EC3 = 16067          m80b.asm:8426
xb3EC4  = $3EC4 = 16068          m80b.asm:8427
xb3EC5  = $3EC5 = 16069          m80b.asm:8428
xb3EC6  = $3EC6 = 16070          m80b.asm:8429
xb3EC7  = $3EC7 = 16071          m80b.asm:8430
xb3ECC  = $3ECC = 16076          m80b.asm:8433
xb3ECD  = $3ECD = 16077          m80b.asm:8434
xb3ED3  = $3ED3 = 16083          m80b.asm:8436
xb3ED4  = $3ED4 = 16084          m80b.asm:8437
xb3F56  = $3F56 = 16214          m80b.asm:8440
xb3F57  = $3F57 = 16215          m80b.asm:8441
xb3F58  = $3F58 = 16216          m80b.asm:8442
xb3F5B  = $3F5B = 16219          m80b.asm:8444
xb3F5C  = $3F5C = 16220          m80b.asm:8445
xb3F6D  = $3F6D = 16237          m80b.asm:8449
xb3FFA  = $3FFA = 16378          m80b.asm:8457
xb3FFB  = $3FFB = 16379          m80b.asm:8458
xb3FFC  = $3FFC = 16380          m80b.asm:8459
xb4005  = $4005 = 16389          m80b.asm:8464
xb4006  = $4006 = 16390          m80b.asm:8465
xb400D  = $400D = 16397          m80b.asm:8469
xb400E  = $400E = 16398          m80b.asm:8470
xb400F  = $400F = 16399          m80b.asm:8471
xb4010  = $4010 = 16400          m80b.asm:8472
xb4015  = $4015 = 16405          m80b.asm:8475
xb401A  = $401A = 16410          m80b.asm:8478
xb4081  = $4081 = 16513          m80b.asm:8514
xb4084  = $4084 = 16516          m80b.asm:8516
xb4085  = $4085 = 16517          m80b.asm:8517
xb4086  = $4086 = 16518          m80b.asm:8518
xb4087  = $4087 = 16519          m80b.asm:8519
xb4088  = $4088 = 16520          m80b.asm:8520
xb4089  = $4089 = 16521          m80b.asm:8521
xb408A  = $408A = 16522          m80b.asm:8522
xb408B  = $408B = 16523          m80b.asm:8523
xb408C  = $408C = 16524          m80b.asm:8524
xb408D  = $408D = 16525          m80b.asm:8525
xb408E  = $408E = 16526          m80b.asm:8526
xb408F  = $408F = 16527          m80b.asm:8527
xb4090  = $4090 = 16528          m80b.asm:8528
xb4091  = $4091 = 16529          m80b.asm:8529
xb4092  = $4092 = 16530          m80b.asm:8530
xb412C  = $412C = 16684          m80b.asm:8535
xb4141  = $4141 = 16705          m80b.asm:8543
xb4142  = $4142 = 16706          m80b.asm:8544
xb4243  = $4243 = 16963          m80b.asm:8548
xb4244  = $4244 = 16964          m80b.asm:8549
xb4445  = $4445 = 17477          m80b.asm:8553
xb4446  = $4446 = 17478          m80b.asm:8554
xb4647  = $4647 = 17991          m80b.asm:8557
xb4648  = $4648 = 17992          m80b.asm:8558
xb470A  = $470A = 18186          m80b.asm:8588
xb470B  = $470B = 18187          m80b.asm:8589
xf3CF6  = $3CF6 = 15606          m80b.asm:8366
xf3D39  = $3D39 = 15673          m80b.asm:8382
xf3D48  = $3D48 = 15688          m80b.asm:8388
xf3DCA  = $3DCA = 15818          m80b.asm:8390
xf3DEB  = $3DEB = 15851          m80b.asm:8408
xf3DFC  = $3DFC = 15868          m80b.asm:8409
xf3E13  = $3E13 = 15891          m80b.asm:8412
xf3E1B  = $3E1B = 15899          m80b.asm:8413
xf3E23  = $3E23 = 15907          m80b.asm:8414
xf3E27  = $3E27 = 15911          m80b.asm:8415
xf3E2B  = $3E2B = 15915          m80b.asm:8417
xf3E31  = $3E31 = 15921          m80b.asm:8418
xf3E81  = $3E81 = 16001          m80b.asm:8420
xf3ECE  = $3ECE = 16078          m80b.asm:8435
xf3ED5  = $3ED5 = 16085          m80b.asm:8438
xf3F15  = $3F15 = 16149          m80b.asm:8439
xf3F5D  = $3F5D = 16221          m80b.asm:8446
xf3F67  = $3F67 = 16231          m80b.asm:8447
xf3F6A  = $3F6A = 16234          m80b.asm:8448
xf3F72  = $3F72 = 16242          m80b.asm:8453
xf3FB4  = $3FB4 = 16308          m80b.asm:8454
xf4093  = $4093 = 16531          m80b.asm:8531
xf40B4  = $40B4 = 16564          m80b.asm:8532
xf40BD  = $40BD = 16573          m80b.asm:8533
xf40D5  = $40D5 = 16597          m80b.asm:8534
xf412D  = $412D = 16685          m80b.asm:8536
xf4135  = $4135 = 16693          m80b.asm:8537
xf4143  = $4143 = 16707          m80b.asm:8546
xf4245  = $4245 = 16965          m80b.asm:8551
xf4447  = $4447 = 17479          m80b.asm:8555
xf4451  = $4451 = 17489          m80b.asm:8556 (unused)
xf4649  = $4649 = 17993          m80b.asm:8559
xf4DCD  = $4DCD = 19917          m80b.asm:9604
xf4DF1  = $4DF1 = 19953          m80b.asm:9609
xs0106  = $0106 =   262          m80b.asm:18
xs0D78  = $0D78 =  3448          m80b.asm:1784
xs0D8B  = $0D8B =  3467          m80b.asm:1786
xs4138  = $4138 = 16696          m80b.asm:8539
xs413B  = $413B = 16699          m80b.asm:8540
xs413E  = $413E = 16702          m80b.asm:8541
xs469B  = $469B = 18075          m80b.asm:8563
xs46AA  = $46AA = 18090          m80b.asm:8564
xs46BA  = $46BA = 18106          m80b.asm:8565
xt0598  = $0598 =  1432          m80b.asm:634
xt05CC  = $05CC =  1484          m80b.asm:664
xt05FB  = $05FB =  1531          m80b.asm:690
xt0605  = $0605 =  1541          m80b.asm:701
xt066A  = $066A =  1642          m80b.asm:755
xt06B8  = $06B8 =  1720          m80b.asm:799
xt0702  = $0702 =  1794          m80b.asm:833
xt0703  = $0703 =  1795          m80b.asm:837
xt070B  = $070B =  1803          m80b.asm:843
xt0715  = $0715 =  1813          m80b.asm:853
xt0787  = $0787 =  1927          m80b.asm:908
xt07AE  = $07AE =  1966          m80b.asm:934
xt07AF  = $07AF =  1967          m80b.asm:939
xt07DD  = $07DD =  2013          m80b.asm:963
xt07F3  = $07F3 =  2035          m80b.asm:975
xt0805  = $0805 =  2053          m80b.asm:988
xt0831  = $0831 =  2097          m80b.asm:1013
xt0855  = $0855 =  2133          m80b.asm:1031
xt0856  = $0856 =  2134          m80b.asm:1037
xt08D2  = $08D2 =  2258          m80b.asm:1105
xt0925  = $0925 =  2341          m80b.asm:1147
xt092C  = $092C =  2348          m80b.asm:1153
xt092D  = $092D =  2349          m80b.asm:1157
xt092E  = $092E =  2350          m80b.asm:1161
xt092F  = $092F =  2351          m80b.asm:1165
xt0946  = $0946 =  2374          m80b.asm:1179
xt0947  = $0947 =  2375          m80b.asm:1183
xt0948  = $0948 =  2376          m80b.asm:1191
xt09D0  = $09D0 =  2512          m80b.asm:1233
xt09E8  = $09E8 =  2536          m80b.asm:1241
xt0A06  = $0A06 =  2566          m80b.asm:1257
xt0A84  = $0A84 =  2692          m80b.asm:1321
xt0AC6  = $0AC6 =  2758          m80b.asm:1355
xt402B  = $402B = 16427          m80b.asm:8488
xw3CED  = $3CED = 15597          m80b.asm:8359
xw3CEF  = $3CEF = 15599          m80b.asm:8360
xw3D34  = $3D34 = 15668          m80b.asm:8379
xw3D36  = $3D36 = 15670          m80b.asm:8380
xw3D3F  = $3D3F = 15679          m80b.asm:8383
xw3D41  = $3D41 = 15681          m80b.asm:8384
xw3D43  = $3D43 = 15683          m80b.asm:8385
xw3D46  = $3D46 = 15686          m80b.asm:8387
xw3DD2  = $3DD2 = 15826          m80b.asm:8392
xw3DD4  = $3DD4 = 15828          m80b.asm:8393
xw3DD6  = $3DD6 = 15830          m80b.asm:8394
xw3DD8  = $3DD8 = 15832          m80b.asm:8395
xw3DDA  = $3DDA = 15834          m80b.asm:8396
xw3DDC  = $3DDC = 15836          m80b.asm:8397
xw3DDE  = $3DDE = 15838          m80b.asm:8398
xw3DE0  = $3DE0 = 15840          m80b.asm:8399
xw3DE5  = $3DE5 = 15845          m80b.asm:8403
xw3E0F  = $3E0F = 15887          m80b.asm:8410
xw3EBF  = $3EBF = 16063          m80b.asm:8423
xw3EC8  = $3EC8 = 16072          m80b.asm:8431
xw3ECA  = $3ECA = 16074          m80b.asm:8432
xw3F59  = $3F59 = 16217          m80b.asm:8443
xw3F6E  = $3F6E = 16238          m80b.asm:8450
xw3F70  = $3F70 = 16240          m80b.asm:8451
xw3FF6  = $3FF6 = 16374          m80b.asm:8455
xw3FF8  = $3FF8 = 16376          m80b.asm:8456
xw3FFD  = $3FFD = 16381          m80b.asm:8460
xw3FFF  = $3FFF = 16383          m80b.asm:8461
xw4001  = $4001 = 16385          m80b.asm:8462
xw4003  = $4003 = 16387          m80b.asm:8463
xw4007  = $4007 = 16391          m80b.asm:8466
xw4009  = $4009 = 16393          m80b.asm:8467
xw400B  = $400B = 16395          m80b.asm:8468
xw4011  = $4011 = 16401          m80b.asm:8473
xw4013  = $4013 = 16403          m80b.asm:8474
xw4016  = $4016 = 16406          m80b.asm:8476
xw4018  = $4018 = 16408          m80b.asm:8477
xw401B  = $401B = 16411          m80b.asm:8479
xw401D  = $401D = 16413          m80b.asm:8480
xw401F  = $401F = 16415          m80b.asm:8481
xw4021  = $4021 = 16417          m80b.asm:8482
xw4023  = $4023 = 16419          m80b.asm:8483
xw4025  = $4025 = 16421          m80b.asm:8484
xw4027  = $4027 = 16423          m80b.asm:8485
xw4029  = $4029 = 16425          m80b.asm:8486
xw4082  = $4082 = 16514          m80b.asm:8515
xw4699  = $4699 = 18073          m80b.asm:8561


total time: 0.1773 sec.
1 error
